 CShell

 Timestamp is 5fa0ef53 (Mon Nov  2 21:49:07 2020)

 Preferred load address is 10000000

 Start         Length     Name                   Class
 0001:00000000 00010a00H .text$di                CODE
 0001:00010a00 00183c70H .text$mn                CODE
 0001:00194670 000030e0H .text$x                 CODE
 0001:00197750 00001041H .text$yd                CODE
 0002:00000000 00000104H .CRT$XCA                DATA
 0002:00000104 00000138H .CRT$XCU                DATA
 0002:0000023c 00000104H .CRT$XCZ                DATA
 0002:00000340 00000104H .CRT$XIA                DATA
 0002:00000444 00000118H .CRT$XIC                DATA
 0002:0000055c 00000104H .CRT$XIZ                DATA
 0002:00000660 00000004H .CRT$XLA                DATA
 0002:00000664 00000004H .CRT$XLZ                DATA
 0002:00000668 00000104H .CRT$XPA                DATA
 0002:0000076c 0000010cH .CRT$XPX                DATA
 0002:00000878 00000104H .CRT$XPXA               DATA
 0002:0000097c 00000104H .CRT$XPZ                DATA
 0002:00000a80 00000104H .CRT$XTA                DATA
 0002:00000b84 0000010cH .CRT$XTZ                DATA
 0002:00000c90 00036320H .rdata                  DATA
 0002:00036fb0 0000011cH .rdata$T                DATA
 0002:000370cc 000019d0H .rdata$r                DATA
 0002:00038a9c 00000338H .rdata$sxdata           DATA
 0002:00038dd4 00000188H .rdata$zzzdbg           DATA
 0002:00038f5c 00000104H .rtc$IAA                DATA
 0002:00039060 00000104H .rtc$IZZ                DATA
 0002:00039164 00000104H .rtc$TAA                DATA
 0002:00039268 00000108H .rtc$TZZ                DATA
 0002:00039370 00002b10H .xdata$x                DATA
 0002:0003be80 000001aeH .edata                  DATA
 0003:00000000 0000228cH .data                   DATA
 0003:0000228c 00000a0cH .data$r                 DATA
 0003:00002c98 00004bd0H .bss                    DATA
 0004:00000000 00000314H .idata$5                DATA
 0004:00000314 00000028H .idata$2                DATA
 0004:0000033c 00000014H .idata$3                DATA
 0004:00000350 00000314H .idata$4                DATA
 0004:00000664 00000c91H .idata$6                DATA
 0005:00000000 00000104H .tls                    DATA
 0005:00000104 00000104H .tls$                   DATA
 0005:00000208 00000101H .tls$ZZZ                DATA
 0006:00000000 00000109H .00cfg                  DATA
 0007:00000000 00000170H .rsrc$01                DATA
 0007:00000170 000002ccH .rsrc$02                DATA

  Address         Publics by Value              Rva+Base       Lib:Object

 0000:00000000       ___arm64x_extra_rfe_table_size 00000000     <absolute>
 0000:00000000       ___hybrid_auxiliary_iat    00000000     <absolute>
 0000:00000000       ___dynamic_value_reloc_table 00000000     <absolute>
 0000:00000000       ___guard_eh_cont_count     00000000     <absolute>
 0000:00000000       ___guard_fids_table        00000000     <absolute>
 0000:00000000       ___arm64x_redirection_metadata 00000000     <absolute>
 0000:00000000       ___arm64x_native_entrypoint 00000000     <absolute>
 0000:00000000       ___arm64x_redirection_metadata_count 00000000     <absolute>
 0000:00000000       ___x64_code_ranges_to_entry_points_count 00000000     <absolute>
 0000:00000000       ___guard_iat_table         00000000     <absolute>
 0000:00000000       __except_list              00000000     <absolute>
 0000:00000000       ___x64_code_ranges_to_entry_points 00000000     <absolute>
 0000:00000000       ___hybrid_code_map_count   00000000     <absolute>
 0000:00000000       ___guard_fids_count        00000000     <absolute>
 0000:00000000       ___enclave_config          00000000     <absolute>
 0000:00000000       ___guard_iat_count         00000000     <absolute>
 0000:00000000       ___hybrid_code_map         00000000     <absolute>
 0000:00000000       ___guard_longjmp_count     00000000     <absolute>
 0000:00000000       ___volatile_metadata       00000000     <absolute>
 0000:00000000       ___arm64x_extra_rfe_table  00000000     <absolute>
 0000:00000000       ___guard_eh_cont_table     00000000     <absolute>
 0000:00000000       ___AbsoluteZero            00000000     <absolute>
 0000:00000000       ___guard_longjmp_table     00000000     <absolute>
 0000:0000002c       __tls_array                0000002c     <absolute>
 0000:00000076       ___safe_se_handler_count   00000076     <absolute>
 0000:00000100       ___guard_flags             00000100     <absolute>
 0000:00000000       ___ImageBase               10000000     <linker-defined>
 0001:00010a00       ?GetDebrisBounceSound@@YAPADW4DebrisType@@H@Z 10011a00 f   DebrisTypes.obj
 0001:00010aa0       ?GetDebrisExplodeSound@@YAPADW4DebrisType@@H@Z 10011aa0 f   DebrisTypes.obj
 0001:00010b40       ?GetDebrisModel@@YAPADW4DebrisType@@AAV?$_CVector@M@@H@Z 10011b40 f   DebrisTypes.obj
 0001:00010d80       ?GetDebrisSkin@@YAPADW4DebrisType@@@Z 10011d80 f   DebrisTypes.obj
 0001:00010dc0       ?GetDebrisSurfaceType@@YA?AW4SurfaceType@@W4DebrisType@@@Z 10011dc0 f   DebrisTypes.obj
 0001:00010ef0       ?GetDebrisType@@YA?AW4DebrisType@@W4SurfaceType@@@Z 10011ef0 f   DebrisTypes.obj
 0001:00011120       ?GetNumDebrisBounceSounds@@YAHW4DebrisType@@@Z 10012120 f   DebrisTypes.obj
 0001:00011160       ?GetNumDebrisExplodeSounds@@YAHW4DebrisType@@@Z 10012160 f   DebrisTypes.obj
 0001:000111a0       ?GetNumDebrisModels@@YAHW4DebrisType@@@Z 100121a0 f   DebrisTypes.obj
 0001:000112f0       ?GetVectorDebrisType@@YA?AW4DebrisType@@W4SurfaceType@@@Z 100122f0 f   DebrisTypes.obj
 0001:000114c0       ?IsSmallDebris@@YADW4DebrisType@@@Z 100124c0 f   DebrisTypes.obj
 0001:00011500       ?GetGibModel@@YAPADEW4GibType@@W4ModelSize@@@Z 10012500 f   ModelFuncs.obj
 0001:00012690       ?GetModel@@YAPADEW4ModelSize@@@Z 10013690 f   ModelFuncs.obj
 0001:00012a60       ?GetModelName@@YAPADEW4ModelSize@@@Z 10013a60 f   ModelFuncs.obj
 0001:00012dd0       ?GetModelType@@YA?AW4ModelType@@EW4ModelSize@@@Z 10013dd0 f   ModelFuncs.obj
 0001:00012ec0       ?GetSkin@@YAPADEW4CharacterClass@@W4ModelSize@@D@Z 10013ec0 f   ModelFuncs.obj
 0001:00013e20       ?GetTurretFilename@@YAPADEW4ModelSize@@@Z 10014e20 f   ModelFuncs.obj
 0001:00013ec0       ??0?$_CVector@M@@QAE@XZ    10014ec0 f i RiotCommonUtilities.obj
 0001:00013ee0       ?Color255VectorToWord@@YAGPAV?$_CVector@M@@@Z 10014ee0 f   RiotCommonUtilities.obj
 0001:00013f80       ?Color255WordToVector@@YAXGPAV?$_CVector@M@@@Z 10014f80 f   RiotCommonUtilities.obj
 0001:00013ff0       ?CompressRotationByte@@YAEPAVCommonLT@@PAUDRotation_t@@@Z 10014ff0 f   RiotCommonUtilities.obj
 0001:000140a0       ?GetRandom@@YAHH@Z         100150a0 f   RiotCommonUtilities.obj
 0001:000140f0       ?GetRandom@@YAHHH@Z        100150f0 f   RiotCommonUtilities.obj
 0001:00014150       ?GetRandom@@YAHXZ          10015150 f   RiotCommonUtilities.obj
 0001:00014170       ?GetRandom@@YAMMM@Z        10015170 f   RiotCommonUtilities.obj
 0001:000141d0       ?UncompressRotationByte@@YAXPAVCommonLT@@EPAUDRotation_t@@@Z 100151d0 f   RiotCommonUtilities.obj
 0001:00014250       ?CalculateWeaponPathAndFirePos@@YAXW4RiotWeaponId@@AAV?$_CVector@M@@111@Z 10015250 f   WeaponDefs.obj
 0001:00014790       ?GetWeaponPerturbe@@YAEHAAM0@Z 10015790 f i WeaponDefs.obj
 0001:000148c0       ?GetWeaponSpread@@YAMH@Z   100158c0 f i WeaponDefs.obj
 0001:000148f0       ??0CAnimeLineFX@@QAE@XZ    100158f0 f   AnimeLineFX.obj
 0001:000149a0       ??0CSpecialFX@@QAE@XZ      100159a0 f i AnimeLineFX.obj
 0001:00014a20       ??0DRotation_t@@QAE@XZ     10015a20 f i AnimeLineFX.obj
 0001:00014a50       ??0ObjectCreateStruct_t@@QAE@XZ 10015a50 f i AnimeLineFX.obj
 0001:00014aa0       ??0PlaySoundInfo_t@@QAE@XZ 10015aa0 f i AnimeLineFX.obj
 0001:00014ad0       ??0VarTrack@@QAE@XZ        10015ad0 f i AnimeLineFX.obj
 0001:00014b10       ??1CAnimeLineFX@@UAE@XZ    10015b10 f   AnimeLineFX.obj
 0001:00014c00       ??1CSpecialFX@@UAE@XZ      10015c00 f i AnimeLineFX.obj
 0001:00014ca0       ??X?$_CVector@M@@QAEXM@Z   10015ca0 f i AnimeLineFX.obj
 0001:00014d10       ??_GCAnimeLineFX@@UAEPAXI@Z 10015d10 f i AnimeLineFX.obj
 0001:00014d10       ??_ECAnimeLineFX@@UAEPAXI@Z 10015d10 f i AnimeLineFX.obj
 0001:00014d60       ??_GCSpecialFX@@UAEPAXI@Z  10015d60 f i AnimeLineFX.obj
 0001:00014d60       ??_ECSpecialFX@@UAEPAXI@Z  10015d60 f i AnimeLineFX.obj
 0001:00014db0       ??_H@YGXPAXIIP6EPAX0@Z@Z   10015db0 f i AnimeLineFX.obj
 0001:00014e00       ?CreateObject@CAnimeLineFX@@UAEDPAVClientDE@@@Z 10015e00 f   AnimeLineFX.obj
 0001:00015660       ?CreateObject@CSpecialFX@@UAEDPAVClientDE@@@Z 10016660 f i AnimeLineFX.obj
 0001:000156a0       ?GetFloat@VarTrack@@QAEMM@Z 100166a0 f i AnimeLineFX.obj
 0001:00015700       ?GetStr@VarTrack@@QAEPADPAD@Z 10016700 f i AnimeLineFX.obj
 0001:00015770       ?HandleTouch@CSpecialFX@@UAEXPAVCollisionInfo@@M@Z 10016770 f i AnimeLineFX.obj
 0001:00015790       ?Init@CAnimeLineFX@@UAEDPAUSFXCREATESTRUCT@@@Z 10016790 f   AnimeLineFX.obj
 0001:00015820       ?Init@CSpecialFX@@UAEDPAUSFXCREATESTRUCT@@@Z 10016820 f i AnimeLineFX.obj
 0001:00015860       ?Init@VarTrack@@QAEDPAVClientDE@@PAD1M@Z 10016860 f i AnimeLineFX.obj
 0001:00015980       ?IsInitted@VarTrack@@QAEDXZ 10016980 f i AnimeLineFX.obj
 0001:00015a00       ?Update@CAnimeLineFX@@UAEDXZ 10016a00 f   AnimeLineFX.obj
 0001:00015d90       ?WantRemove@CSpecialFX@@UAEXD@Z 10016d90 f i AnimeLineFX.obj
 0001:00015dd0       ___local_stdio_printf_options 10016dd0 f i AnimeLineFX.obj
 0001:00015df0       ___local_stdio_scanf_options 10016df0 f i AnimeLineFX.obj
 0001:00015e10       __vsnprintf_l              10016e10 f i AnimeLineFX.obj
 0001:00015e80       __vsprintf_l               10016e80 f i AnimeLineFX.obj
 0001:00015ec0       __vsscanf_l                10016ec0 f i AnimeLineFX.obj
 0001:00015f10       _sprintf                   10016f10 f i AnimeLineFX.obj
 0001:00015f60       _sscanf                    10016f60 f i AnimeLineFX.obj
 0001:00015fb0       ?CreateObject@CBaseLineSystemFX@@UAEDPAVClientDE@@@Z 10016fb0 f   BaseLineSystemFX.obj
 0001:00016280       ?Init@CBaseLineSystemFX@@UAEDPAUSFXCREATESTRUCT@@@Z 10017280 f   BaseLineSystemFX.obj
 0001:000162c0       ?Update@CBaseLineSystemFX@@UAEDXZ 100172c0 f   BaseLineSystemFX.obj
 0001:00016300       ??0CBaseMenu@@QAE@XZ       10017300 f   BaseMenu.obj
 0001:00016410       ??0CSize@@QAE@XZ           10017410 f i BaseMenu.obj
 0001:00016450       ??0GENERIC_ITEM@@QAE@XZ    10017450 f i BaseMenu.obj
 0001:000164c0       ??1CBaseMenu@@QAE@XZ       100174c0 f   BaseMenu.obj
 0001:00016540       ?AddUnderline@CBaseMenu@@MAEPAUHSURFACE_t@@PAU2@HH@Z 10017540 f   BaseMenu.obj
 0001:000166e0       ?CalculateMenuDims@CBaseMenu@@MAEXXZ 100176e0 f   BaseMenu.obj
 0001:00016a10       ?CheckSelectionOffMenuBottom@CBaseMenu@@MAEXXZ 10017a10 f   BaseMenu.obj
 0001:00016b10       ?CheckSelectionOffMenuTop@CBaseMenu@@MAEXXZ 10017b10 f   BaseMenu.obj
 0001:00016b50       ?CropMenuItemBottom@CBaseMenu@@MAEPAUHSURFACE_t@@PAU2@@Z 10017b50 f   BaseMenu.obj
 0001:00016cb0       ?CropMenuItemTop@CBaseMenu@@MAEPAUHSURFACE_t@@PAU2@@Z 10017cb0 f   BaseMenu.obj
 0001:00016e00       ?Down@CBaseMenu@@UAEXXZ    10017e00 f   BaseMenu.obj
 0001:00016ed0       ?Draw@CBaseMenu@@UAEXPAUHSURFACE_t@@HHH@Z 10017ed0 f   BaseMenu.obj
 0001:00017140       ?End@CBaseMenu@@UAEXXZ     10018140 f   BaseMenu.obj
 0001:000171a0       ?Esc@CBaseMenu@@UAEXXZ     100181a0 f   BaseMenu.obj
 0001:00017220       ?GetArrowHeight@CRiotMenu@@QAEHXZ 10018220 f i BaseMenu.obj
 0001:00017250       ?GetCurrentMenu@CRiotMenu@@QAEPAVCBaseMenu@@XZ 10018250 f i BaseMenu.obj
 0001:00017280       ?GetDownArrow@CRiotMenu@@QAEPAUHSURFACE_t@@XZ 10018280 f i BaseMenu.obj
 0001:000172b0       ?GetMenuAreaBottom@CBaseMenu@@IAEHXZ 100182b0 f i BaseMenu.obj
 0001:000172e0       ?GetMenuAreaLeft@CBaseMenu@@IAEHXZ 100182e0 f i BaseMenu.obj
 0001:00017310       ?GetMenuAreaTop@CBaseMenu@@IAEHXZ 10018310 f i BaseMenu.obj
 0001:00017340       ?GetUpArrow@CRiotMenu@@QAEPAUHSURFACE_t@@XZ 10018340 f i BaseMenu.obj
 0001:00017370       ?HandleInput@CBaseMenu@@UAEXH@Z 10018370 f i BaseMenu.obj
 0001:00017390       ?Home@CBaseMenu@@UAEXXZ    10018390 f   BaseMenu.obj
 0001:000173e0       ?Init@CBaseMenu@@UAEDPAVClientDE@@PAVCRiotMenu@@PAV1@HH@Z 100183e0 f   BaseMenu.obj
 0001:00017470       ?Left@CBaseMenu@@UAEXXZ    10018470 f   BaseMenu.obj
 0001:000174a0       ?LoadAllSurfaces@CBaseMenu@@UAEDXZ 100184a0 f i BaseMenu.obj
 0001:000174c0       ?LoadSurfaces@CBaseMenu@@MAEDXZ 100184c0 f   BaseMenu.obj
 0001:000176b0       ?OnEnterWorld@CBaseMenu@@UAEXXZ 100186b0 f   BaseMenu.obj
 0001:000176e0       ?OnExitWorld@CBaseMenu@@UAEXXZ 100186e0 f   BaseMenu.obj
 0001:00017710       ?PageDown@CBaseMenu@@UAEXXZ 10018710 f   BaseMenu.obj
 0001:00017740       ?PageUp@CBaseMenu@@UAEXXZ  10018740 f   BaseMenu.obj
 0001:00017770       ?PlayDownSound@CBaseMenu@@UAEXXZ 10018770 f i BaseMenu.obj
 0001:000177a0       ?PlayEndSound@CBaseMenu@@UAEXXZ 100187a0 f i BaseMenu.obj
 0001:000177d0       ?PlayEscSound@CBaseMenu@@UAEXXZ 100187d0 f i BaseMenu.obj
 0001:00017800       ?PlayHomeSound@CBaseMenu@@UAEXXZ 10018800 f i BaseMenu.obj
 0001:00017830       ?PlayLeftSound@CBaseMenu@@UAEXXZ 10018830 f i BaseMenu.obj
 0001:00017860       ?PlayPageDownSound@CBaseMenu@@UAEXXZ 10018860 f i BaseMenu.obj
 0001:00017890       ?PlayPageUpSound@CBaseMenu@@UAEXXZ 10018890 f i BaseMenu.obj
 0001:000178c0       ?PlayReturnSound@CBaseMenu@@UAEXXZ 100188c0 f i BaseMenu.obj
 0001:000178f0       ?PlayRightSound@CBaseMenu@@UAEXXZ 100188f0 f i BaseMenu.obj
 0001:00017920       ?PlaySound@CBaseMenu@@UAEXPAD@Z 10018920 f i BaseMenu.obj
 0001:00017960       ?PlayUpSound@CBaseMenu@@UAEXXZ 10018960 f i BaseMenu.obj
 0001:00017990       ?PostCalculateMenuDims@CBaseMenu@@MAEXXZ 10018990 f   BaseMenu.obj
 0001:000179b0       ?Reset@CBaseMenu@@UAEXXZ   100189b0 f i BaseMenu.obj
 0001:000179e0       ?Return@CBaseMenu@@UAEXXZ  100189e0 f   BaseMenu.obj
 0001:00017a10       ?Right@CBaseMenu@@UAEXXZ   10018a10 f   BaseMenu.obj
 0001:00017a40       ?ScreenDimsChanged@CBaseMenu@@UAEXHH@Z 10018a40 f   BaseMenu.obj
 0001:00017ac0       ?SetCurrentMenu@CRiotMenu@@QAEXPAVCBaseMenu@@@Z 10018ac0 f i BaseMenu.obj
 0001:00017b10       ?UnloadAllSurfaces@CBaseMenu@@UAEXXZ 10018b10 f i BaseMenu.obj
 0001:00017b30       ?UnloadSurfaces@CBaseMenu@@MAEXXZ 10018b30 f   BaseMenu.obj
 0001:00017bb0       ?Up@CBaseMenu@@UAEXXZ      10018bb0 f   BaseMenu.obj
 0001:00017c80       ?CreateObject@CBaseParticleSystemFX@@UAEDPAVClientDE@@@Z 10018c80 f   BaseParticleSystemFX.obj
 0001:000180e0       ?GetRandomColorInRange@CBaseParticleSystemFX@@MAEXAAV?$_CVector@M@@@Z 100190e0 f   BaseParticleSystemFX.obj
 0001:00018250       ?Init@CBaseParticleSystemFX@@UAEDPAUSFXCREATESTRUCT@@@Z 10019250 f   BaseParticleSystemFX.obj
 0001:00018340       ?Update@CBaseParticleSystemFX@@UAEDXZ 10019340 f   BaseParticleSystemFX.obj
 0001:000185a0       ?CreateObject@CBaseScaleFX@@UAEDPAVClientDE@@@Z 100195a0 f   BaseScaleFX.obj
 0001:00018aa0       ?Init@CBaseScaleFX@@UAEDPAUSFXCREATESTRUCT@@@Z 10019aa0 f   BaseScaleFX.obj
 0001:00018cd0       ?Update@CBaseScaleFX@@UAEDXZ 10019cd0 f   BaseScaleFX.obj
 0001:00018fa0       ?UpdateAlpha@CBaseScaleFX@@MAEXM@Z 10019fa0 f   BaseScaleFX.obj
 0001:00019160       ?UpdatePos@CBaseScaleFX@@MAEXM@Z 1001a160 f   BaseScaleFX.obj
 0001:00019290       ?UpdateRot@CBaseScaleFX@@MAEXM@Z 1001a290 f   BaseScaleFX.obj
 0001:00019460       ?UpdateScale@CBaseScaleFX@@MAEXM@Z 1001a460 f   BaseScaleFX.obj
 0001:00019590       ??0CBitmapFont@@QAE@XZ     1001a590 f   BitmapFont.obj
 0001:00019640       ??1CBitmapFont@@QAE@XZ     1001a640 f   BitmapFont.obj
 0001:000196e0       ?Init@CBitmapFont@@QAEDPAVClientDE@@PAD@Z 1001a6e0 f   BitmapFont.obj
 0001:000197d0       ?InitCharPositions@CBitmapFont@@IAEXXZ 1001a7d0 f   BitmapFont.obj
 0001:00019840       ??0DPlane_t@@QAE@XZ        1001a840 f i BulletTrailFX.obj
 0001:00019870       ??0IntersectInfo_t@@QAE@XZ 1001a870 f i BulletTrailFX.obj
 0001:000198b0       ??0IntersectQuery@@QAE@XZ  1001a8b0 f i BulletTrailFX.obj
 0001:00019910       ?GetLiquidColorRange@@YADW4ContainerCode@@PAV?$_CVector@M@@1@Z 1001a910 f i BulletTrailFX.obj
 0001:00019c60       ?Init@CBulletTrailFX@@UAEDPAUSFXCREATESTRUCT@@@Z 1001ac60 f   BulletTrailFX.obj
 0001:00019e00       ?IsLiquid@@YADW4ContainerCode@@@Z 1001ae00 f i BulletTrailFX.obj
 0001:00019e40       ?Update@CBulletTrailFX@@UAEDXZ 1001ae40 f   BulletTrailFX.obj
 0001:0001ab70       ??0DELinePt_t@@QAE@XZ      1001bb70 f i CastLineFX.obj
 0001:0001aba0       ??0DELine_t@@QAE@XZ        1001bba0 f i CastLineFX.obj
 0001:0001abe0       ?Init@CCastLineFX@@UAEDPAUSFXCREATESTRUCT@@@Z 1001bbe0 f   CastLineFX.obj
 0001:0001aca0       ?Update@CCastLineFX@@UAEDXZ 1001bca0 f   CastLineFX.obj
 0001:0001b240       ??0CClientInfoMgr@@QAE@XZ  1001c240 f   ClientInfoMgr.obj
 0001:0001b2b0       ??0CLIENT_INFO@@QAE@XZ     1001c2b0 f i ClientInfoMgr.obj
 0001:0001b3a0       ??1CClientInfoMgr@@QAE@XZ  1001c3a0 f   ClientInfoMgr.obj
 0001:0001b4b0       ?AddClient@CClientInfoMgr@@QAEXPAUHSTRING_t@@KHEEE@Z 1001c4b0 f   ClientInfoMgr.obj
 0001:0001b690       ?AddFrag@CClientInfoMgr@@QAEXKK@Z 1001c690 f   ClientInfoMgr.obj
 0001:0001b820       ?ClearAllFragSurfaces@CClientInfoMgr@@QAEXXZ 1001c820 f   ClientInfoMgr.obj
 0001:0001b920       ?Draw@CClientInfoMgr@@QAEXDD@Z 1001c920 f   ClientInfoMgr.obj
 0001:0001bdb0       ?GetClientByID@CClientInfoMgr@@QAEPAUCLIENT_INFO@@K@Z 1001cdb0 f   ClientInfoMgr.obj
 0001:0001be10       ?GetFont12n@CRiotMenu@@QAEPAVCFont12@@XZ 1001ce10 f i ClientInfoMgr.obj
 0001:0001be40       ?GetFont12s@CRiotMenu@@QAEPAVCFont12@@XZ 1001ce40 f i ClientInfoMgr.obj
 0001:0001be70       ?GetFont28s@CRiotMenu@@QAEPAVCFont28@@XZ 1001ce70 f i ClientInfoMgr.obj
 0001:0001bea0       ?GetMenu@CRiotClientShell@@QAEPAVCRiotMenu@@XZ 1001cea0 f i ClientInfoMgr.obj
 0001:0001bed0       ?GetNumClients@CClientInfoMgr@@QAEKXZ 1001ced0 f   ClientInfoMgr.obj
 0001:0001bf30       ?GetPlayerName@CClientInfoMgr@@QAEPADK@Z 1001cf30 f   ClientInfoMgr.obj
 0001:0001bfb0       ?Init@CClientInfoMgr@@QAEXPAVClientDE@@@Z 1001cfb0 f   ClientInfoMgr.obj
 0001:0001bfe0       ?RemoveAllClients@CClientInfoMgr@@QAEXXZ 1001cfe0 f   ClientInfoMgr.obj
 0001:0001c090       ?RemoveClient@CClientInfoMgr@@QAEXK@Z 1001d090 f   ClientInfoMgr.obj
 0001:0001c1b0       ?RemoveFrag@CClientInfoMgr@@QAEXKK@Z 1001d1b0 f   ClientInfoMgr.obj
 0001:0001c340       ?UpdateAllFragSurfaces@CClientInfoMgr@@QAEXXZ 1001d340 f   ClientInfoMgr.obj
 0001:0001c780       ?UpdateFragDisplay@CClientInfoMgr@@QAEXH@Z 1001d780 f   ClientInfoMgr.obj
 0001:0001c8d0       ?UpdateSingleFragSurface@CClientInfoMgr@@QAEXPAUCLIENT_INFO@@@Z 1001d8d0 f   ClientInfoMgr.obj
 0001:0001cb00       ?CommandName@@YAPADH@Z     1001db00 f   ClientUtilities.obj
 0001:0001cf40       ?CommandToArrayPos@@YAHH@Z 1001df40 f   ClientUtilities.obj
 0001:0001d1b0       ?CropSurface@@YAPAUHSURFACE_t@@PAU1@K@Z 1001e1b0 f   ClientUtilities.obj
 0001:0001d350       ?GetClientDE@CClientShellDE@@QBEPAVClientDE@@XZ 1001e350 f i ClientUtilities.obj
 0001:0001d370       ?PlaySoundFromObject@@YAPAUHSOUNDDE_t@@PAVDObject@@PADMEDDDE@Z 1001e370 f   ClientUtilities.obj
 0001:0001d560       ?PlaySoundFromPos@@YAPAUHSOUNDDE_t@@PAV?$_CVector@M@@PADMEDDDE@Z 1001e560 f   ClientUtilities.obj
 0001:0001d710       ?PlaySoundLocal@@YAPAUHSOUNDDE_t@@PADEDDED@Z 1001e710 f   ClientUtilities.obj
 0001:0001d870       ??0SFXCREATESTRUCT@@QAE@XZ 1001e870 f i ClientWeaponUtils.obj
 0001:0001d8a0       ??0WCREATESTRUCT@@QAE@XZ   1001e8a0 f i ClientWeaponUtils.obj
 0001:0001d910       ?AddLocalImpactFX@@YAXPAVDObject@@AAV?$_CVector@M@@11W4SurfaceType@@1EE@Z 1001e910 f   ClientWeaponUtils.obj
 0001:0001db60       ?AttackerLiquidFilterFn@@YADPAVDObject@@PAX@Z 1001eb60 f   ClientWeaponUtils.obj
 0001:0001dc00       ?GetSFXMgr@CRiotClientShell@@QAEPAVCSFXMgr@@XZ 1001ec00 f i ClientWeaponUtils.obj
 0001:0001dc30       ?GetSurfaceType@@YA?AW4SurfaceType@@K@Z 1001ec30 f   ClientWeaponUtils.obj
 0001:0001dca0       ?GetSurfaceType@@YA?AW4SurfaceType@@PAVDObject@@@Z 1001eca0 f   ClientWeaponUtils.obj
 0001:0001dd80       ?IsMoveable@@YADPAVDObject@@@Z 1001ed80 f   ClientWeaponUtils.obj
 0001:0001ddf0       ?ObjListFilterFn@@YADPAVDObject@@PAX@Z 1001edf0 f   ClientWeaponUtils.obj
 0001:0001de40       ?SpecificObjectFilterFn@@YADPAVDObject@@PAX@Z 1001ee40 f   ClientWeaponUtils.obj
 0001:0001de80       ?UserFlagToSurface@@YA?AW4SurfaceType@@K@Z 1001ee80 f i ClientWeaponUtils.obj
 0001:0001deb0       ?BounceMovingObject@@YADPAUPhysicsState_t@@PAUMovingObject_t@@PAV?$_CVector@M@@PAUIntersectInfo_t@@@Z 1001eeb0 f   client_physics.obj
 0001:0001e1f0       ?GetCurPhysicsState@@YAPAUPhysicsState_t@@PAUMovingObject_t@@@Z 1001f1f0 f   client_physics.obj
 0001:0001e240       ?InitMovingObject@@YAXPAUMovingObject_t@@PAV?$_CVector@M@@1@Z 1001f240 f   client_physics.obj
 0001:0001e3e0       ?SetPhysicsStateTimeStep@@YAXPAUPhysicsState_t@@M@Z 1001f3e0 f   client_physics.obj
 0001:0001e430       ?UpdateMovingObject@@YADPAUPhysicsState_t@@PAUMovingObject_t@@PAV?$_CVector@M@@@Z 1001f430 f   client_physics.obj
 0001:0001e880       ??0?$_CVector@M@@QAE@MMM@Z 1001f880 f i CMoveMgr.obj
 0001:0001e8d0       ??0CContainerInfo@@QAE@XZ  1001f8d0 f i CMoveMgr.obj
 0001:0001e900       ??0CMoveMgr@@QAE@PAVCRiotClientShell@@@Z 1001f900 f   CMoveMgr.obj
 0001:0001ea30       ??0CollisionInfo@@QAE@XZ   1001fa30 f i CMoveMgr.obj
 0001:0001ea70       ??0MoveInfo@@QAE@XZ        1001fa70 f i CMoveMgr.obj
 0001:0001eaa0       ??0Pusher@@QAE@XZ          1001faa0 f i CMoveMgr.obj
 0001:0001ead0       ??1CMoveMgr@@QAE@XZ        1001fad0 f   CMoveMgr.obj
 0001:0001eb90       ??D?$_CVector@M@@QBE?AV0@M@Z 1001fb90 f i CMoveMgr.obj
 0001:0001ec00       ??G?$_CVector@M@@QBE?AV0@V0@@Z 1001fc00 f i CMoveMgr.obj
 0001:0001ec70       ??H?$_CVector@M@@QBE?AV0@V0@@Z 1001fc70 f i CMoveMgr.obj
 0001:0001ece0       ??Y?$_CVector@M@@QAEXV0@@Z 1001fce0 f i CMoveMgr.obj
 0001:0001ed50       ?AddPusher@CMoveMgr@@QAEKAAV?$_CVector@M@@MMMM@Z 1001fd50 f   CMoveMgr.obj
 0001:0001ee80       ?AreDimsCorrect@CMoveMgr@@IAEDXZ 1001fe80 f   CMoveMgr.obj
 0001:0001efc0       ?Common@ClientDE@@QAEPAVCommonLT@@XZ 1001ffc0 f i CMoveMgr.obj
 0001:0001eff0       ?GetCurContainerCode@CRiotClientShell@@QBE?AW4ContainerCode@@XZ 1001fff0 f i CMoveMgr.obj
 0001:0001f020       ?GetPlayerState@CRiotClientShell@@QBE?AW4PlayerState@@XZ 10020020 f i CMoveMgr.obj
 0001:0001f050       ?GetSettings@CRiotClientShell@@QAEPAVCRiotSettings@@XZ 10020050 f i CMoveMgr.obj
 0001:0001f080       ?GetSettings@CRiotMenu@@QAEPAVCRiotSettings@@XZ 10020080 f i CMoveMgr.obj
 0001:0001f0a0       ?Init@?$_CVector@M@@QAEXMMM@Z 100200a0 f i CMoveMgr.obj
 0001:0001f0f0       ?Init@CMoveMgr@@QAEDPAVClientDE@@@Z 100200f0 f   CMoveMgr.obj
 0001:0001f220       ?IsBodyInLiquid@CMoveMgr@@IAEDXZ 10020220 f   CMoveMgr.obj
 0001:0001f290       ?IsDead@CMoveMgr@@IAEDXZ   10020290 f   CMoveMgr.obj
 0001:0001f2d0       ?IsFreeMovement@@YADW4ContainerCode@@@Z 100202d0 f i CMoveMgr.obj
 0001:0001f330       ?IsInStillAnim@CMoveMgr@@IAEDXZ 10020330 f   CMoveMgr.obj
 0001:0001f3d0       ?IsMecha@CMoveMgr@@IAEDXZ  100203d0 f   CMoveMgr.obj
 0001:0001f410       ?IsOnFoot@CRiotClientShell@@QBEDXZ 10020410 f i CMoveMgr.obj
 0001:0001f450       ?IsPlayerMovementAllowed@CRiotClientShell@@QAEDXZ 10020450 f i CMoveMgr.obj
 0001:0001f480       ?IsSpectatorMode@CRiotClientShell@@QAEDXZ 10020480 f i CMoveMgr.obj
 0001:0001f4b0       ?IsVehicleMode@CRiotClientShell@@QAEDXZ 100204b0 f i CMoveMgr.obj
 0001:0001f500       ?IsZeroGravity@@YADW4ContainerCode@@@Z 10020500 f i CMoveMgr.obj
 0001:0001f540       ?IsZoomed@CRiotClientShell@@QBEDXZ 10020540 f i CMoveMgr.obj
 0001:0001f570       ?Mag@?$_CVector@M@@QBEMXZ  10020570 f i CMoveMgr.obj
 0001:0001f5f0       ?MagSqr@?$_CVector@M@@QBEMXZ 100205f0 f i CMoveMgr.obj
 0001:0001f660       ?MoveLocalSolidObject@CMoveMgr@@IAEXXZ 10020660 f   CMoveMgr.obj
 0001:0001f780       ?MoveToClientObj@CMoveMgr@@IAEXXZ 10020780 f   CMoveMgr.obj
 0001:0001f820       ?Norm@?$_CVector@M@@QAEXM@Z 10020820 f i CMoveMgr.obj
 0001:0001f8c0       ?OnObjectMove@CMoveMgr@@QAEKPAVDObject@@DPAV?$_CVector@M@@@Z 100208c0 f   CMoveMgr.obj
 0001:0001f9b0       ?OnObjectRemove@CMoveMgr@@QAEXPAVDObject@@@Z 100209b0 f   CMoveMgr.obj
 0001:0001f9f0       ?OnObjectRotate@CMoveMgr@@QAEKPAVDObject@@DPAUDRotation_t@@@Z 100209f0 f   CMoveMgr.obj
 0001:0001fae0       ?OnPhysicsUpdate@CMoveMgr@@QAEXPAVLMessage@@@Z 10020ae0 f   CMoveMgr.obj
 0001:000203b0       ?OnServerForcePos@CMoveMgr@@QAEXPAVLMessage@@@Z 100213b0 f   CMoveMgr.obj
 0001:000205c0       ?OnTractorBeamPos@CMoveMgr@@QAEXPAVLMessage@@@Z 100215c0 f   CMoveMgr.obj
 0001:00020610       ?Physics@ClientDE@@QAEPAVCPhysicsLT@@XZ 10021610 f i CMoveMgr.obj
 0001:00020640       ?PostUpdate@CMoveMgr@@QAEXXZ 10021640 f   CMoveMgr.obj
 0001:00020660       ?ResetDims@CMoveMgr@@IAEXPAV?$_CVector@M@@@Z 10021660 f   CMoveMgr.obj
 0001:000207a0       ?RunLock@CRiotSettings@@QAEDXZ 100217a0 f i CMoveMgr.obj
 0001:000207d0       ?SetClientObjNonsolid@CMoveMgr@@IAEXXZ 100217d0 f   CMoveMgr.obj
 0001:00020840       ?SetSpectatorMode@CMoveMgr@@QAEXD@Z 10021840 f   CMoveMgr.obj
 0001:00020a40       ?SetVelMagnitude@CRiotClientShell@@QAEXM@Z 10021a40 f i CMoveMgr.obj
 0001:00020a70       ?ShowPos@CMoveMgr@@IAEXPAD@Z 10021a70 f   CMoveMgr.obj
 0001:00020b10       ?Update@CMoveMgr@@QAEXXZ   10021b10 f   CMoveMgr.obj
 0001:00020c20       ?UpdateAxisMovement@CMoveMgr@@QAEXDMMDMM@Z 10021c20 f   CMoveMgr.obj
 0001:00020cb0       ?UpdateControlFlags@CMoveMgr@@IAEXXZ 10021cb0 f   CMoveMgr.obj
 0001:000210a0       ?UpdateFriction@CMoveMgr@@IAEXXZ 100220a0 f   CMoveMgr.obj
 0001:000214b0       ?UpdateInLiquid@CMoveMgr@@IAEXPAVCContainerInfo@@@Z 100224b0 f   CMoveMgr.obj
 0001:00021b40       ?UpdateMotion@CMoveMgr@@IAEXXZ 10022b40 f   CMoveMgr.obj
 0001:000237b0       ?UpdateMouseStrafeFlags@CMoveMgr@@QAEXPAM@Z 100247b0 f   CMoveMgr.obj
 0001:000238d0       ?UpdateOnGround@CMoveMgr@@IAEXPAV?$_CVector@M@@@Z 100248d0 f   CMoveMgr.obj
 0001:00023ca0       ?UpdateOnLadder@CMoveMgr@@IAEXPAVCContainerInfo@@@Z 10024ca0 f   CMoveMgr.obj
 0001:00024090       ?UpdatePlayerAnimation@CMoveMgr@@IAEXXZ 10025090 f   CMoveMgr.obj
 0001:00024300       ?UpdatePushers@CMoveMgr@@IAEXXZ 10025300 f   CMoveMgr.obj
 0001:00024720       ?UpdateVelMagnitude@CMoveMgr@@IAEXXZ 10025720 f   CMoveMgr.obj
 0001:000247b0       ?VehicleMode@CRiotSettings@@QAEDXZ 100257b0 f i CMoveMgr.obj
 0001:000247e0       ?WritePositionInfo@CMoveMgr@@QAEXPAVLMessage@@@Z 100257e0 f   CMoveMgr.obj
 0001:00024a20       ?dl_Insert@@YAXPAVDLink@@0@Z 10025a20 f i CMoveMgr.obj
 0001:00024a70       ?dl_Remove@@YAXPAVDLink@@@Z 10025a70 f i CMoveMgr.obj
 0001:00024ab0       ?dl_TieOff@@YAXPAVDLink@@@Z 10025ab0 f i CMoveMgr.obj
 0001:00024ae0       ?AddCredit@CCredits@@QAEXPAD@Z 10025ae0 f   Credits.obj
 0001:00024b70       ?AddCredits@CCredits@@AAEXXZ 10025b70 f   Credits.obj
 0001:00024e40       ?AddString@CCredit@@AAEDPAD@Z 10025e40 f   Credits.obj
 0001:00024f40       ?AdvanceCredit@CCredits@@AAEXH@Z 10025f40 f   Credits.obj
 0001:00025000       ?Clear@CCredit@@QAEXXZ     10026000 f i Credits.obj
 0001:00025090       ?Clear@CCredits@@QAEXXZ    10026090 f i Credits.obj
 0001:00025140       ?DecSpeed@CCredits@@QAEXXZ 10026140 f i Credits.obj
 0001:00025190       ?Draw@CCredit@@QAEXHHK@Z   10026190 f   Credits.obj
 0001:000252b0       ?DrawCenteredStringToScreen@CCredits@@AAEXPAUHDEFONT_t@@PAUHSTRING_t@@KKHH@Z 100262b0 f   Credits.obj
 0001:000253d0       ?DrawString@CCredit@@QAEXPAUHSTRING_t@@KKHH@Z 100263d0 f   Credits.obj
 0001:000254e0       ?ExitToMainMenu@CCredits@@QAEXXZ 100264e0 f   Credits.obj
 0001:00025500       ?GetCredit@CCredits@@QAEPAVCCredit@@H@Z 10026500 f i Credits.obj
 0001:00025550       ?GetMode@CCredits@@QAEHXZ  10026550 f i Credits.obj
 0001:00025570       ?GetSpeed@CCredits@@SAMXZ  10026570 f i Credits.obj
 0001:00025590       ?GetState@CCredit@@QAEHXZ  10026590 f i Credits.obj
 0001:000255b0       ?GetString@CCredit@@QAEPAUHSTRING_t@@H@Z 100265b0 f i Credits.obj
 0001:000255f0       ?HandleInput@CCredits@@QAEXH@Z 100265f0 f   Credits.obj
 0001:000257d0       ?IncSpeed@CCredits@@QAEXXZ 100267d0 f i Credits.obj
 0001:00025820       ?Init@CCredit@@QAEDPAVClientDE@@PAD@Z 10026820 f   Credits.obj
 0001:00025a40       ?Init@CCredits@@QAEDPAVClientDE@@PAVCRiotClientShell@@HD@Z 10026a40 f   Credits.obj
 0001:00025b50       ?IsClearingScreen@CCredits@@QAEDXZ 10026b50 f i Credits.obj
 0001:00025b70       ?IsDemoIntro@CCredits@@QAEDXZ 10026b70 f i Credits.obj
 0001:00025bb0       ?IsIntro@CCredits@@QAEDXZ  10026bb0 f i Credits.obj
 0001:00025bf0       ?SetState@CCredit@@QAEXH@Z 10026bf0 f   Credits.obj
 0001:00025d50       ?SetStaticInfo@CCredit@@SADPAVClientDE@@HD@Z 10026d50 f   Credits.obj
 0001:00026030       ?Term@CCredit@@QAEXXZ      10027030 f   Credits.obj
 0001:000260c0       ?Term@CCredits@@QAEXXZ     100270c0 f   Credits.obj
 0001:00026130       ?TermStaticInfo@CCredit@@SAXXZ 10027130 f   Credits.obj
 0001:00026190       ?Update@CCredit@@QAEDXZ    10027190 f   Credits.obj
 0001:000262b0       ?Update@CCredits@@QAEXXZ   100272b0 f   Credits.obj
 0001:00026350       ?UpdateFadeIn@CCredit@@QAEDXZ 10027350 f   Credits.obj
 0001:000264f0       ?UpdateFadeOut@CCredit@@QAEDXZ 100274f0 f   Credits.obj
 0001:000266a0       ?UpdateHoldIn@CCredit@@QAEDXZ 100276a0 f   Credits.obj
 0001:000267f0       ?UpdateHoldOut@CCredit@@QAEDXZ 100277f0 f   Credits.obj
 0001:000268c0       ?CreditsWin_GetTextBuffer@@YAPADPAD@Z 100278c0 f   CreditsWin.obj
 0001:000269a0       ??0BSCREATESTRUCT@@QAE@XZ  100279a0 f i CriticalHitFX.obj
 0001:00026af0       ??0DLCREATESTRUCT@@QAE@XZ  10027af0 f i CriticalHitFX.obj
 0001:00026b50       ??0EXCREATESTRUCT@@QAE@XZ  10027b50 f i CriticalHitFX.obj
 0001:00026b80       ?CreateObject@CCriticalHitFX@@UAEDPAVClientDE@@@Z 10027b80 f   CriticalHitFX.obj
 0001:000270a0       ?GetFont18s@CRiotMenu@@QAEPAVCFont18@@XZ 100280a0 f i CriticalHitFX.obj
 0001:000270d0       ?GetInfoDisplay@CRiotClientShell@@QAEPAVCInfoDisplay@@XZ 100280d0 f i CriticalHitFX.obj
 0001:00027100       ?Init@CCriticalHitFX@@UAEDPAUSFXCREATESTRUCT@@@Z 10028100 f   CriticalHitFX.obj
 0001:000271a0       ??0GIBCREATESTRUCT@@QAE@XZ 100281a0 f i DeathFX.obj
 0001:00027260       ?CreateDeathFX@CDeathFX@@IAEXXZ 10028260 f   DeathFX.obj
 0001:00027330       ?CreateHumanDeathFX@CDeathFX@@IAEXXZ 10028330 f   DeathFX.obj
 0001:00027630       ?CreateMechaDeathFX@CDeathFX@@IAEXXZ 10028630 f   DeathFX.obj
 0001:000278e0       ?CreateObject@CDeathFX@@UAEDPAVClientDE@@@Z 100288e0 f   DeathFX.obj
 0001:000279f0       ?CreateVehicleDeathFX@CDeathFX@@IAEXXZ 100289f0 f   DeathFX.obj
 0001:00027ca0       ?Gore@CRiotSettings@@QAEDXZ 10028ca0 f i DeathFX.obj
 0001:00027cf0       ?Init@CDeathFX@@UAEDPAUSFXCREATESTRUCT@@@Z 10028cf0 f   DeathFX.obj
 0001:00027dd0       ?SetupGibTypes@CDeathFX@@IAEXAAUGIBCREATESTRUCT@@@Z 10028dd0 f   DeathFX.obj
 0001:00028320       ?CreateDebris@CDebrisFX@@AAEPAVDObject@@XZ 10029320 f   DebrisFX.obj
 0001:000287f0       ?CreateObject@CDebrisFX@@UAEDPAVClientDE@@@Z 100297f0 f   DebrisFX.obj
 0001:00029130       ?GetCamera@CRiotClientShell@@QBEPAVDObject@@XZ 1002a130 f i DebrisFX.obj
 0001:00029160       ?Init@CDebrisFX@@UAEDPAUSFXCREATESTRUCT@@@Z 1002a160 f   DebrisFX.obj
 0001:00029430       ?OkToRemoveDebris@CDebrisFX@@AAEDPAVDObject@@@Z 1002a430 f   DebrisFX.obj
 0001:00029760       ?SpecialFXSetting@CRiotSettings@@QAEEXZ 1002a760 f i DebrisFX.obj
 0001:00029790       ?Update@CDebrisFX@@UAEDXZ  1002a790 f   DebrisFX.obj
 0001:00029f00       ?UpdateEmmitter@CDebrisFX@@AAEDPAUMovingObject_t@@@Z 1002af00 f   DebrisFX.obj
 0001:0002a070       ??0CDetailSettingsMenu@@QAE@XZ 1002b070 f   DetailSettingsMenu.obj
 0001:0002a130       ?AdjustSetting@CDetailSettingsMenu@@IAEXHH@Z 1002b130 f   DetailSettingsMenu.obj
 0001:0002a560       ?AdvancedDisableLightMap@CRiotClientShell@@QAEDXZ 1002b560 f i DetailSettingsMenu.obj
 0001:0002a590       ?AdvancedDisableModelFB@CRiotClientShell@@QAEDXZ 1002b590 f i DetailSettingsMenu.obj
 0001:0002a5c0       ?Down@CDetailSettingsMenu@@UAEXXZ 1002b5c0 f   DetailSettingsMenu.obj
 0001:0002a5f0       ?Draw@CDetailSettingsMenu@@UAEXPAUHSURFACE_t@@HHH@Z 1002b5f0 f   DetailSettingsMenu.obj
 0001:0002a760       ?End@CDetailSettingsMenu@@UAEXXZ 1002b760 f   DetailSettingsMenu.obj
 0001:0002a790       ?Esc@CDetailSettingsMenu@@UAEXXZ 1002b790 f   DetailSettingsMenu.obj
 0001:0002a910       ?GetClientShell@CRiotMenu@@QAEPAVCRiotClientShell@@XZ 1002b910 f i DetailSettingsMenu.obj
 0001:0002a930       ?GetFont08n@CRiotMenu@@QAEPAVCFont08@@XZ 1002b930 f i DetailSettingsMenu.obj
 0001:0002a960       ?GetFont08s@CRiotMenu@@QAEPAVCFont08@@XZ 1002b960 f i DetailSettingsMenu.obj
 0001:0002a990       ?GetSettingStringID@CDetailSettingsMenu@@IAEHH@Z 1002b990 f   DetailSettingsMenu.obj
 0001:0002ac10       ?Home@CDetailSettingsMenu@@UAEXXZ 1002bc10 f   DetailSettingsMenu.obj
 0001:0002ac40       ?ImplementDetailSetting@CDetailSettingsMenu@@IAEXH@Z 1002bc40 f   DetailSettingsMenu.obj
 0001:0002aca0       ?Init@CDetailSettingsMenu@@UAEDPAVClientDE@@PAVCRiotMenu@@PAVCBaseMenu@@HH@Z 1002bca0 f   DetailSettingsMenu.obj
 0001:0002ad60       ?Left@CDetailSettingsMenu@@UAEXXZ 1002bd60 f   DetailSettingsMenu.obj
 0001:0002ae30       ?LoadAllSurfaces@CDetailSettingsMenu@@UAEDXZ 1002be30 f i DetailSettingsMenu.obj
 0001:0002ae60       ?LoadSurfaces@CDetailSettingsMenu@@MAEDXZ 1002be60 f   DetailSettingsMenu.obj
 0001:0002b6a0       ?PageDown@CDetailSettingsMenu@@UAEXXZ 1002c6a0 f   DetailSettingsMenu.obj
 0001:0002b6d0       ?PageUp@CDetailSettingsMenu@@UAEXXZ 1002c6d0 f   DetailSettingsMenu.obj
 0001:0002b700       ?PostCalculateMenuDims@CDetailSettingsMenu@@MAEXXZ 1002c700 f   DetailSettingsMenu.obj
 0001:0002b7f0       ?Reset@CDetailSettingsMenu@@UAEXXZ 1002c7f0 f   DetailSettingsMenu.obj
 0001:0002b890       ?Return@CDetailSettingsMenu@@UAEXXZ 1002c890 f   DetailSettingsMenu.obj
 0001:0002b8d0       ?Right@CDetailSettingsMenu@@UAEXXZ 1002c8d0 f   DetailSettingsMenu.obj
 0001:0002b990       ?ScreenDimsChanged@CDetailSettingsMenu@@UAEXHH@Z 1002c990 f   DetailSettingsMenu.obj
 0001:0002ba10       ?UnloadAllSurfaces@CDetailSettingsMenu@@UAEXXZ 1002ca10 f i DetailSettingsMenu.obj
 0001:0002ba40       ?UnloadSurfaces@CDetailSettingsMenu@@MAEXXZ 1002ca40 f   DetailSettingsMenu.obj
 0001:0002bc40       ?Up@CDetailSettingsMenu@@UAEXXZ 1002cc40 f   DetailSettingsMenu.obj
 0001:0002bc70       ??0CDisplayModeMenu@@QAE@XZ 1002cc70 f   DisplayModeMenu.obj
 0001:0002bde0       ??0RENDERDLL@@QAE@XZ       1002cde0 f i DisplayModeMenu.obj
 0001:0002be80       ??0RENDERER@@QAE@XZ        1002ce80 f i DisplayModeMenu.obj
 0001:0002bf20       ??0RESOLUTION@@QAE@XZ      1002cf20 f i DisplayModeMenu.obj
 0001:0002bf70       ?Down@CDisplayModeMenu@@UAEXXZ 1002cf70 f   DisplayModeMenu.obj
 0001:0002bfc0       ?Draw@CDisplayModeMenu@@UAEXPAUHSURFACE_t@@HHH@Z 1002cfc0 f   DisplayModeMenu.obj
 0001:0002c310       ?End@CDisplayModeMenu@@UAEXXZ 1002d310 f   DisplayModeMenu.obj
 0001:0002c350       ?Esc@CDisplayModeMenu@@UAEXXZ 1002d350 f   DisplayModeMenu.obj
 0001:0002c790       ?GetClosestResolution@CDisplayModeMenu@@IAEHHH@Z 1002d790 f   DisplayModeMenu.obj
 0001:0002c890       ?GetCurrentSettings@CDisplayModeMenu@@IAEXXZ 1002d890 f   DisplayModeMenu.obj
 0001:0002cab0       ?GetRenderMode@CRiotSettings@@QAEPAURMode_t@@XZ 1002dab0 f i DisplayModeMenu.obj
 0001:0002cae0       ?Home@CDisplayModeMenu@@UAEXXZ 1002dae0 f   DisplayModeMenu.obj
 0001:0002cb20       ?Init@CDisplayModeMenu@@UAEDPAVClientDE@@PAVCRiotMenu@@PAVCBaseMenu@@HH@Z 1002db20 f   DisplayModeMenu.obj
 0001:0002cbe0       ?InitRenderDlls@CDisplayModeMenu@@IAEDXZ 1002dbe0 f   DisplayModeMenu.obj
 0001:0002d3d0       ?Left@CDisplayModeMenu@@UAEXXZ 1002e3d0 f   DisplayModeMenu.obj
 0001:0002d7c0       ?LoadAllSurfaces@CDisplayModeMenu@@UAEDXZ 1002e7c0 f i DisplayModeMenu.obj
 0001:0002d7f0       ?LoadRealSurfaces@CDisplayModeMenu@@IAEDXZ 1002e7f0 f   DisplayModeMenu.obj
 0001:0002dcb0       ?LoadSurfaces@CDisplayModeMenu@@MAEDXZ 1002ecb0 f   DisplayModeMenu.obj
 0001:0002dec0       ?PageDown@CDisplayModeMenu@@UAEXXZ 1002eec0 f   DisplayModeMenu.obj
 0001:0002df00       ?PageUp@CDisplayModeMenu@@UAEXXZ 1002ef00 f   DisplayModeMenu.obj
 0001:0002df40       ?PostCalculateMenuDims@CDisplayModeMenu@@MAEXXZ 1002ef40 f   DisplayModeMenu.obj
 0001:0002e110       ?Reset@CDisplayModeMenu@@UAEXXZ 1002f110 f   DisplayModeMenu.obj
 0001:0002e1d0       ?Return@CDisplayModeMenu@@UAEXXZ 1002f1d0 f   DisplayModeMenu.obj
 0001:0002e220       ?Right@CDisplayModeMenu@@UAEXXZ 1002f220 f   DisplayModeMenu.obj
 0001:0002e480       ?ScreenDimsChanged@CDisplayModeMenu@@UAEXHH@Z 1002f480 f   DisplayModeMenu.obj
 0001:0002e520       ?Textures8Bit@CRiotSettings@@QAEDXZ 1002f520 f i DisplayModeMenu.obj
 0001:0002e570       ?UnloadAllSurfaces@CDisplayModeMenu@@UAEXXZ 1002f570 f i DisplayModeMenu.obj
 0001:0002e5a0       ?UnloadSurfaces@CDisplayModeMenu@@MAEXXZ 1002f5a0 f   DisplayModeMenu.obj
 0001:0002e780       ?Up@CDisplayModeMenu@@UAEXXZ 1002f780 f   DisplayModeMenu.obj
 0001:0002e7d0       ??0CDisplayOptionsMenu@@QAE@XZ 1002f7d0 f   DisplayOptionsMenu.obj
 0001:0002e920       ??1CDisplayModeMenu@@QAE@XZ 1002f920 f i DisplayOptionsMenu.obj
 0001:0002e950       ?Down@CDisplayOptionsMenu@@UAEXXZ 1002f950 f   DisplayOptionsMenu.obj
 0001:0002e9d0       ?Draw@CDisplayOptionsMenu@@UAEXPAUHSURFACE_t@@HHH@Z 1002f9d0 f   DisplayOptionsMenu.obj
 0001:0002ee40       ?DrawNoGoreVersion@CDisplayOptionsMenu@@MAEXPAUHSURFACE_t@@HHH@Z 1002fe40 f   DisplayOptionsMenu.obj
 0001:0002f0b0       ?End@CDisplayOptionsMenu@@UAEXXZ 100300b0 f   DisplayOptionsMenu.obj
 0001:0002f0e0       ?Esc@CDisplayOptionsMenu@@UAEXXZ 100300e0 f   DisplayOptionsMenu.obj
 0001:0002f180       ?GlobalDetail@CRiotSettings@@QAEMXZ 10030180 f i DisplayOptionsMenu.obj
 0001:0002f1b0       ?Home@CDisplayOptionsMenu@@UAEXXZ 100301b0 f   DisplayOptionsMenu.obj
 0001:0002f1e0       ?Init@CDisplayOptionsMenu@@UAEDPAVClientDE@@PAVCRiotMenu@@PAVCBaseMenu@@HH@Z 100301e0 f   DisplayOptionsMenu.obj
 0001:0002f330       ?Left@CDisplayOptionsMenu@@UAEXXZ 10030330 f   DisplayOptionsMenu.obj
 0001:0002fa20       ?LoadAllSurfaces@CDisplayOptionsMenu@@UAEDXZ 10030a20 f i DisplayOptionsMenu.obj
 0001:0002faa0       ?LoadSurfaces@CDisplayOptionsMenu@@MAEDXZ 10030aa0 f   DisplayOptionsMenu.obj
 0001:00030260       ?OnEnterWorld@CDisplayOptionsMenu@@UAEXXZ 10031260 f i DisplayOptionsMenu.obj
 0001:000302c0       ?OnExitWorld@CDisplayOptionsMenu@@UAEXXZ 100312c0 f i DisplayOptionsMenu.obj
 0001:00030320       ?PageDown@CDisplayOptionsMenu@@UAEXXZ 10031320 f   DisplayOptionsMenu.obj
 0001:00030350       ?PageUp@CDisplayOptionsMenu@@UAEXXZ 10031350 f   DisplayOptionsMenu.obj
 0001:00030380       ?PostCalculateMenuDims@CDisplayOptionsMenu@@MAEXXZ 10031380 f   DisplayOptionsMenu.obj
 0001:00030500       ?Reset@CDisplayOptionsMenu@@UAEXXZ 10031500 f   DisplayOptionsMenu.obj
 0001:00030570       ?Return@CDisplayOptionsMenu@@UAEXXZ 10031570 f   DisplayOptionsMenu.obj
 0001:00030660       ?Right@CDisplayOptionsMenu@@UAEXXZ 10031660 f   DisplayOptionsMenu.obj
 0001:00030960       ?ScreenDimsChanged@CDisplayOptionsMenu@@UAEXHH@Z 10031960 f   DisplayOptionsMenu.obj
 0001:00030a30       ?ScreenFlash@CRiotSettings@@QAEDXZ 10031a30 f i DisplayOptionsMenu.obj
 0001:00030a60       ?SetGlobalDetail@CDisplayOptionsMenu@@QAEXH@Z 10031a60 f   DisplayOptionsMenu.obj
 0001:00030c60       ?SetupCurrentRendererSurfaces@CDisplayOptionsMenu@@QAEXXZ 10031c60 f   DisplayOptionsMenu.obj
 0001:00031020       ?UnloadAllSurfaces@CDisplayOptionsMenu@@UAEXXZ 10032020 f i DisplayOptionsMenu.obj
 0001:00031090       ?UnloadSurfaces@CDisplayOptionsMenu@@MAEXXZ 10032090 f   DisplayOptionsMenu.obj
 0001:00031470       ?Up@CDisplayOptionsMenu@@UAEXXZ 10032470 f   DisplayOptionsMenu.obj
 0001:000314f0       ?CreateObject@CDynamicLightFX@@UAEDPAVClientDE@@@Z 100324f0 f   DynamicLightFX.obj
 0001:00031700       ?Init@CDynamicLightFX@@UAEDPAUSFXCREATESTRUCT@@@Z 10032700 f   DynamicLightFX.obj
 0001:00031810       ?Update@CDynamicLightFX@@UAEDXZ 10032810 f   DynamicLightFX.obj
 0001:00031a80       ?CreateObject@CExplosionFX@@UAEDPAVClientDE@@@Z 10032a80 f   ExplosionFX.obj
 0001:00031ac0       ?Init@CExplosionFX@@UAEDPAUSFXCREATESTRUCT@@@Z 10032ac0 f   ExplosionFX.obj
 0001:00031b00       ??0CParticleTrailFX@@QAE@XZ 10032b00 f i GibFX.obj
 0001:00031cd0       ??0PTCREATESTRUCT@@QAE@XZ  10032cd0 f i GibFX.obj
 0001:00031d10       ??0SCREATESTRUCT@@QAE@XZ   10032d10 f i GibFX.obj
 0001:00031d80       ??0SMCREATESTRUCT@@QAE@XZ  10032d80 f i GibFX.obj
 0001:00031e00       ??0SPRITECREATESTRUCT@@QAE@XZ 10032e00 f i GibFX.obj
 0001:00031e30       ??1CParticleTrailFX@@UAE@XZ 10032e30 f i GibFX.obj
 0001:00031e60       ??_GCParticleTrailFX@@UAEPAXI@Z 10032e60 f i GibFX.obj
 0001:00031e60       ??_ECParticleTrailFX@@UAEPAXI@Z 10032e60 f i GibFX.obj
 0001:00031eb0       ?CreateBloodSpray@CGibFX@@AAEXXZ 10032eb0 f   GibFX.obj
 0001:00032130       ?CreateGib@CGibFX@@AAEPAVDObject@@W4GibType@@@Z 10033130 f   GibFX.obj
 0001:00032410       ?CreateGibTrail@CGibFX@@AAEPAVCSpecialFX@@PAVDObject@@@Z 10033410 f   GibFX.obj
 0001:00032590       ?CreateLingeringSmoke@CGibFX@@AAEXH@Z 10033590 f   GibFX.obj
 0001:00032920       ?CreateMiniBloodExplosion@CGibFX@@AAEXH@Z 10033920 f   GibFX.obj
 0001:00032c80       ?CreateObject@CGibFX@@UAEDPAVClientDE@@@Z 10033c80 f   GibFX.obj
 0001:000334c0       ?CreateRandomGib@CGibFX@@AAEPAVDObject@@XZ 100344c0 f   GibFX.obj
 0001:00033870       ?GetBounceSound@CGibFX@@AAEPADXZ 10034870 f   GibFX.obj
 0001:00033910       ?GetGibDieSound@CGibFX@@AAEPADXZ 10034910 f   GibFX.obj
 0001:000339b0       ?GetGibModelScale@@YA?AV?$_CVector@M@@EW4ModelSize@@@Z 100349b0 f i GibFX.obj
 0001:00033ac0       ?HandleBounce@CGibFX@@AAEXH@Z 10034ac0 f   GibFX.obj
 0001:00033f80       ?HandleDoneBouncing@CGibFX@@AAEXH@Z 10034f80 f   GibFX.obj
 0001:00034020       ?Init@CGibFX@@UAEDPAUSFXCREATESTRUCT@@@Z 10035020 f   GibFX.obj
 0001:000343b0       ?OkToRemoveGib@CGibFX@@AAEDPAVDObject@@@Z 100353b0 f   GibFX.obj
 0001:000346d0       ?RemoveAllFX@CGibFX@@AAEXXZ 100356d0 f   GibFX.obj
 0001:000347f0       ?Update@CGibFX@@UAEDXZ     100357f0 f   GibFX.obj
 0001:00034a60       ?UpdateEmmitter@CGibFX@@AAEDPAUMovingObject_t@@@Z 10035a60 f   GibFX.obj
 0001:00034bc0       ?UpdateGib@CGibFX@@AAEXHD@Z 10035bc0 f   GibFX.obj
 0001:00035070       ??0DI_INFO@@QAE@XZ         10036070 f i InfoDisplay.obj
 0001:000350f0       ?AddInfo@CInfoDisplay@@QAEDHPAUFONT@@KMK@Z 100360f0 f   InfoDisplay.obj
 0001:000351e0       ?AddInfo@CInfoDisplay@@QAEDHPAVCBitmapFont@@MK@Z 100361e0 f   InfoDisplay.obj
 0001:000352c0       ?AddInfo@CInfoDisplay@@QAEDPADPAUFONT@@KMK@Z 100362c0 f   InfoDisplay.obj
 0001:000353b0       ?AddInfo@CInfoDisplay@@QAEDPADPAVCBitmapFont@@MK@Z 100363b0 f   InfoDisplay.obj
 0001:00035490       ?AddInfo@CInfoDisplay@@QAEDPAUHSURFACE_t@@MKD@Z 10036490 f   InfoDisplay.obj
 0001:000354f0       ?AddToList@CInfoDisplay@@IAEDPAUHSURFACE_t@@MKD@Z 100364f0 f   InfoDisplay.obj
 0001:00035760       ?Draw@CInfoDisplay@@QAEXXZ 10036760 f   InfoDisplay.obj
 0001:000359c0       ?Init@CInfoDisplay@@QAEDPAVClientDE@@@Z 100369c0 f   InfoDisplay.obj
 0001:00035a00       ?Term@CInfoDisplay@@QAEXXZ 10036a00 f   InfoDisplay.obj
 0001:00035ae0       ??0CIp@@QAE@XZ             10036ae0 f i IpMgr.obj
 0001:00035b10       ??1CIp@@QAE@XZ             10036b10 f i IpMgr.obj
 0001:00035b70       ??_GCIp@@QAEPAXI@Z         10036b70 f i IpMgr.obj
 0001:00035bc0       ?AddIp@CIpMgr@@QAEHPAD@Z   10036bc0 f   IpMgr.obj
 0001:00035d20       ?AddIpFromEditControl@CIpMgr@@QAEHPAUHWND__@@0@Z 10036d20 f   IpMgr.obj
 0001:00035dd0       ?Clear@CIp@@QAEXXZ         10036dd0 f i IpMgr.obj
 0001:00035e00       ?Clear@CIpMgr@@QAEXH@Z     10036e00 f i IpMgr.obj
 0001:00035e80       ?ExistIp@CIpMgr@@QAEHPAD@Z 10036e80 f   IpMgr.obj
 0001:00035f20       ?FillListBox@CIpMgr@@QAEHPAUHWND__@@@Z 10036f20 f   IpMgr.obj
 0001:00036030       ?GetAddress@CIp@@QAEPADXZ  10037030 f i IpMgr.obj
 0001:00036050       ?GetAllIpString@CIpMgr@@QAEHPADH@Z 10037050 f   IpMgr.obj
 0001:00036170       ?GetIp@CIpMgr@@QAEPAVCIp@@H@Z 10037170 f i IpMgr.obj
 0001:000361c0       ?Init@CIp@@QAEHPAD@Z       100371c0 f   IpMgr.obj
 0001:00036220       ?Init@CIpMgr@@QAEHPAVClientDE@@@Z 10037220 f   IpMgr.obj
 0001:00036270       ?ReadIps@CIpMgr@@QAEHXZ    10037270 f   IpMgr.obj
 0001:000363f0       ?RemoveAll@CIpMgr@@QAEXXZ  100373f0 f   IpMgr.obj
 0001:00036480       ?RemoveIp@CIpMgr@@QAEHPAD@Z 10037480 f   IpMgr.obj
 0001:000365a0       ?RemoveSelectedIpFromListBox@CIpMgr@@QAEHPAUHWND__@@@Z 100375a0 f   IpMgr.obj
 0001:00036670       ?Term@CIp@@QAEXXZ          10037670 f i IpMgr.obj
 0001:000366a0       ?Term@CIpMgr@@QAEXXZ       100376a0 f   IpMgr.obj
 0001:00036730       ?WriteIps@CIpMgr@@QAEHXZ   10037730 f   IpMgr.obj
 0001:000368c0       ??0CJoystickMenu@@QAE@XZ   100378c0 f   JoystickMenu.obj
 0001:00036a20       ?BindButtonToCommand@CJoystickMenu@@IAEDHH@Z 10037a20 f   JoystickMenu.obj
 0001:00036c00       ?ChangeButtonSettingSurface@CJoystickMenu@@IAEDHPAHH@Z 10037c00 f   JoystickMenu.obj
 0001:00036e20       ?Down@CJoystickMenu@@UAEXXZ 10037e20 f   JoystickMenu.obj
 0001:00036e50       ?Draw@CJoystickMenu@@UAEXPAUHSURFACE_t@@HHH@Z 10037e50 f   JoystickMenu.obj
 0001:00036fc0       ?End@CJoystickMenu@@UAEXXZ 10037fc0 f   JoystickMenu.obj
 0001:00036ff0       ?Esc@CJoystickMenu@@UAEXXZ 10037ff0 f   JoystickMenu.obj
 0001:00037020       ?Home@CJoystickMenu@@UAEXXZ 10038020 f   JoystickMenu.obj
 0001:00037050       ?ImplementJoyLook@CJoystickMenu@@IAEDPAVClientDE@@D@Z 10038050 f   JoystickMenu.obj
 0001:00037dd0       ?Init@CJoystickMenu@@UAEDPAVClientDE@@PAVCRiotMenu@@PAVCBaseMenu@@HH@Z 10038dd0 f   JoystickMenu.obj
 0001:000385d0       ?JoyInvertY@CRiotSettings@@QAEDXZ 100395d0 f i JoystickMenu.obj
 0001:00038600       ?JoyLook@CRiotSettings@@QAEDXZ 10039600 f i JoystickMenu.obj
 0001:00038630       ?JoystickMenuDisabled@CJoystickMenu@@QAEDXZ 10039630 f i JoystickMenu.obj
 0001:00038660       ?JoystickMenuDoesBindingExist@@YADPAVClientDE@@PAD@Z 10039660 f   JoystickMenu.obj
 0001:00038720       ?Left@CJoystickMenu@@UAEXXZ 10039720 f   JoystickMenu.obj
 0001:00038d30       ?LoadAllSurfaces@CJoystickMenu@@UAEDXZ 10039d30 f i JoystickMenu.obj
 0001:00038d60       ?LoadSurfaces@CJoystickMenu@@MAEDXZ 10039d60 f   JoystickMenu.obj
 0001:00039950       ?PageDown@CJoystickMenu@@UAEXXZ 1003a950 f   JoystickMenu.obj
 0001:00039980       ?PageUp@CJoystickMenu@@UAEXXZ 1003a980 f   JoystickMenu.obj
 0001:000399b0       ?PostCalculateMenuDims@CJoystickMenu@@MAEXXZ 1003a9b0 f   JoystickMenu.obj
 0001:00039aa0       ?ReBindAxis@CJoystickMenu@@IAEDH@Z 1003aaa0 f   JoystickMenu.obj
 0001:0003a150       ?Reset@CJoystickMenu@@UAEXXZ 1003b150 f   JoystickMenu.obj
 0001:0003a190       ?Return@CJoystickMenu@@UAEXXZ 1003b190 f   JoystickMenu.obj
 0001:0003a1f0       ?Right@CJoystickMenu@@UAEXXZ 1003b1f0 f   JoystickMenu.obj
 0001:0003a400       ?ScreenDimsChanged@CJoystickMenu@@UAEXHH@Z 1003b400 f   JoystickMenu.obj
 0001:0003a480       ?UnloadAllSurfaces@CJoystickMenu@@UAEXXZ 1003b480 f i JoystickMenu.obj
 0001:0003a4b0       ?UnloadSurfaces@CJoystickMenu@@MAEXXZ 1003b4b0 f   JoystickMenu.obj
 0001:0003a6a0       ?Up@CJoystickMenu@@UAEXXZ  1003b6a0 f   JoystickMenu.obj
 0001:0003a6d0       ?CreateObject@CJuggernautFX@@UAEDPAVClientDE@@@Z 1003b6d0 f   JuggernautFX.obj
 0001:0003ac40       ?Init@CJuggernautFX@@UAEDPAUSFXCREATESTRUCT@@@Z 1003bc40 f   JuggernautFX.obj
 0001:0003acf0       ?Update@CJuggernautFX@@UAEDXZ 1003bcf0 f   JuggernautFX.obj
 0001:0003adf0       ??1CKeyboardMenu@@QAE@XZ   1003bdf0 f   KeyboardMenu.obj
 0001:0003ae20       ?CheckSelectionOffMenuBottom@CKeyboardMenu@@MAEXXZ 1003be20 f   KeyboardMenu.obj
 0001:0003af30       ?CheckSelectionOffMenuTop@CKeyboardMenu@@MAEXXZ 1003bf30 f   KeyboardMenu.obj
 0001:0003af70       ?ClearKBBindings@CKeyboardMenu@@IAEXXZ 1003bf70 f   KeyboardMenu.obj
 0001:0003b080       ?Down@CKeyboardMenu@@UAEXXZ 1003c080 f   KeyboardMenu.obj
 0001:0003b130       ?Draw@CKeyboardMenu@@UAEXPAUHSURFACE_t@@HHH@Z 1003c130 f   KeyboardMenu.obj
 0001:0003b5b0       ?End@CKeyboardMenu@@UAEXXZ 1003c5b0 f   KeyboardMenu.obj
 0001:0003b700       ?Esc@CKeyboardMenu@@UAEXXZ 1003c700 f i KeyboardMenu.obj
 0001:0003b760       ?HandleInput@CKeyboardMenu@@UAEXH@Z 1003c760 f   KeyboardMenu.obj
 0001:0003b9e0       ?Home@CKeyboardMenu@@UAEXXZ 1003c9e0 f   KeyboardMenu.obj
 0001:0003ba60       ?Init@CKeyboardMenu@@UAEDPAVClientDE@@PAVCRiotMenu@@PAVCBaseMenu@@HH@Z 1003ca60 f   KeyboardMenu.obj
 0001:0003bbe0       ?KeyRemappable@CKeyboardMenu@@IAEDPAUDeviceInput_t@@@Z 1003cbe0 f   KeyboardMenu.obj
 0001:0003bd50       ?Left@CKeyboardMenu@@UAEXXZ 1003cd50 f i KeyboardMenu.obj
 0001:0003bd70       ?LoadAllSurfaces@CKeyboardMenu@@UAEDXZ 1003cd70 f i KeyboardMenu.obj
 0001:0003bda0       ?LoadSurfaces@CKeyboardMenu@@MAEDXZ 1003cda0 f   KeyboardMenu.obj
 0001:0003c460       ?PageDown@CKeyboardMenu@@UAEXXZ 1003d460 f   KeyboardMenu.obj
 0001:0003c490       ?PageUp@CKeyboardMenu@@UAEXXZ 1003d490 f   KeyboardMenu.obj
 0001:0003c4c0       ?PostCalculateMenuDims@CKeyboardMenu@@MAEXXZ 1003d4c0 f   KeyboardMenu.obj
 0001:0003c7a0       ?Reset@CKeyboardMenu@@UAEXXZ 1003d7a0 f i KeyboardMenu.obj
 0001:0003c7d0       ?Return@CKeyboardMenu@@UAEXXZ 1003d7d0 f   KeyboardMenu.obj
 0001:0003ca00       ?Right@CKeyboardMenu@@UAEXXZ 1003da00 f i KeyboardMenu.obj
 0001:0003ca20       ?ScreenDimsChanged@CKeyboardMenu@@UAEXHH@Z 1003da20 f   KeyboardMenu.obj
 0001:0003ca50       ?SetCurrentSelection@CKeyboardMenu@@IAEDPAUDeviceInput_t@@@Z 1003da50 f   KeyboardMenu.obj
 0001:0003d180       ?UnloadAllSurfaces@CKeyboardMenu@@UAEXXZ 1003e180 f i KeyboardMenu.obj
 0001:0003d1b0       ?UnloadSurfaces@CKeyboardMenu@@MAEXXZ 1003e1b0 f   KeyboardMenu.obj
 0001:0003d3d0       ?Up@CKeyboardMenu@@UAEXXZ  1003e3d0 f   KeyboardMenu.obj
 0001:0003d470       ?ConvertKeyToCurrentKeyboard@@YAXPAD0H@Z 1003e470 f   KeyFixes.obj
 0001:0003d5b0       ?CreateLightFX@CLaserCannonFX@@IAEXPAV?$_CVector@M@@@Z 1003e5b0 f   LaserCannonFX.obj
 0001:0003d6f0       ?CreateObject@CLaserCannonFX@@UAEDPAVClientDE@@@Z 1003e6f0 f   LaserCannonFX.obj
 0001:0003d9c0       ?GetFlashPos@CWeaponModel@@QBE?AV?$_CVector@M@@XZ 1003e9c0 f i LaserCannonFX.obj
 0001:0003da00       ?GetHandle@CWeaponModel@@QBEPAVDObject@@XZ 1003ea00 f i LaserCannonFX.obj
 0001:0003da20       ?GetWeaponModel@CRiotClientShell@@QAEPAVCWeaponModel@@XZ 1003ea20 f i LaserCannonFX.obj
 0001:0003da50       ?Init@CLaserCannonFX@@UAEDPAUSFXCREATESTRUCT@@@Z 1003ea50 f   LaserCannonFX.obj
 0001:0003dae0       ?Update@CLaserCannonFX@@UAEDXZ 1003eae0 f   LaserCannonFX.obj
 0001:0003e320       ?CreateObject@CLightFX@@UAEDPAVClientDE@@@Z 1003f320 f   LightFX.obj
 0001:0003ea10       ?Init@CLightFX@@UAEDPAUSFXCREATESTRUCT@@@Z 1003fa10 f   LightFX.obj
 0001:0003eb80       ?PlayRampSound@CLightFX@@MAEXH@Z 1003fb80 f   LightFX.obj
 0001:0003ec80       ?SetColor@CLightFX@@IAEXMMM@Z 1003fc80 f   LightFX.obj
 0001:0003ed90       ?SetRadius@CLightFX@@IAEXM@Z 1003fd90 f   LightFX.obj
 0001:0003ee20       ?Update@CLightFX@@UAEDXZ   1003fe20 f   LightFX.obj
 0001:0003eff0       ?UpdateLightIntensity@CLightFX@@MAEXXZ 1003fff0 f   LightFX.obj
 0001:0003f100       ?UpdateLightRadius@CLightFX@@MAEXXZ 10040100 f   LightFX.obj
 0001:0003f1b0       ??0LS_EFFECT@@QAE@XZ       100401b0 f i LightScaleMgr.obj
 0001:0003f200       ?ClearLightScale@CLightScaleMgr@@QAEXMMMW4LightEffectType@@@Z 10040200 f   LightScaleMgr.obj
 0001:0003f310       ?Init@CLightScaleMgr@@QAEDPAVClientDE@@@Z 10040310 f   LightScaleMgr.obj
 0001:0003f380       ?SetLightScale@CLightScaleMgr@@IAEXXZ 10040380 f   LightScaleMgr.obj
 0001:0003f6b0       ?SetLightScale@CLightScaleMgr@@QAEXMMMW4LightEffectType@@@Z 100406b0 f   LightScaleMgr.obj
 0001:0003f7b0       ?SetTimeOfDayScale@CLightScaleMgr@@QAEXAAV?$_CVector@M@@@Z 100407b0 f   LightScaleMgr.obj
 0001:0003f800       ?Term@CLightScaleMgr@@QAEXXZ 10040800 f   LightScaleMgr.obj
 0001:0003f880       ?CreateLines@CLineBallFX@@IAEXXZ 10040880 f   LineBallFX.obj
 0001:0003fcc0       ?Init@CLineBallFX@@UAEDPAUSFXCREATESTRUCT@@@Z 10040cc0 f   LineBallFX.obj
 0001:0003fea0       ?Update@CLineBallFX@@UAEDXZ 10040ea0 f   LineBallFX.obj
 0001:00040080       ?UpdateAlpha@CLineBallFX@@IAEXM@Z 10041080 f   LineBallFX.obj
 0001:00040190       ?UpdateRotation@CLineBallFX@@IAEXM@Z 10041190 f   LineBallFX.obj
 0001:00040350       ?UpdateScale@CLineBallFX@@IAEXM@Z 10041350 f   LineBallFX.obj
 0001:00040480       ??1CLoadLevelMenu@@QAE@XZ  10041480 f   LoadLevelMenu.obj
 0001:000405d0       ?AddFilesToFilenames@CLoadLevelMenu@@IAEXPAUFileEntry_t@@PADAAH@Z 100415d0 f   LoadLevelMenu.obj
 0001:000408a0       ?CheckSelectionOffMenuBottom@CLoadLevelMenu@@MAEXXZ 100418a0 f   LoadLevelMenu.obj
 0001:000409c0       ?CheckSelectionOffMenuTop@CLoadLevelMenu@@MAEXXZ 100419c0 f   LoadLevelMenu.obj
 0001:00040a00       ?CountDatFiles@CLoadLevelMenu@@IAEHPAUFileEntry_t@@@Z 10041a00 f   LoadLevelMenu.obj
 0001:00040aa0       ?Down@CLoadLevelMenu@@UAEXXZ 10041aa0 f   LoadLevelMenu.obj
 0001:00040b20       ?Draw@CLoadLevelMenu@@UAEXPAUHSURFACE_t@@HHH@Z 10041b20 f   LoadLevelMenu.obj
 0001:00040db0       ?End@CLoadLevelMenu@@UAEXXZ 10041db0 f   LoadLevelMenu.obj
 0001:00040ed0       ?Home@CLoadLevelMenu@@UAEXXZ 10041ed0 f   LoadLevelMenu.obj
 0001:00040f20       ?Init@CLoadLevelMenu@@UAEDPAVClientDE@@PAVCRiotMenu@@PAVCBaseMenu@@HH@Z 10041f20 f   LoadLevelMenu.obj
 0001:00041540       ?LoadAllSurfaces@CLoadLevelMenu@@UAEDXZ 10042540 f i LoadLevelMenu.obj
 0001:00041570       ?LoadSurfaces@CLoadLevelMenu@@MAEDXZ 10042570 f   LoadLevelMenu.obj
 0001:000418f0       ?PageDown@CLoadLevelMenu@@UAEXXZ 100428f0 f   LoadLevelMenu.obj
 0001:00041920       ?PageUp@CLoadLevelMenu@@UAEXXZ 10042920 f   LoadLevelMenu.obj
 0001:00041950       ?PostCalculateMenuDims@CLoadLevelMenu@@MAEXXZ 10042950 f   LoadLevelMenu.obj
 0001:00041c10       ?Reset@CLoadLevelMenu@@UAEXXZ 10042c10 f i LoadLevelMenu.obj
 0001:00041c40       ?Return@CLoadLevelMenu@@UAEXXZ 10042c40 f   LoadLevelMenu.obj
 0001:00041db0       ?ScreenDimsChanged@CLoadLevelMenu@@UAEXHH@Z 10042db0 f   LoadLevelMenu.obj
 0001:00041de0       ?UnloadAllSurfaces@CLoadLevelMenu@@UAEXXZ 10042de0 f i LoadLevelMenu.obj
 0001:00041e10       ?UnloadSurfaces@CLoadLevelMenu@@MAEXXZ 10042e10 f   LoadLevelMenu.obj
 0001:00041f90       ?Up@CLoadLevelMenu@@UAEXXZ 10042f90 f   LoadLevelMenu.obj
 0001:00042000       ?Down@CLoadSavedLevelMenu@@UAEXXZ 10043000 f   LoadSavedLevelMenu.obj
 0001:00042050       ?Draw@CLoadSavedLevelMenu@@UAEXPAUHSURFACE_t@@HHH@Z 10043050 f   LoadSavedLevelMenu.obj
 0001:000424c0       ?End@CLoadSavedLevelMenu@@UAEXXZ 100434c0 f   LoadSavedLevelMenu.obj
 0001:000425b0       ?Esc@CLoadSavedLevelMenu@@UAEXXZ 100435b0 f   LoadSavedLevelMenu.obj
 0001:00042600       ?GetArrowWidth@CRiotMenu@@QAEHXZ 10043600 f i LoadSavedLevelMenu.obj
 0001:00042630       ?Init@CLoadSavedLevelMenu@@UAEDPAVClientDE@@PAVCRiotMenu@@PAVCBaseMenu@@HH@Z 10043630 f   LoadSavedLevelMenu.obj
 0001:00042690       ?LoadSurfaces@CLoadSavedLevelMenu@@MAEDXZ 10043690 f   LoadSavedLevelMenu.obj
 0001:00043160       ?PostCalculateMenuDims@CLoadSavedLevelMenu@@MAEXXZ 10044160 f   LoadSavedLevelMenu.obj
 0001:00043240       ?Reset@CLoadSavedLevelMenu@@UAEXXZ 10044240 f   LoadSavedLevelMenu.obj
 0001:00043270       ?Return@CLoadSavedLevelMenu@@UAEXXZ 10044270 f   LoadSavedLevelMenu.obj
 0001:00043710       ?ScreenDimsChanged@CLoadSavedLevelMenu@@UAEXHH@Z 10044710 f   LoadSavedLevelMenu.obj
 0001:00043740       ?UnloadSurfaces@CLoadSavedLevelMenu@@MAEXXZ 10044740 f   LoadSavedLevelMenu.obj
 0001:00043a10       ?Up@CLoadSavedLevelMenu@@UAEXXZ 10044a10 f   LoadSavedLevelMenu.obj
 0001:00043a90       ??0CKeyboardMenu@@QAE@XZ   10044a90 f i MainMenu.obj
 0001:00043bc0       ??0CLoadLevelMenu@@QAE@XZ  10044bc0 f i MainMenu.obj
 0001:00043c50       ??0CLoadSavedLevelMenu@@QAE@XZ 10044c50 f i MainMenu.obj
 0001:00043cf0       ??0CMainMenu@@QAE@XZ       10044cf0 f   MainMenu.obj
 0001:00043dd0       ??0CNewGameMenu@@QAE@XZ    10044dd0 f i MainMenu.obj
 0001:00043e00       ??0COptionsMenu@@QAE@XZ    10044e00 f i MainMenu.obj
 0001:00043ef0       ??0CSaveLevelMenu@@QAE@XZ  10044ef0 f i MainMenu.obj
 0001:00043f90       ??0CSinglePlayerMenu@@QAE@XZ 10044f90 f i MainMenu.obj
 0001:00044060       ??0MenuEntry@@QAE@XZ       10045060 f i MainMenu.obj
 0001:00044110       ??0StartGameRequest@@QAE@XZ 10045110 f i MainMenu.obj
 0001:000441f0       ??1CDetailSettingsMenu@@QAE@XZ 100451f0 f i MainMenu.obj
 0001:00044220       ??1CDisplayOptionsMenu@@QAE@XZ 10045220 f i MainMenu.obj
 0001:00044270       ??1CLoadSavedLevelMenu@@QAE@XZ 10045270 f i MainMenu.obj
 0001:000442a0       ??1CMouseMenu@@QAE@XZ      100452a0 f i MainMenu.obj
 0001:000442f0       ??1CNewGameMenu@@QAE@XZ    100452f0 f i MainMenu.obj
 0001:00044320       ??1CSaveLevelMenu@@QAE@XZ  10045320 f i MainMenu.obj
 0001:00044350       ??1CSinglePlayerMenu@@QAE@XZ 10045350 f i MainMenu.obj
 0001:000443c0       ??1CSoundOptionsMenu@@QAE@XZ 100453c0 f i MainMenu.obj
 0001:00044410       ?DoMultiplayer@CMainMenu@@QAEDD@Z 10045410 f   MainMenu.obj
 0001:000448d0       ?Draw@CMainMenu@@UAEXPAUHSURFACE_t@@HHH@Z 100458d0 f   MainMenu.obj
 0001:00044a70       ?EndGameAndDoMultiplayer@@YAXDK@Z 10045a70 f   MainMenu.obj
 0001:00044ad0       ?Esc@CMainMenu@@UAEXXZ     10045ad0 f   MainMenu.obj
 0001:00044b50       ?GetFont18n@CRiotMenu@@QAEPAVCFont18@@XZ 10045b50 f i MainMenu.obj
 0001:00044b80       ?GetFont28n@CRiotMenu@@QAEPAVCFont28@@XZ 10045b80 f i MainMenu.obj
 0001:00044bb0       ?Init@CMainMenu@@UAEDPAVClientDE@@PAVCRiotMenu@@PAVCBaseMenu@@HH@Z 10045bb0 f   MainMenu.obj
 0001:00044cb0       ?IsInWorld@CRiotClientShell@@QBEDXZ 10045cb0 f i MainMenu.obj
 0001:00044ce0       ?IsMainWindowMinimized@CRiotClientShell@@QAEDXZ 10045ce0 f i MainMenu.obj
 0001:00044d10       ?JoystickEnabled@CJoystickMenu@@QAEDXZ 10045d10 f i MainMenu.obj
 0001:00044d40       ?LoadAllSurfaces@CLoadSavedLevelMenu@@UAEDXZ 10045d40 f i MainMenu.obj
 0001:00044d70       ?LoadAllSurfaces@CMainMenu@@UAEDXZ 10045d70 f i MainMenu.obj
 0001:00044de0       ?LoadAllSurfaces@CNewGameMenu@@UAEDXZ 10045de0 f i MainMenu.obj
 0001:00044e10       ?LoadAllSurfaces@COptionsMenu@@UAEDXZ 10045e10 f i MainMenu.obj
 0001:00044f20       ?LoadAllSurfaces@CSaveLevelMenu@@UAEDXZ 10045f20 f i MainMenu.obj
 0001:00044f50       ?LoadAllSurfaces@CSinglePlayerMenu@@UAEDXZ 10045f50 f i MainMenu.obj
 0001:00045020       ?LoadSurfaces@CMainMenu@@MAEDXZ 10046020 f   MainMenu.obj
 0001:000457a0       ?MainWindowMinimized@CRiotClientShell@@QAEXXZ 100467a0 f i MainMenu.obj
 0001:000457d0       ?MainWindowRestored@CRiotClientShell@@QAEXXZ 100467d0 f i MainMenu.obj
 0001:00045800       ?OnEnterWorld@CMainMenu@@UAEXXZ 10046800 f i MainMenu.obj
 0001:00045860       ?OnEnterWorld@COptionsMenu@@UAEXXZ 10046860 f i MainMenu.obj
 0001:00045920       ?OnEnterWorld@CSinglePlayerMenu@@UAEXXZ 10046920 f i MainMenu.obj
 0001:000459c0       ?OnExitWorld@CMainMenu@@UAEXXZ 100469c0 f i MainMenu.obj
 0001:00045a20       ?OnExitWorld@COptionsMenu@@UAEXXZ 10046a20 f i MainMenu.obj
 0001:00045ae0       ?OnExitWorld@CSinglePlayerMenu@@UAEXXZ 10046ae0 f i MainMenu.obj
 0001:00045b80       ?Reset@CMainMenu@@UAEXXZ   10046b80 f   MainMenu.obj
 0001:00045ba0       ?Reset@CSaveLevelMenu@@UAEXXZ 10046ba0 f i MainMenu.obj
 0001:00045bd0       ?Return@CMainMenu@@UAEXXZ  10046bd0 f   MainMenu.obj
 0001:00045dd0       ?ScreenDimsChanged@CMainMenu@@UAEXHH@Z 10046dd0 f   MainMenu.obj
 0001:00045e50       ?SetGameState@CRiotClientShell@@QAEXH@Z 10046e50 f i MainMenu.obj
 0001:00045e80       ?UnloadAllSurfaces@CLoadSavedLevelMenu@@UAEXXZ 10046e80 f i MainMenu.obj
 0001:00045eb0       ?UnloadAllSurfaces@CMainMenu@@UAEXXZ 10046eb0 f i MainMenu.obj
 0001:00045f10       ?UnloadAllSurfaces@CNewGameMenu@@UAEXXZ 10046f10 f i MainMenu.obj
 0001:00045f40       ?UnloadAllSurfaces@COptionsMenu@@UAEXXZ 10046f40 f i MainMenu.obj
 0001:00046000       ?UnloadAllSurfaces@CSaveLevelMenu@@UAEXXZ 10047000 f i MainMenu.obj
 0001:00046030       ?UnloadAllSurfaces@CSinglePlayerMenu@@UAEXXZ 10047030 f i MainMenu.obj
 0001:000460d0       ?UnloadSurfaces@CMainMenu@@MAEXXZ 100470d0 f   MainMenu.obj
 0001:00046220       ?ZeroClearScreenCount@CRiotClientShell@@QAEXXZ 10047220 f i MainMenu.obj
 0001:00046250       ??ACSpecialFXList@@QAEPAVCSpecialFX@@I@Z 10047250 f i MarkSFX.obj
 0001:000462a0       ?CreateObject@CMarkSFX@@UAEDPAVClientDE@@@Z 100472a0 f   MarkSFX.obj
 0001:00046750       ?GetBulletHoleList@CSFXMgr@@QAEPAVCSpecialFXList@@XZ 10047750 f i MarkSFX.obj
 0001:00046780       ?GetObject@CSpecialFX@@QBEPAVDObject@@XZ 10047780 f i MarkSFX.obj
 0001:000467a0       ?GetSize@CSpecialFXList@@QBEHXZ 100477a0 f i MarkSFX.obj
 0001:000467c0       ?Init@CMarkSFX@@UAEDPAUSFXCREATESTRUCT@@@Z 100477c0 f   MarkSFX.obj
 0001:00046890       ??0CFont08@@QAE@XZ         10047890 f i MessageBox.obj
 0001:000468c0       ??1CFont08@@QAE@XZ         100478c0 f i MessageBox.obj
 0001:000468f0       ??1CMessageBox@@QAE@XZ     100478f0 f   MessageBox.obj
 0001:00046980       ?Draw@CMessageBox@@QAEXXZ  10047980 f   MessageBox.obj
 0001:00046a40       ?GetClassName@CFont08@@UAEPADXZ 10047a40 f i MessageBox.obj
 0001:00046a60       ?Init@CMessageBox@@QAEDPAVClientDE@@HDHD@Z 10047a60 f   MessageBox.obj
 0001:00046e50       ?InitCharWidths@CFont08@@MAEXXZ 10047e50 f i MessageBox.obj
 0001:000478a0       ??0CInputLine@@QAE@XZ      100488a0 f i MessageMgr.obj
 0001:00047960       ??0CMessageMgr@@QAE@XZ     10048960 f   MessageMgr.obj
 0001:00047a80       ??0Message@@QAE@XZ         10048a80 f i MessageMgr.obj
 0001:00047ac0       ?AddChar@CInputLine@@QAEDE@Z 10048ac0 f   MessageMgr.obj
 0001:00047b30       ?AddLine@CMessageMgr@@QAEXPADE@Z 10048b30 f   MessageMgr.obj
 0001:00047b90       ?AddLine@CMessageMgr@@QAEXPAUHSTRING_t@@E@Z 10048b90 f   MessageMgr.obj
 0001:00047df0       ?AddToClearScreenCount@CRiotClientShell@@QAEXXZ 10048df0 f i MessageMgr.obj
 0001:00047e20       ?AddToRecentList@CInputLine@@AAEXXZ 10048e20 f   MessageMgr.obj
 0001:00047f50       ?Anime@CCheatMgr@@AAEXD@Z  10048f50 f   MessageMgr.obj
 0001:00047fc0       ?AsciiXlate@CInputLine@@AAEDH@Z 10048fc0 f   MessageMgr.obj
 0001:00048360       ?BigGuns@CCheatMgr@@AAEXD@Z 10049360 f   MessageMgr.obj
 0001:000483e0       ?CameraOffset@CCheatMgr@@AAEXD@Z 100493e0 f   MessageMgr.obj
 0001:00048460       ?Check@CCheatMgr@@QAEDPAD@Z 10049460 f   MessageMgr.obj
 0001:00048580       ?Clear@CInputLine@@QAEXXZ  10049580 f   MessageMgr.obj
 0001:000485c0       ?Clear@CMessageMgr@@QAEXXZ 100495c0 f   MessageMgr.obj
 0001:00048670       ?DelChar@CInputLine@@QAEXXZ 10049670 f   MessageMgr.obj
 0001:000486c0       ?DeleteMessageData@CMessageMgr@@AAEXPAUMessage@@@Z 100496c0 f i MessageMgr.obj
 0001:00048750       ?Draw@CInputLine@@QAEXPAUHSURFACE_t@@PAUHDEFONT_t@@KKJJ@Z 10049750 f   MessageMgr.obj
 0001:000489b0       ?Draw@CMessageMgr@@QAEXXZ  100499b0 f   MessageMgr.obj
 0001:00048d00       ?Enable@CMessageMgr@@QAEXD@Z 10049d00 f   MessageMgr.obj
 0001:00048d50       ?GetClientInfoMgr@CRiotClientShell@@QAEPAVCClientInfoMgr@@XZ 10049d50 f i MessageMgr.obj
 0001:00048d80       ?HandleKeyDown@CInputLine@@QAEDHH@Z 10049d80 f   MessageMgr.obj
 0001:00049120       ?HandleKeyDown@CMessageMgr@@QAEDHH@Z 1004a120 f   MessageMgr.obj
 0001:00049170       ?HandleKeyUp@CInputLine@@QAEXH@Z 1004a170 f   MessageMgr.obj
 0001:000491b0       ?Init@CCheatMgr@@QAEXPAVClientDE@@@Z 1004a1b0 f   MessageMgr.obj
 0001:000491e0       ?Init@CInputLine@@QAEDPAVClientDE@@PAVCRiotClientShell@@@Z 1004a1e0 f   MessageMgr.obj
 0001:00049230       ?Init@CMessageMgr@@QAEDPAVClientDE@@PAVCRiotClientShell@@@Z 1004a230 f   MessageMgr.obj
 0001:00049320       ?LightScale@CCheatMgr@@AAEXD@Z 1004a320 f   MessageMgr.obj
 0001:000493b0       ?PlayerAccel@CCheatMgr@@AAEXD@Z 1004a3b0 f   MessageMgr.obj
 0001:00049430       ?PlayerMovement@CCheatMgr@@AAEXD@Z 1004a430 f   MessageMgr.obj
 0001:000494b0       ?PosWeapon@CCheatMgr@@AAEXD@Z 1004a4b0 f   MessageMgr.obj
 0001:00049510       ?PosWeaponMuzzle@CCheatMgr@@AAEXD@Z 1004a510 f   MessageMgr.obj
 0001:00049570       ?Process@CCheatMgr@@IAEXW4CheatCode@@@Z 1004a570 f   MessageMgr.obj
 0001:00049a90       ?RemoveAI@CCheatMgr@@AAEXD@Z 1004aa90 f   MessageMgr.obj
 0001:00049b10       ?Robert@CCheatMgr@@AAEXD@Z 1004ab10 f   MessageMgr.obj
 0001:00049b90       ?Send@CInputLine@@QAEXXZ   1004ab90 f   MessageMgr.obj
 0001:00049df0       ?SendCheatMessage@CCheatMgr@@AAEXW4CheatCode@@E@Z 1004adf0 f   MessageMgr.obj
 0001:00049e90       ?Set@CInputLine@@QAEXPAD@Z 1004ae90 f   MessageMgr.obj
 0001:00049ef0       ?SetAmmo@CCheatMgr@@AAEXXZ 1004aef0 f   MessageMgr.obj
 0001:00049f40       ?SetArmor@CCheatMgr@@AAEXXZ 1004af40 f   MessageMgr.obj
 0001:00049f90       ?SetClipMode@CCheatMgr@@AAEXD@Z 1004af90 f   MessageMgr.obj
 0001:0004a050       ?SetCoordinates@CMessageMgr@@QAEXHH@Z 1004b050 f   MessageMgr.obj
 0001:0004a090       ?SetEditingState@CMessageMgr@@QAEXD@Z 1004b090 f i MessageMgr.obj
 0001:0004a0c0       ?SetFullWeapons@CCheatMgr@@AAEXXZ 1004b0c0 f   MessageMgr.obj
 0001:0004a110       ?SetGodMode@CCheatMgr@@AAEXD@Z 1004b110 f   MessageMgr.obj
 0001:0004a190       ?SetHealth@CCheatMgr@@AAEXXZ 1004b190 f   MessageMgr.obj
 0001:0004a1e0       ?SetKFA@CCheatMgr@@AAEXXZ  1004b1e0 f   MessageMgr.obj
 0001:0004a250       ?SetMaxMessages@CMessageMgr@@QAEXH@Z 1004b250 f   MessageMgr.obj
 0001:0004a2a0       ?SetMech@CCheatMgr@@AAEXXZ 1004b2a0 f   MessageMgr.obj
 0001:0004a2d0       ?SetMessageFlags@CMessageMgr@@QAEXK@Z 1004b2d0 f   MessageMgr.obj
 0001:0004a300       ?SetMessageTime@CMessageMgr@@QAEXM@Z 1004b300 f   MessageMgr.obj
 0001:0004a330       ?SetOnFoot@CCheatMgr@@AAEXXZ 1004b330 f   MessageMgr.obj
 0001:0004a360       ?SetPos@CCheatMgr@@AAEXD@Z 1004b360 f   MessageMgr.obj
 0001:0004a3f0       ?SetVehicle@CCheatMgr@@AAEXXZ 1004b3f0 f   MessageMgr.obj
 0001:0004a420       ?ShowPlayerPos@CRiotClientShell@@QAEXD@Z 1004b420 f i MessageMgr.obj
 0001:0004a460       ?Tears@CCheatMgr@@AAEXD@Z  1004b460 f   MessageMgr.obj
 0001:0004a4e0       ?Teleport@CCheatMgr@@AAEXXZ 1004b4e0 f   MessageMgr.obj
 0001:0004a510       ?Term@CInputLine@@QAEXXZ   1004b510 f   MessageMgr.obj
 0001:0004a560       ?Thanks@CCheatMgr@@AAEXDE@Z 1004b560 f   MessageMgr.obj
 0001:0004a680       ?TriggerBox@CCheatMgr@@AAEXD@Z 1004b680 f   MessageMgr.obj
 0001:0004a700       ??0CMissionObjectives@@QAE@XZ 1004b700 f   MissionObjectives.obj
 0001:0004a830       ??0FONT@@QAE@PADHHDDD@Z    1004b830 f i MissionObjectives.obj
 0001:0004a8e0       ??0OBJECTIVE@@QAE@XZ       1004b8e0 f i MissionObjectives.obj
 0001:0004a940       ??1CMissionObjectives@@QAE@XZ 1004b940 f   MissionObjectives.obj
 0001:0004aa60       ?AddObjective@CMissionObjectives@@QAEXKD@Z 1004ba60 f   MissionObjectives.obj
 0001:0004ad00       ?CompleteObjective@CMissionObjectives@@QAEXK@Z 1004bd00 f   MissionObjectives.obj
 0001:0004ad70       ?Draw@CMissionObjectives@@QAEXXZ 1004bd70 f   MissionObjectives.obj
 0001:0004b700       ?DrawObjective@CMissionObjectives@@IAEXPAUHSURFACE_t@@PAUOBJECTIVE@@PAUDRect_t@@HH@Z 1004c700 f   MissionObjectives.obj
 0001:0004b810       ?Init@CMissionObjectives@@QAEXPAVClientDE@@PAVCRiotClientShell@@@Z 1004c810 f   MissionObjectives.obj
 0001:0004bc30       ?Load@CMissionObjectives@@QAEXPAVLMessage@@@Z 1004cc30 f   MissionObjectives.obj
 0001:0004bcf0       ?RemoveObjective@CMissionObjectives@@QAEXK@Z 1004ccf0 f   MissionObjectives.obj
 0001:0004be00       ?Reset@CMissionObjectives@@QAEXXZ 1004ce00 f   MissionObjectives.obj
 0001:0004beb0       ?ResetTop@CMissionObjectives@@QAEXXZ 1004ceb0 f   MissionObjectives.obj
 0001:0004bee0       ?Save@CMissionObjectives@@QAEXPAVLMessage@@@Z 1004cee0 f   MissionObjectives.obj
 0001:0004bfd0       ?ScrollDown@CMissionObjectives@@QAEXXZ 1004cfd0 f   MissionObjectives.obj
 0001:0004c090       ?ScrollUp@CMissionObjectives@@QAEXXZ 1004d090 f   MissionObjectives.obj
 0001:0004c170       ?SetLevelName@CMissionObjectives@@QAEXPAD@Z 1004d170 f   MissionObjectives.obj
 0001:0004c190       ?StartCloseAnimation@CMissionObjectives@@QAEXXZ 1004d190 f   MissionObjectives.obj
 0001:0004c220       ?StartOpenAnimation@CMissionObjectives@@QAEXXZ 1004d220 f   MissionObjectives.obj
 0001:0004c2b0       ??0CMouseMenu@@QAE@XZ      1004d2b0 f   MouseMenu.obj
 0001:0004c3b0       ??0CSlider@@QAE@XZ         1004d3b0 f i MouseMenu.obj
 0001:0004c4a0       ?BindButtonToCommand@CMouseMenu@@IAEDHH@Z 1004d4a0 f   MouseMenu.obj
 0001:0004c650       ?ChangeButtonSettingSurface@CMouseMenu@@IAEDHPAHH@Z 1004d650 f   MouseMenu.obj
 0001:0004c810       ?Down@CMouseMenu@@UAEXXZ   1004d810 f   MouseMenu.obj
 0001:0004c8b0       ?Draw@CMouseMenu@@UAEXPAUHSURFACE_t@@HHH@Z 1004d8b0 f   MouseMenu.obj
 0001:0004ca90       ?End@CMouseMenu@@UAEXXZ    1004da90 f   MouseMenu.obj
 0001:0004cac0       ?Esc@CMouseMenu@@UAEXXZ    1004dac0 f   MouseMenu.obj
 0001:0004caf0       ?GetMax@CSlider@@QAEHXZ    1004daf0 f i MouseMenu.obj
 0001:0004cb20       ?GetMin@CSlider@@QAEHXZ    1004db20 f i MouseMenu.obj
 0001:0004cb40       ?GetPos@CSlider@@QAEHXZ    1004db40 f i MouseMenu.obj
 0001:0004cb60       ?GetWidth@CSlider@@QAEHXZ  1004db60 f i MouseMenu.obj
 0001:0004cb80       ?Home@CMouseMenu@@UAEXXZ   1004db80 f   MouseMenu.obj
 0001:0004cbb0       ?Init@CMouseMenu@@UAEDPAVClientDE@@PAVCRiotMenu@@PAVCBaseMenu@@HH@Z 1004dbb0 f   MouseMenu.obj
 0001:0004d1b0       ?Left@CMouseMenu@@UAEXXZ   1004e1b0 f   MouseMenu.obj
 0001:0004d940       ?LoadAllSurfaces@CMouseMenu@@UAEDXZ 1004e940 f i MouseMenu.obj
 0001:0004d970       ?LoadSurfaces@CMouseMenu@@MAEDXZ 1004e970 f   MouseMenu.obj
 0001:0004e260       ?Lookspring@CRiotSettings@@QAEDXZ 1004f260 f i MouseMenu.obj
 0001:0004e290       ?MouseInvertY@CRiotSettings@@QAEDXZ 1004f290 f i MouseMenu.obj
 0001:0004e2c0       ?MouseLook@CRiotSettings@@QAEDXZ 1004f2c0 f i MouseMenu.obj
 0001:0004e2f0       ?PageDown@CMouseMenu@@UAEXXZ 1004f2f0 f   MouseMenu.obj
 0001:0004e320       ?PageUp@CMouseMenu@@UAEXXZ 1004f320 f   MouseMenu.obj
 0001:0004e350       ?PostCalculateMenuDims@CMouseMenu@@MAEXXZ 1004f350 f   MouseMenu.obj
 0001:0004e4b0       ?Reset@CMouseMenu@@UAEXXZ  1004f4b0 f   MouseMenu.obj
 0001:0004e520       ?Return@CMouseMenu@@UAEXXZ 1004f520 f   MouseMenu.obj
 0001:0004e580       ?Right@CMouseMenu@@UAEXXZ  1004f580 f   MouseMenu.obj
 0001:0004e820       ?ScreenDimsChanged@CMouseMenu@@UAEXHH@Z 1004f820 f   MouseMenu.obj
 0001:0004e8a0       ?SetEnabled@CSlider@@QAEXD@Z 1004f8a0 f i MouseMenu.obj
 0001:0004e8f0       ?SetPos@CSlider@@QAEXH@Z   1004f8f0 f i MouseMenu.obj
 0001:0004e940       ?SetSelected@CSlider@@QAEXD@Z 1004f940 f i MouseMenu.obj
 0001:0004e990       ?UnloadAllSurfaces@CMouseMenu@@UAEXXZ 1004f990 f i MouseMenu.obj
 0001:0004e9c0       ?UnloadSurfaces@CMouseMenu@@MAEXXZ 1004f9c0 f   MouseMenu.obj
 0001:0004ebb0       ?Up@CMouseMenu@@UAEXXZ     1004fbb0 f   MouseMenu.obj
 0001:0004ec50       ??0CMusic@@QAE@XZ          1004fc50 f   Music.obj
 0001:0004eca0       ?HandleMusicMessage@CMusic@@QAEDPAVLMessage@@@Z 1004fca0 f   Music.obj
 0001:0004ee80       ?Init@CMusic@@QAEDPAVClientDE@@D@Z 1004fe80 f   Music.obj
 0001:0004ef40       ?InitList@CMusic@@AAEDPADQADQAPAD@Z 1004ff40 f   Music.obj
 0001:0004f010       ?InitPlayLists@CMusic@@QAEDXZ 10050010 f   Music.obj
 0001:0004f350       ?InitTrans@CMusic@@AAEDQAY0FA@D@Z 10050350 f   Music.obj
 0001:0004f3c0       ?IsInitialized@CMusic@@QAEDXZ 100503c0 f i Music.obj
 0001:0004f400       ?IsPlaylistInitialized@CMusic@@QAEDXZ 10050400 f i Music.obj
 0001:0004f420       ?PlayBreak@CMusic@@QAEDPAD@Z 10050420 f   Music.obj
 0001:0004f450       ?PlayMotif@CMusic@@QAEDPADD@Z 10050450 f   Music.obj
 0001:0004f480       ?PlayMusicLevel@CMusic@@QAEDW4EMusicLevel@1@@Z 10050480 f   Music.obj
 0001:0004f7e0       ?StopMotif@CMusic@@QAEXPAD@Z 100507e0 f   Music.obj
 0001:0004f800       ?Term@CMusic@@QAEXXZ       10050800 f   Music.obj
 0001:0004f850       ?TermPlayLists@CMusic@@QAEDXZ 10050850 f   Music.obj
 0001:0004f8b0       ?TransitionToLevel@CMusic@@AAEDPAD0W4EMusicLevel@1@D@Z 100508b0 f   Music.obj
 0001:0004f960       ??0CNinfoGame@@QAE@XZ      10050960 f i NetInfo.obj
 0001:0004f990       ??0CNinfoPlayer@@QAE@XZ    10050990 f i NetInfo.obj
 0001:0004f9c0       ??1CNinfoGame@@QAE@XZ      100509c0 f i NetInfo.obj
 0001:0004fa20       ??1CNinfoPlayer@@QAE@XZ    10050a20 f i NetInfo.obj
 0001:0004fa80       ??_GCNinfoGame@@QAEPAXI@Z  10050a80 f i NetInfo.obj
 0001:0004fad0       ??_GCNinfoPlayer@@QAEPAXI@Z 10050ad0 f i NetInfo.obj
 0001:0004fb20       ?AddGame@CNinfoMgr@@AAEHPAVCNinfoGame@@@Z 10050b20 f   NetInfo.obj
 0001:0004fba0       ?AddGame@CNinfoMgr@@QAEPAVCNinfoGame@@PBDPAVNetSession@@K@Z 10050ba0 f   NetInfo.obj
 0001:000500d0       ?AddPlayer@CNinfoGame@@AAEHPAVCNinfoPlayer@@@Z 100510d0 f   NetInfo.obj
 0001:00050150       ?AddPlayer@CNinfoGame@@QAEPAVCNinfoPlayer@@PADH@Z 10051150 f   NetInfo.obj
 0001:000502a0       ?Clear@CNinfoGame@@QAEXXZ  100512a0 f i NetInfo.obj
 0001:000503a0       ?Clear@CNinfoMgr@@QAEXXZ   100513a0 f i NetInfo.obj
 0001:000503e0       ?Clear@CNinfoPlayer@@QAEXXZ 100513e0 f i NetInfo.obj
 0001:00050420       ?CreateSessionString@CNinfoMgr@@SAHPAD000H@Z 10051420 f   NetInfo.obj
 0001:000504e0       ?GetCRC@CNinfoGame@@QAEKXZ 100514e0 f i NetInfo.obj
 0001:00050510       ?GetFirstGame@CNinfoMgr@@QAEPAVCNinfoGame@@XZ 10051510 f   NetInfo.obj
 0001:00050560       ?GetFirstPlayer@CNinfoGame@@QAEPAVCNinfoPlayer@@XZ 10051560 f   NetInfo.obj
 0001:000505c0       ?GetGame@CNinfoMgr@@QAEPAVCNinfoGame@@K@Z 100515c0 f   NetInfo.obj
 0001:00050620       ?GetGame@CNinfoMgr@@QAEPAVCNinfoGame@@PAVNetSession@@@Z 10051620 f   NetInfo.obj
 0001:00050690       ?GetHostIP@CNinfoGame@@QAEPADXZ 10051690 f i NetInfo.obj
 0001:000506b0       ?GetHostPort@CNinfoGame@@QAEKXZ 100516b0 f i NetInfo.obj
 0001:000506d0       ?GetName@CNinfoGame@@QAEPADXZ 100516d0 f i NetInfo.obj
 0001:000506f0       ?GetNameWithPing@CNinfoGame@@QAEPADXZ 100516f0 f   NetInfo.obj
 0001:000507a0       ?GetNextGame@CNinfoMgr@@QAEPAVCNinfoGame@@XZ 100517a0 f   NetInfo.obj
 0001:00050810       ?GetNextPlayer@CNinfoGame@@QAEPAVCNinfoPlayer@@XZ 10051810 f   NetInfo.obj
 0001:00050880       ?GetPing@CNinfoGame@@QAEHXZ 10051880 f i NetInfo.obj
 0001:000508b0       ?GetSessionPointer@CNinfoGame@@QAEPAVNetSession@@XZ 100518b0 f i NetInfo.obj
 0001:000508e0       ?Init@CNinfoGame@@QAEHPAD00HPAVNetSession@@K0K@Z 100518e0 f   NetInfo.obj
 0001:00050b10       ?Init@CNinfoMgr@@QAEHXZ    10051b10 f   NetInfo.obj
 0001:00050b30       ?Init@CNinfoPlayer@@QAEHPADH@Z 10051b30 f   NetInfo.obj
 0001:00050b90       ?IsValid@CNinfoGame@@QAEHXZ 10051b90 f i NetInfo.obj
 0001:00050bd0       ?RemoveGames@CNinfoMgr@@QAEXXZ 10051bd0 f   NetInfo.obj
 0001:00050ca0       ?RemovePlayers@CNinfoGame@@QAEXXZ 10051ca0 f   NetInfo.obj
 0001:00050d70       ?Term@CNinfoGame@@QAEXXZ   10051d70 f   NetInfo.obj
 0001:00050da0       ?Term@CNinfoMgr@@QAEXXZ    10051da0 f   NetInfo.obj
 0001:00050dd0       ?Term@CNinfoPlayer@@QAEXXZ 10051dd0 f i NetInfo.obj
 0001:00050e00       ??0CIpMgr@@QAE@XZ          10051e00 f i NetStart.obj
 0001:00050e30       ??0CNinfoMgr@@QAE@XZ       10051e30 f i NetStart.obj
 0001:00050e60       ??1CIpMgr@@QAE@XZ          10051e60 f i NetStart.obj
 0001:00050ec0       ??1CNinfoMgr@@QAE@XZ       10051ec0 f i NetStart.obj
 0001:00050f20       ?AddComboInfo@@YAHPAUHWND__@@PADK@Z 10051f20 f   NetStart.obj
 0001:00050f80       ?AddIPDlgProc@@YGHPAUHWND__@@IIJ@Z 10051f80 f   NetStart.obj
 0001:00051030       ?AddSelToList@@YAHPAUHWND__@@0@Z 10052030 f   NetStart.obj
 0001:000511b0       ?DoNoSessionsMessage@@YAHPAUHWND__@@@Z 100521b0 f   NetStart.obj
 0001:000511f0       ?DoOptionHelp@@YAHPAUHWND__@@HH@Z 100521f0 f   NetStart.obj
 0001:000512b0       ?FixAddress@@YAXPAD@Z      100522b0 f   NetStart.obj
 0001:00051300       ?ForceActiveFocus@@YAXPAUHWND__@@@Z 10052300 f   NetStart.obj
 0001:00051350       ?GetConsoleFloat@@YAMPADM@Z 10052350 f   NetStart.obj
 0001:000513c0       ?GetConsoleInt@@YAHPADH@Z  100523c0 f   NetStart.obj
 0001:00051430       ?GetConsoleString@@YAXPAD00@Z 10052430 f   NetStart.obj
 0001:000514d0       ?GetDlgItemFloat@@YAMPAUHWND__@@H@Z 100524d0 f   NetStart.obj
 0001:00051540       ?GetFrags@CNinfoPlayer@@QAEHXZ 10052540 f i NetStart.obj
 0001:00051570       ?GetHost@CNinfoGame@@QAEPADXZ 10052570 f i NetStart.obj
 0001:000515a0       ?GetLevel@CNinfoGame@@QAEPADXZ 100525a0 f i NetStart.obj
 0001:000515d0       ?GetName@CNinfoPlayer@@QAEPADXZ 100525d0 f i NetStart.obj
 0001:000515f0       ?GetNumDPlayPlayers@CNinfoGame@@QAEHXZ 100525f0 f i NetStart.obj
 0001:00051620       ?GetNumIps@CIpMgr@@QAEHXZ  10052620 f i NetStart.obj
 0001:00051640       ?GetNumPlayers@CNinfoGame@@QAEHXZ 10052640 f i NetStart.obj
 0001:00051670       ?GetSelectedServiceFlags@@YAKXZ 10052670 f   NetStart.obj
 0001:000516d0       ?GetTypeString@CNinfoGame@@QAEPADXZ 100526d0 f i NetStart.obj
 0001:00051700       ?IPDlgProc@@YGHPAUHWND__@@IIJ@Z 10052700 f   NetStart.obj
 0001:000517b0       ?NetDlg_Finished@@YGHPAUHWND__@@IIJ@Z 100527b0 f   NetStart.obj
 0001:00051860       ?NetDlg_Game@@YGHPAUHWND__@@IIJ@Z 10052860 f   NetStart.obj
 0001:00051ac0       ?NetDlg_GameLevels@@YGHPAUHWND__@@IIJ@Z 10052ac0 f   NetStart.obj
 0001:00051e60       ?NetDlg_JoinHost@@YGHPAUHWND__@@IIJ@Z 10052e60 f   NetStart.obj
 0001:00051fd0       ?NetDlg_NoSessions@@YGHPAUHWND__@@IIJ@Z 10052fd0 f   NetStart.obj
 0001:00052140       ?NetDlg_Options@@YGHPAUHWND__@@IIJ@Z 10053140 f   NetStart.obj
 0001:00052330       ?NetDlg_Player@@YGHPAUHWND__@@IIJ@Z 10053330 f   NetStart.obj
 0001:00052610       ?NetDlg_Services@@YGHPAUHWND__@@IIJ@Z 10053610 f   NetStart.obj
 0001:00052830       ?NetDlg_Sessions@@YGHPAUHWND__@@IIJ@Z 10053830 f   NetStart.obj
 0001:00052c60       ?NetDlg_SessionsTcpIp@@YGHPAUHWND__@@IIJ@Z 10053c60 f   NetStart.obj
 0001:000532b0       ?NetDlg_Settings@@YGHPAUHWND__@@IIJ@Z 100542b0 f   NetStart.obj
 0001:000535e0       ?NetDlg_Welcome@@YGHPAUHWND__@@IIJ@Z 100545e0 f   NetStart.obj
 0001:000536d0       ?NetStart_AddLevelToList@@YAXPAUHWND__@@PAD@Z 100546d0 f   NetStart.obj
 0001:000538f0       ?NetStart_ClearGameStruct@@YAXXZ 100548f0 f   NetStart.obj
 0001:00053920       ?NetStart_ClearSelectedSessionInfo@@YAHPAUHWND__@@@Z 10054920 f   NetStart.obj
 0001:000539f0       ?NetStart_DisplayError@@YAXPAUHINSTANCE__@@@Z 100549f0 f   NetStart.obj
 0001:00053a80       ?NetStart_DisplaySelectedSessionInfo@@YAHPAUHWND__@@@Z 10054a80 f   NetStart.obj
 0001:00053d40       ?NetStart_DoConsoleConnect@@YADPAVClientDE@@PAD@Z 10054d40 f   NetStart.obj
 0001:00053fb0       ?NetStart_DoLobbyLaunchWizard@@YADPAVClientDE@@@Z 10054fb0 f   NetStart.obj
 0001:00054920       ?NetStart_DoSettingsDialog@@YADXZ 10055920 f   NetStart.obj
 0001:000549e0       ?NetStart_DoTcpIpDialog@@YAHPAUHINSTANCE__@@PAUHWND__@@@Z 100559e0 f   NetStart.obj
 0001:00054a30       ?NetStart_DoWizard@@YADPAVClientDE@@@Z 10055a30 f   NetStart.obj
 0001:00054d20       ?NetStart_DoWizard@@YADPAVClientDE@@PAUNetStart_t@@@Z 10055d20 f   NetStart.obj
 0001:000558a0       ?NetStart_EndSessionQuery@@YAXPAVClientDE@@@Z 100568a0 f   NetStart.obj
 0001:000558e0       ?NetStart_FillColorList@@YAXPAUHWND__@@@Z 100568e0 f   NetStart.obj
 0001:00055be0       ?NetStart_FillFpsLimit@@YAXPAUHWND__@@@Z 10056be0 f   NetStart.obj
 0001:00055c90       ?NetStart_FillGameEnd@@YAHPAUHWND__@@@Z 10056c90 f   NetStart.obj
 0001:00055de0       ?NetStart_FillGameLevels@@YAHPAUHWND__@@@Z 10056de0 f   NetStart.obj
 0001:000560a0       ?NetStart_FillGameStruct@@YAHPAUHWND__@@@Z 100570a0 f   NetStart.obj
 0001:000561d0       ?NetStart_FillLevelList@@YAHPAUHWND__@@PADH@Z 100571d0 f   NetStart.obj
 0001:000563e0       ?NetStart_FillNetSpeed@@YAHPAUHWND__@@@Z 100573e0 f   NetStart.obj
 0001:00056740       ?NetStart_FillOptions@@YAHPAUHWND__@@@Z 10057740 f   NetStart.obj
 0001:00056900       ?NetStart_FillPlayerStruct@@YAHPAUHWND__@@@Z 10057900 f   NetStart.obj
 0001:00056ac0       ?NetStart_FillServiceList@@YAHPAUHWND__@@@Z 10057ac0 f   NetStart.obj
 0001:00056c60       ?NetStart_FillSessionList@@YAHPAUHWND__@@@Z 10057c60 f   NetStart.obj
 0001:00057080       ?NetStart_FillSessionListTcpIp@@YAHPAUHWND__@@@Z 10058080 f   NetStart.obj
 0001:000573a0       ?NetStart_FreeSessionList@@YAXPAVClientDE@@@Z 100583a0 f   NetStart.obj
 0001:00057400       ?NetStart_GetConnectCommands@@YAHPAVClientDE@@PAUNetStart_t@@@Z 10058400 f   NetStart.obj
 0001:000577a0       ?NetStart_GetGameStruct@@YAPAUNetGame_t@@XZ 100587a0 f   NetStart.obj
 0001:000577c0       ?NetStart_GetPlayerStruct@@YAPAUNetPlayer_t@@XZ 100587c0 f   NetStart.obj
 0001:000577e0       ?NetStart_GetSessionList@@YAPAVNetSession@@PAVClientDE@@PAD@Z 100587e0 f   NetStart.obj
 0001:00057860       ?NetStart_GetSessionQueryResults@@YAPAVNetSession@@PAVClientDE@@@Z 10058860 f   NetStart.obj
 0001:000578b0       ?NetStart_HandleDefaultDialogCommands@@YAHPAUHWND__@@I@Z 100588b0 f   NetStart.obj
 0001:00057920       ?NetStart_HostSession1@@YAHPAUHWND__@@@Z 10058920 f   NetStart.obj
 0001:00057ab0       ?NetStart_HostSession2@@YAHPAUHWND__@@@Z 10058ab0 f   NetStart.obj
 0001:00057bf0       ?NetStart_HostTcpIp@@YAHPAVClientDE@@@Z 10058bf0 f   NetStart.obj
 0001:00057d90       ?NetStart_InitFpsLimit@@YAXPAUHWND__@@@Z 10058d90 f   NetStart.obj
 0001:00057e10       ?NetStart_InitOptions@@YAHPAUHWND__@@@Z 10058e10 f   NetStart.obj
 0001:00058000       ?NetStart_JoinCurrentSession@@YAHPAUHWND__@@@Z 10059000 f   NetStart.obj
 0001:000580a0       ?NetStart_LoadLevelList@@YAXPAUHWND__@@@Z 100590a0 f   NetStart.obj
 0001:000581b0       ?NetStart_MinimizeMainWnd@@YADPAVClientDE@@@Z 100591b0 f   NetStart.obj
 0001:00058250       ?NetStart_RestoreMainWnd@@YADXZ 10059250 f   NetStart.obj
 0001:000582a0       ?NetStart_RunServerOptions@@YADPAVClientDE@@@Z 100592a0 f   NetStart.obj
 0001:000582d0       ?NetStart_RunServerOptions@@YADPAVClientDE@@PAUServerOptions_t@@@Z 100592d0 f   NetStart.obj
 0001:00058620       ?NetStart_SaveLevelList@@YAXPAUNetGame_t@@@Z 10059620 f   NetStart.obj
 0001:000586f0       ?NetStart_SelectCurrentService@@YAHPAUHWND__@@@Z 100596f0 f   NetStart.obj
 0001:000587c0       ?NetStart_SelectJoinHost@@YAHPAUHWND__@@@Z 100597c0 f   NetStart.obj
 0001:00058850       ?NetStart_SelectNetSpeed@@YAHPAUHWND__@@@Z 10059850 f   NetStart.obj
 0001:000588f0       ?NetStart_SetEndGameInfo@@YAHPAUHWND__@@@Z 100598f0 f   NetStart.obj
 0001:00058a00       ?NetStart_StartSessionQuery@@YADPAVClientDE@@PAD@Z 10059a00 f   NetStart.obj
 0001:00058a50       ?NetStart_StartSessionQuery@@YADPAVClientDE@@PAVCIpMgr@@@Z 10059a50 f   NetStart.obj
 0001:00058b30       ?NetStart_UpdateSessionQuery@@YAXPAVClientDE@@@Z 10059b30 f   NetStart.obj
 0001:00058b70       ?RemoveSelFromList@@YAHPAUHWND__@@@Z 10059b70 f   NetStart.obj
 0001:00058c40       ?SetDlgItemFloat@@YAXPAUHWND__@@HM@Z 10059c40 f   NetStart.obj
 0001:00058cb0       ?UpdateGameLevelControls@@YAXPAUHWND__@@@Z 10059cb0 f   NetStart.obj
 0001:00058e70       ?WriteConsoleFloat@@YAXPADM@Z 10059e70 f   NetStart.obj
 0001:00058f00       ?WriteConsoleInt@@YAXPADH@Z 10059f00 f   NetStart.obj
 0001:00058f80       ?WriteConsoleString@@YAXPAD0@Z 10059f80 f   NetStart.obj
 0001:00059000       ?strstr@@YAPADQADQBD@Z     1005a000 f i NetStart.obj
 0001:00059030       ?Init@CNewGameMenu@@UAEDPAVClientDE@@PAVCRiotMenu@@PAVCBaseMenu@@HH@Z 1005a030 f   NewGameMenu.obj
 0001:00059080       ?LoadSurfaces@CNewGameMenu@@MAEDXZ 1005a080 f   NewGameMenu.obj
 0001:00059490       ?Reset@CNewGameMenu@@UAEXXZ 1005a490 f   NewGameMenu.obj
 0001:000594c0       ?Return@CNewGameMenu@@UAEXXZ 1005a4c0 f   NewGameMenu.obj
 0001:00059550       ?ScreenDimsChanged@CNewGameMenu@@UAEXHH@Z 1005a550 f   NewGameMenu.obj
 0001:00059580       ?UnloadSurfaces@CNewGameMenu@@MAEXXZ 1005a580 f   NewGameMenu.obj
 0001:000596d0       ?Init@COptionsMenu@@UAEDPAVClientDE@@PAVCRiotMenu@@PAVCBaseMenu@@HH@Z 1005a6d0 f   OptionsMenu.obj
 0001:00059880       ?LoadSurfaces@COptionsMenu@@MAEDXZ 1005a880 f   OptionsMenu.obj
 0001:00059ce0       ?Return@COptionsMenu@@UAEXXZ 1005ace0 f   OptionsMenu.obj
 0001:00059f90       ?ScreenDimsChanged@COptionsMenu@@UAEXHH@Z 1005af90 f   OptionsMenu.obj
 0001:0005a080       ?SoundInited@CRiotClientShell@@QAEDXZ 1005b080 f i OptionsMenu.obj
 0001:0005a0c0       ?UnloadSurfaces@COptionsMenu@@MAEXXZ 1005b0c0 f   OptionsMenu.obj
 0001:0005a210       ?AddParticles@CParticleExplosionFX@@AAEXPAUMovingObject_t@@@Z 1005b210 f   ParticleExplosionFX.obj
 0001:0005a820       ?CreateDebris@CParticleExplosionFX@@AAEPAVDObject@@XZ 1005b820 f   ParticleExplosionFX.obj
 0001:0005ab70       ?CreateObject@CParticleExplosionFX@@UAEDPAVClientDE@@@Z 1005bb70 f   ParticleExplosionFX.obj
 0001:0005b2e0       ?Init@CParticleExplosionFX@@UAEDPAUSFXCREATESTRUCT@@@Z 1005c2e0 f   ParticleExplosionFX.obj
 0001:0005b7b0       ?Update@CParticleExplosionFX@@UAEDXZ 1005c7b0 f   ParticleExplosionFX.obj
 0001:0005be20       ?UpdateEmmitter@CParticleExplosionFX@@AAEDPAUMovingObject_t@@@Z 1005ce20 f   ParticleExplosionFX.obj
 0001:0005bf90       ??0CBaseParticleSystemFX@@QAE@XZ 1005cf90 f i ParticleSystemFX.obj
 0001:0005c230       ??0CParticleSystemFX@@QAE@XZ 1005d230 f   ParticleSystemFX.obj
 0001:0005c420       ??0PSCREATESTRUCT@@QAE@XZ  1005d420 f i ParticleSystemFX.obj
 0001:0005c480       ??1CBaseParticleSystemFX@@UAE@XZ 1005d480 f i ParticleSystemFX.obj
 0001:0005c4b0       ??1CParticleSystemFX@@UAE@XZ 1005d4b0 f i ParticleSystemFX.obj
 0001:0005c560       ??_GCBaseParticleSystemFX@@UAEPAXI@Z 1005d560 f i ParticleSystemFX.obj
 0001:0005c560       ??_ECBaseParticleSystemFX@@UAEPAXI@Z 1005d560 f i ParticleSystemFX.obj
 0001:0005c5b0       ??_ECParticleSystemFX@@UAEPAXI@Z 1005d5b0 f i ParticleSystemFX.obj
 0001:0005c5b0       ??_GCParticleSystemFX@@UAEPAXI@Z 1005d5b0 f i ParticleSystemFX.obj
 0001:0005c600       ?CreateObject@CParticleSystemFX@@UAEDPAVClientDE@@@Z 1005d600 f   ParticleSystemFX.obj
 0001:0005c740       ?Init@CParticleSystemFX@@UAEDPAUSFXCREATESTRUCT@@@Z 1005d740 f   ParticleSystemFX.obj
 0001:0005c7e0       ?Update@CParticleSystemFX@@UAEDXZ 1005d7e0 f   ParticleSystemFX.obj
 0001:0005cd70       ??0PTSCREATESTRUCT@@QAE@XZ 1005dd70 f i ParticleTrailFX.obj
 0001:0005cde0       ?Init@CParticleTrailFX@@UAEDPAUSFXCREATESTRUCT@@@Z 1005dde0 f   ParticleTrailFX.obj
 0001:0005d180       ?Update@CParticleTrailFX@@UAEDXZ 1005e180 f   ParticleTrailFX.obj
 0001:0005d3d0       ?CreateObject@CParticleTrailSegmentFX@@UAEDPAVClientDE@@@Z 1005e3d0 f   ParticleTrailSegmentFX.obj
 0001:0005d650       ?Init@CParticleTrailSegmentFX@@UAEDPAUSFXCREATESTRUCT@@@Z 1005e650 f   ParticleTrailSegmentFX.obj
 0001:0005d800       ?Update@CParticleTrailSegmentFX@@UAEDXZ 1005e800 f   ParticleTrailSegmentFX.obj
 0001:0005e390       ?CreateObject@CPickupItemFX@@UAEDPAVClientDE@@@Z 1005f390 f   PickupItemFX.obj
 0001:0005e3e0       ?Init@CPickupItemFX@@UAEDPAUSFXCREATESTRUCT@@@Z 1005f3e0 f   PickupItemFX.obj
 0001:0005e420       ?Update@CPickupItemFX@@UAEDXZ 1005f420 f   PickupItemFX.obj
 0001:0005e530       ??0CPlayerCamera@@QAE@XZ   1005f530 f   PlayerCamera.obj
 0001:0005e8c0       ?Apply@CPlayerCamera@@AAE?AV?$_CVector@M@@V2@000@Z 1005f8c0 f   PlayerCamera.obj
 0001:0005e9b0       ?AttachToObject@CPlayerCamera@@QAEXPAVDObject@@@Z 1005f9b0 f   PlayerCamera.obj
 0001:0005ea10       ?CameraUpdate@CPlayerCamera@@QAEXM@Z 1005fa10 f   PlayerCamera.obj
 0001:0005f020       ?CircleAroundTarget@CPlayerCamera@@AAEXXZ 10060020 f   PlayerCamera.obj
 0001:0005f3a0       ?Equal@@YADAAUDRotation_t@@0@Z 100603a0 f   PlayerCamera.obj
 0001:0005f430       ?Equal@@YADAAV?$_CVector@M@@0@Z 10060430 f   PlayerCamera.obj
 0001:0005f510       ?FindOptimalCameraPosition@CPlayerCamera@@AAE?AV?$_CVector@M@@XZ 10060510 f   PlayerCamera.obj
 0001:000606e0       ?GoFirstPerson@CPlayerCamera@@QAEXXZ 100616e0 f i PlayerCamera.obj
 0001:00060740       ?MoveCameraToPosition@CPlayerCamera@@AAEXV?$_CVector@M@@M@Z 10061740 f   PlayerCamera.obj
 0001:00060ce0       ?PointAtPosition@CPlayerCamera@@AAEXV?$_CVector@M@@UDRotation_t@@0@Z 10061ce0 f   PlayerCamera.obj
 0001:00061070       ?PointInDirection@CPlayerCamera@@AAEXUDRotation_t@@@Z 10062070 f i PlayerCamera.obj
 0001:000610d0       ?PrintVector@CPlayerCamera@@AAEXV?$_CVector@M@@@Z 100620d0 f   PlayerCamera.obj
 0001:00061180       ?RestoreCameraMode@CPlayerCamera@@AAEXXZ 10062180 f i PlayerCamera.obj
 0001:000611d0       ?RestoreState@CPlayerCamera@@QAEXXZ 100621d0 f i PlayerCamera.obj
 0001:00061200       ?RotateCameraState@CPlayerCamera@@AAEXD@Z 10062200 f   PlayerCamera.obj
 0001:000613c0       ?SaveCameraMode@CPlayerCamera@@AAEXXZ 100623c0 f i PlayerCamera.obj
 0001:000613f0       ?SaveState@CPlayerCamera@@QAEXXZ 100623f0 f i PlayerCamera.obj
 0001:00061420       ?SetCameraState@CPlayerCamera@@QAEXW4CameraState@1@@Z 10062420 f   PlayerCamera.obj
 0001:000616b0       ?StartCircle@CPlayerCamera@@QAEXMMMM@Z 100626b0 f   PlayerCamera.obj
 0001:00061a30       ?VCompare@CPlayerCamera@@AAEDV?$_CVector@M@@0@Z 10062a30 f   PlayerCamera.obj
 0001:00061b10       ?CreateObject@CPlayerFX@@UAEDPAVClientDE@@@Z 10062b10 f   PlayerFX.obj
 0001:00061b60       ?CreateTearsFX@CPlayerFX@@IAEXAAV?$_CVector@M@@@Z 10062b60 f   PlayerFX.obj
 0001:00061b80       ?CreateUnderwaterFX@CPlayerFX@@IAEXAAV?$_CVector@M@@@Z 10062b80 f   PlayerFX.obj
 0001:00061e60       ?CreateVehicleFX@CPlayerFX@@IAEXAAV?$_CVector@M@@@Z 10062e60 f   PlayerFX.obj
 0001:00061e80       ?Init@CPlayerFX@@UAEDPAUSFXCREATESTRUCT@@@Z 10062e80 f   PlayerFX.obj
 0001:00061ec0       ?RemoveTearsFX@CPlayerFX@@IAEXXZ 10062ec0 f   PlayerFX.obj
 0001:00061f40       ?RemoveUnderwaterFX@CPlayerFX@@IAEXXZ 10062f40 f   PlayerFX.obj
 0001:00061fc0       ?RemoveVehicleFX@CPlayerFX@@IAEXXZ 10062fc0 f   PlayerFX.obj
 0001:00062020       ?Update@CPlayerFX@@UAEDXZ  10063020 f   PlayerFX.obj
 0001:00062130       ?UpdateTearsFX@CPlayerFX@@IAEXAAV?$_CVector@M@@@Z 10063130 f   PlayerFX.obj
 0001:000621b0       ?UpdateUnderwaterFX@CPlayerFX@@IAEXAAV?$_CVector@M@@@Z 100631b0 f   PlayerFX.obj
 0001:00062250       ?UpdateVehicleFX@CPlayerFX@@IAEXAAV?$_CVector@M@@@Z 10063250 f   PlayerFX.obj
 0001:000622d0       ??0CPlayerInventory@@QAE@XZ 100632d0 f   PlayerInventory.obj
 0001:00062440       ??1CPlayerInventory@@QAE@XZ 10063440 f   PlayerInventory.obj
 0001:000624a0       ?CanDrawGun@CPlayerInventory@@QAEDE@Z 100634a0 f   PlayerInventory.obj
 0001:00062560       ?Draw@CPlayerInventory@@QAEXD@Z 10063560 f   PlayerInventory.obj
 0001:00062e70       ?GetAmmoCount@CPlayerStats@@QBEKE@Z 10063e70 f i PlayerInventory.obj
 0001:00062eb0       ?GetCurWeapon@CPlayerStats@@QBEEXZ 10063eb0 f i PlayerInventory.obj
 0001:00062ed0       ?GetPlayerMode@CRiotClientShell@@QBEEXZ 10063ed0 f i PlayerInventory.obj
 0001:00062f00       ?GetPlayerStats@CRiotClientShell@@QAEPAVCPlayerStats@@XZ 10063f00 f i PlayerInventory.obj
 0001:00062f30       ?GetWeaponId@@YAHHK@Z      10063f30 f i PlayerInventory.obj
 0001:00063160       ?GetWeaponString@@YAPADW4RiotWeaponId@@@Z 10064160 f i PlayerInventory.obj
 0001:00063420       ?GunPickup@CPlayerInventory@@QAEXED@Z 10064420 f   PlayerInventory.obj
 0001:000637a0       ?Init@CPlayerInventory@@QAEDPAVClientDE@@PAVCRiotClientShell@@@Z 100647a0 f   PlayerInventory.obj
 0001:00063b00       ?InitSurfaces@CPlayerInventory@@IAEDXZ 10064b00 f   PlayerInventory.obj
 0001:00064200       ?Load@CPlayerInventory@@QAEXPAVLMessage@@@Z 10065200 f   PlayerInventory.obj
 0001:00064390       ?Reset@CPlayerInventory@@QAEXXZ 10065390 f   PlayerInventory.obj
 0001:000645d0       ?Save@CPlayerInventory@@QAEXPAVLMessage@@@Z 100655d0 f   PlayerInventory.obj
 0001:00064700       ?ShogoPowerupClear@CPlayerInventory@@QAEXXZ 10065700 f   PlayerInventory.obj
 0001:00064730       ?ShogoPowerupPickup@CPlayerInventory@@QAEXW4PickupItemType@@@Z 10065730 f   PlayerInventory.obj
 0001:00064800       ?Term@CPlayerInventory@@QAEXXZ 10065800 f   PlayerInventory.obj
 0001:00064ad0       ?Update@CPlayerInventory@@QAEXXZ 10065ad0 f   PlayerInventory.obj
 0001:00064cc0       ?UpdateAmmo@CPlayerInventory@@QAEXKK@Z 10065cc0 f   PlayerInventory.obj
 0001:00064ee0       ?UsesAmmo@@YADW4RiotWeaponId@@@Z 10065ee0 f i PlayerInventory.obj
 0001:00064f50       ??0CPlayerStats@@QAE@XZ    10065f50 f   PlayerStats.obj
 0001:00065210       ??1CPlayerStats@@QAE@XZ    10066210 f   PlayerStats.obj
 0001:00065270       ?Clear@CPlayerStats@@QAEXXZ 10066270 f   PlayerStats.obj
 0001:000652e0       ?Draw@CPlayerStats@@QAEXDD@Z 100662e0 f   PlayerStats.obj
 0001:00065490       ?DrawEnforcer@CPlayerStats@@IAEXPAUHSURFACE_t@@HHHHD@Z 10066490 f   PlayerStats.obj
 0001:00065e60       ?DrawOnFoot@CPlayerStats@@IAEXPAUHSURFACE_t@@HHHHD@Z 10066e60 f   PlayerStats.obj
 0001:00066500       ?GetWeaponType@@YA?AW4ProjectileType@@W4RiotWeaponId@@@Z 10067500 f i PlayerStats.obj
 0001:000665b0       ?Init@CPlayerStats@@QAEDPAVClientDE@@PAVCRiotClientShell@@@Z 100675b0 f   PlayerStats.obj
 0001:00066700       ?InitEnforcer@CPlayerStats@@IAEXXZ 10067700 f   PlayerStats.obj
 0001:00066cd0       ?InitOnFoot@CPlayerStats@@IAEXXZ 10067cd0 f   PlayerStats.obj
 0001:00067080       ?IsDialogVisible@CRiotClientShell@@QBEDXZ 10068080 f i PlayerStats.obj
 0001:000670c0       ?Load@CPlayerStats@@QAEXPAVLMessage@@@Z 100680c0 f   PlayerStats.obj
 0001:00067290       ?OnEnterWorld@CPlayerStats@@QAEXD@Z 10068290 f   PlayerStats.obj
 0001:00067300       ?OnExitWorld@CPlayerStats@@QAEXXZ 10068300 f   PlayerStats.obj
 0001:00067320       ?Save@CPlayerStats@@QAEXPAVLMessage@@@Z 10068320 f   PlayerStats.obj
 0001:00067500       ?SetDrawAmmo@CPlayerStats@@QAEXD@Z 10068500 f i PlayerStats.obj
 0001:00067530       ?Term@CPlayerStats@@QAEXXZ 10068530 f   PlayerStats.obj
 0001:00067a20       ?ToggleCrosshair@CPlayerStats@@QAEXXZ 10068a20 f   PlayerStats.obj
 0001:00067aa0       ?Update@CPlayerStats@@QAEXXZ 10068aa0 f   PlayerStats.obj
 0001:00067bd0       ?UpdateAir@CPlayerStats@@QAEXM@Z 10068bd0 f   PlayerStats.obj
 0001:00067de0       ?UpdateAmmo@CPlayerStats@@QAEXKK@Z 10068de0 f   PlayerStats.obj
 0001:00067e40       ?UpdateArmor@CPlayerStats@@QAEXK@Z 10068e40 f   PlayerStats.obj
 0001:00067e90       ?UpdateEnforcerAmmo@CPlayerStats@@IAEXXZ 10068e90 f   PlayerStats.obj
 0001:00068260       ?UpdateEnforcerArmor@CPlayerStats@@IAEXXZ 10069260 f   PlayerStats.obj
 0001:000685b0       ?UpdateEnforcerHealth@CPlayerStats@@IAEXXZ 100695b0 f   PlayerStats.obj
 0001:00068900       ?UpdateHUDEffect@CPlayerStats@@IAEXXZ 10069900 f   PlayerStats.obj
 0001:00068ea0       ?UpdateHealth@CPlayerStats@@QAEXK@Z 10069ea0 f   PlayerStats.obj
 0001:00068ef0       ?UpdateOnFootAmmo@CPlayerStats@@IAEXXZ 10069ef0 f   PlayerStats.obj
 0001:00069210       ?UpdateOnFootArmor@CPlayerStats@@IAEXXZ 1006a210 f   PlayerStats.obj
 0001:00069480       ?UpdateOnFootHealth@CPlayerStats@@IAEXXZ 1006a480 f   PlayerStats.obj
 0001:000696f0       ?UpdatePlayerMode@CPlayerStats@@QAEXED@Z 1006a6f0 f   PlayerStats.obj
 0001:00069b40       ?UpdatePlayerWeapon@CPlayerStats@@QAEXED@Z 1006ab40 f   PlayerStats.obj
 0001:0006a4d0       ??0ColorRamp_t@@QAE@V?$_CVector@M@@H@Z 1006b4d0 f i PolyGridFX.obj
 0001:0006a520       ?CreateObject@CPolyGridFX@@UAEDPAVClientDE@@@Z 1006b520 f   PolyGridFX.obj
 0001:0006acf0       ?Init@CPolyGridFX@@UAEDPAUSFXCREATESTRUCT@@@Z 1006bcf0 f   PolyGridFX.obj
 0001:0006af10       ?PolyGrids@CRiotSettings@@QAEDXZ 1006bf10 f i PolyGridFX.obj
 0001:0006af40       ?PrecalculatePlasma@CPolyGridFX@@IAEXXZ 1006bf40 f   PolyGridFX.obj
 0001:0006b140       ?SetPolyGridPalette@CPolyGridFX@@IAEXPAUColorRamp_t@@H@Z 1006c140 f   PolyGridFX.obj
 0001:0006b390       ?Update@CPolyGridFX@@UAEDXZ 1006c390 f   PolyGridFX.obj
 0001:0006b5c0       ?UpdateFourRingPlasma@CPolyGridFX@@IAEXXZ 1006c5c0 f   PolyGridFX.obj
 0001:0006ba40       ?UpdatePlasma@CPolyGridFX@@IAEXXZ 1006ca40 f   PolyGridFX.obj
 0001:0006bb80       ?UpdateSurface@CPolyGridFX@@IAEXXZ 1006cb80 f   PolyGridFX.obj
 0001:0006be30       ??0?$CDynArray@UPOPUPMENUITEM@@@@QAE@HJ@Z 1006ce30 f i PopupMenu.obj
 0001:0006be80       ??0CPopupMenu@@QAE@HHHH@Z  1006ce80 f   PopupMenu.obj
 0001:0006c030       ??0POPUPMENUITEM@@QAE@XZ   1006d030 f i PopupMenu.obj
 0001:0006c0d0       ??1?$CDynArray@UPOPUPMENUITEM@@@@QAE@XZ 1006d0d0 f i PopupMenu.obj
 0001:0006c130       ??1CPopupMenu@@QAE@XZ      1006d130 f   PopupMenu.obj
 0001:0006c4c0       ??A?$CDynArray@UPOPUPMENUITEM@@@@QAEAAUPOPUPMENUITEM@@H@Z 1006d4c0 f i PopupMenu.obj
 0001:0006c520       ??_GCPopupMenu@@QAEPAXI@Z  1006d520 f i PopupMenu.obj
 0001:0006c570       ??_GCSlider@@QAEPAXI@Z     1006d570 f i PopupMenu.obj
 0001:0006c5c0       ?AddItem@CPopupMenu@@QAEXPAUPOPUPMENUITEM@@@Z 1006d5c0 f   PopupMenu.obj
 0001:0006c620       ?DecPos@CSlider@@QAEDXZ    1006d620 f i PopupMenu.obj
 0001:0006c670       ?Draw@CPopupMenu@@QAEXPAUHSURFACE_t@@@Z 1006d670 f   PopupMenu.obj
 0001:0006d610       ?Flush@?$CDynArray@UPOPUPMENUITEM@@@@QAEXXZ 1006e610 f i PopupMenu.obj
 0001:0006d660       ?GetHeight@CSlider@@QAEHXZ 1006e660 f i PopupMenu.obj
 0001:0006d680       ?Grow@?$CDynArray@UPOPUPMENUITEM@@@@IAEHXZ 1006e680 f i PopupMenu.obj
 0001:0006d820       ?Height@CPopupMenu@@QAEHXZ 1006e820 f i PopupMenu.obj
 0001:0006d850       ?IncPos@CSlider@@QAEDXZ    1006e850 f i PopupMenu.obj
 0001:0006d8a0       ?Init@CPopupMenu@@QAEDPAVClientDE@@PAVCRiotMenu@@@Z 1006e8a0 f   PopupMenu.obj
 0001:0006e130       ?PageDown@CPopupMenu@@QAEDXZ 1006f130 f   PopupMenu.obj
 0001:0006e230       ?PageUp@CPopupMenu@@QAEDXZ 1006f230 f   PopupMenu.obj
 0001:0006e2e0       ?ProcessKey@CPopupMenu@@QAEXHH@Z 1006f2e0 f   PopupMenu.obj
 0001:0006e850       ?ScrollDown@CPopupMenu@@QAEDXZ 1006f850 f   PopupMenu.obj
 0001:0006e950       ?ScrollUp@CPopupMenu@@QAEDXZ 1006f950 f   PopupMenu.obj
 0001:0006ea40       ?SelectCurrentItem@CPopupMenu@@QAEHXZ 1006fa40 f   PopupMenu.obj
 0001:0006ec50       ?SetGrowBy@?$CDynArray@UPOPUPMENUITEM@@@@QAEXJ@Z 1006fc50 f i PopupMenu.obj
 0001:0006ec80       ?SetMemCopyable@?$CDynArray@UPOPUPMENUITEM@@@@QAEXH@Z 1006fc80 f i PopupMenu.obj
 0001:0006ecb0       ?Width@CPopupMenu@@QAEHXZ  1006fcb0 f i PopupMenu.obj
 0001:0006ece0       ?CreateFlare@CProjectileFX@@IAEXAAV?$_CVector@M@@AAUDRotation_t@@@Z 1006fce0 f   ProjectileFX.obj
 0001:0006efb0       ?CreateFlyingSound@CProjectileFX@@IAEXAAV?$_CVector@M@@AAUDRotation_t@@@Z 1006ffb0 f   ProjectileFX.obj
 0001:0006f0c0       ?CreateLight@CProjectileFX@@IAEXAAV?$_CVector@M@@AAUDRotation_t@@@Z 100700c0 f   ProjectileFX.obj
 0001:0006f3e0       ?CreateObject@CProjectileFX@@UAEDPAVClientDE@@@Z 100703e0 f   ProjectileFX.obj
 0001:0006f7d0       ?CreateProjectile@CProjectileFX@@IAEXAAV?$_CVector@M@@AAUDRotation_t@@@Z 100707d0 f   ProjectileFX.obj
 0001:0006fdd0       ?CreateSmokeTrail@CProjectileFX@@IAEXAAV?$_CVector@M@@AAUDRotation_t@@@Z 10070dd0 f   ProjectileFX.obj
 0001:0006ff40       ?Detonate@CProjectileFX@@IAEXPAVCollisionInfo@@@Z 10070f40 f   ProjectileFX.obj
 0001:00070410       ?GetMoveMgr@CRiotClientShell@@QAEPAVCMoveMgr@@XZ 10071410 f i ProjectileFX.obj
 0001:00070430       ?GetObject@CMoveMgr@@QAEPAVDObject@@XZ 10071430 f i ProjectileFX.obj
 0001:00070450       ?GetProjectileFX@@YAEH@Z   10071450 f i ProjectileFX.obj
 0001:00070510       ?GetWeaponFlyingSound@@YAPADW4RiotWeaponId@@@Z 10071510 f i ProjectileFX.obj
 0001:000705d0       ?GetWeaponLifeTime@@YAMH@Z 100715d0 f i ProjectileFX.obj
 0001:00070730       ?GetWeaponVelocity@@YAMH@Z 10071730 f i ProjectileFX.obj
 0001:00070890       ?HandleTouch@CProjectileFX@@UAEXPAVCollisionInfo@@M@Z 10071890 f   ProjectileFX.obj
 0001:00070a20       ?Init@CProjectileFX@@UAEDPAUSFXCREATESTRUCT@@@Z 10071a20 f   ProjectileFX.obj
 0001:00070b30       ?MoveServerObj@CProjectileFX@@IAEDXZ 10071b30 f   ProjectileFX.obj
 0001:00071360       ?RemoveFX@CProjectileFX@@IAEXXZ 10072360 f   ProjectileFX.obj
 0001:000714e0       ?Update@CProjectileFX@@UAEDXZ 100724e0 f   ProjectileFX.obj
 0001:00071750       ??$?5M@DStream@@QAEAAV0@AAM@Z 10072750 f i RiotClientShell.obj
 0001:00071790       ??$?6M@DStream@@QAEAAV0@M@Z 10072790 f i RiotClientShell.obj
 0001:000717d0       ??0CCheatMgr@@QAE@XZ       100727d0 f i RiotClientShell.obj
 0001:000717f0       ??0CClientShellDE@@QAE@XZ  100727f0 f i RiotClientShell.obj
 0001:00071930       ??0CCredit@@QAE@XZ         10072930 f i RiotClientShell.obj
 0001:00071960       ??0CCredits@@QAE@XZ        10072960 f i RiotClientShell.obj
 0001:00071a00       ??0CInfoDisplay@@QAE@XZ    10072a00 f i RiotClientShell.obj
 0001:00071a40       ??0CLightScaleMgr@@QAE@XZ  10072a40 f i RiotClientShell.obj
 0001:00071a90       ??0CMessageBox@@QAE@XZ     10072a90 f i RiotClientShell.obj
 0001:00071b00       ??0CPolyGridFX@@QAE@XZ     10072b00 f i RiotClientShell.obj
 0001:00071da0       ??0CRiotClientShell@@QAE@XZ 10072da0 f   RiotClientShell.obj
 0001:00072e50       ??0CSFXMgr@@QAE@XZ         10073e50 f i RiotClientShell.obj
 0001:00072ef0       ??0CSpecialFXList@@QAE@XZ  10073ef0 f i RiotClientShell.obj
 0001:00072f40       ??0PGCREATESTRUCT@@QAE@XZ  10073f40 f i RiotClientShell.obj
 0001:00072fb0       ??0PhysicsState_t@@QAE@XZ  10073fb0 f i RiotClientShell.obj
 0001:00072fe0       ??1CClientShellDE@@UAE@XZ  10073fe0 f i RiotClientShell.obj
 0001:00073010       ??1CCredit@@QAE@XZ         10074010 f i RiotClientShell.obj
 0001:00073070       ??1CCredits@@QAE@XZ        10074070 f i RiotClientShell.obj
 0001:000730f0       ??1CInfoDisplay@@QAE@XZ    100740f0 f i RiotClientShell.obj
 0001:00073150       ??1CLightScaleMgr@@QAE@XZ  10074150 f i RiotClientShell.obj
 0001:000731b0       ??1CMusic@@QAE@XZ          100741b0 f i RiotClientShell.obj
 0001:00073210       ??1CPolyGridFX@@UAE@XZ     10074210 f i RiotClientShell.obj
 0001:000732e0       ??1CRiotClientShell@@UAE@XZ 100742e0 f   RiotClientShell.obj
 0001:00073620       ??1CSFXMgr@@QAE@XZ         10074620 f i RiotClientShell.obj
 0001:000736a0       ??1CSpecialFXList@@QAE@XZ  100746a0 f i RiotClientShell.obj
 0001:00073780       ??_ECClientShellDE@@UAEPAXI@Z 10074780 f i RiotClientShell.obj
 0001:00073780       ??_GCClientShellDE@@UAEPAXI@Z 10074780 f i RiotClientShell.obj
 0001:000737d0       ??_GCMessageBox@@QAEPAXI@Z 100747d0 f i RiotClientShell.obj
 0001:00073820       ??_GCMoveMgr@@QAEPAXI@Z    10074820 f i RiotClientShell.obj
 0001:00073870       ??_ECPolyGridFX@@UAEPAXI@Z 10074870 f i RiotClientShell.obj
 0001:00073870       ??_GCPolyGridFX@@UAEPAXI@Z 10074870 f i RiotClientShell.obj
 0001:000738c0       ??_ECRiotClientShell@@UAEPAXI@Z 100748c0 f i RiotClientShell.obj
 0001:000738c0       ??_GCRiotClientShell@@UAEPAXI@Z 100748c0 f i RiotClientShell.obj
 0001:00073910       ?AdjustLightScale@CRiotClientShell@@AAEXXZ 10074910 f   RiotClientShell.obj
 0001:00073cf0       ?AdvancedDisableDx6Cmds@CRiotClientShell@@QAEDXZ 10074cf0 f i RiotClientShell.obj
 0001:00073d20       ?AdvancedDisableFog@CRiotClientShell@@QAEDXZ 10074d20 f i RiotClientShell.obj
 0001:00073d50       ?AdvancedDisableJoystick@CRiotClientShell@@QAEDXZ 10074d50 f i RiotClientShell.obj
 0001:00073d80       ?AdvancedDisableLines@CRiotClientShell@@QAEDXZ 10074d80 f i RiotClientShell.obj
 0001:00073db0       ?AdvancedDisableMovies@CRiotClientShell@@QAEDXZ 10074db0 f i RiotClientShell.obj
 0001:00073de0       ?AdvancedDisableMusic@CRiotClientShell@@QAEDXZ 10074de0 f i RiotClientShell.obj
 0001:00073e10       ?AdvancedDisableSound@CRiotClientShell@@QAEDXZ 10074e10 f i RiotClientShell.obj
 0001:00073e40       ?AdvancedEnableMultiTexturing@CRiotClientShell@@QAEDXZ 10074e40 f i RiotClientShell.obj
 0001:00073e70       ?AdvancedEnableOptSurf@CRiotClientShell@@QAEDXZ 10074e70 f i RiotClientShell.obj
 0001:00073ea0       ?AdvancedEnablePixelDoubling@CRiotClientShell@@QAEDXZ 10074ea0 f i RiotClientShell.obj
 0001:00073ed0       ?AdvancedEnableTJuncs@CRiotClientShell@@QAEDXZ 10074ed0 f i RiotClientShell.obj
 0001:00073f00       ?AdvancedEnableTripBuf@CRiotClientShell@@QAEDXZ 10074f00 f i RiotClientShell.obj
 0001:00073f30       ?AllowPlayerMovement@CCameraFX@@QBEDXZ 10074f30 f i RiotClientShell.obj
 0001:00073f50       ?AutoSave@CRiotClientShell@@AAEXPAVLMessage@@@Z 10074f50 f   RiotClientShell.obj
 0001:00073fd0       ?BuildClientSaveMsg@CRiotClientShell@@AAEXPAVLMessage@@@Z 10074fd0 f   RiotClientShell.obj
 0001:00074a40       ?CSPrint@CRiotClientShell@@IAAXPADZZ 10075a40 f   RiotClientShell.obj
 0001:00074b10       ?CalculateCameraRotation@CRiotClientShell@@AAEXXZ 10075b10 f   RiotClientShell.obj
 0001:00075640       ?ChangeWeapon@CRiotClientShell@@AAEXPAVLMessage@@@Z 10076640 f   RiotClientShell.obj
 0001:00075780       ?ChangeWeapon@CRiotClientShell@@QAEXEDK@Z 10076780 f   RiotClientShell.obj
 0001:00075910       ?ClearAllScreenBuffers@CRiotClientShell@@QAEXXZ 10076910 f   RiotClientShell.obj
 0001:00075980       ?ClearLightScale@CLightScaleMgr@@QAEXPAV?$_CVector@M@@W4LightEffectType@@@Z 10076980 f i RiotClientShell.obj
 0001:000759e0       ?ClearScreenAlways@CRiotClientShell@@QAEXD@Z 100769e0 f i RiotClientShell.obj
 0001:00075a10       ?ClearScreenTint@CRiotClientShell@@AAEXXZ 10076a10 f   RiotClientShell.obj
 0001:00075ab0       ?ClearUpToDate@CClientInfoMgr@@QAEXXZ 10076ab0 f i RiotClientShell.obj
 0001:00075ad0       ?ConnectFn@@YAXHPAPAD@Z    10076ad0 f   RiotClientShell.obj
 0001:00075b40       ?ConnectToTcpIpAddress@@YADPAVClientDE@@PAD@Z 10076b40 f   RiotClientShell.obj
 0001:00075c40       ?ControlSetting@CRiotSettings@@QAEAAMK@Z 10076c40 f i RiotClientShell.obj
 0001:00075c70       ?CreateBoundingBox@CRiotClientShell@@AAEXXZ 10076c70 f   RiotClientShell.obj
 0001:00075ee0       ?CreateBumperScreen@CRiotClientShell@@AAEXPADK@Z 10076ee0 f   RiotClientShell.obj
 0001:00076050       ?CreateClientShell@@YAPAUClientShellDE_t@@PAVClientDE@@@Z 10077050 f   RiotClientShell.obj
 0001:00076100       ?CreateDebugSurface@CRiotClientShell@@AAEXPAD@Z 10077100 f   RiotClientShell.obj
 0001:00076320       ?CreateIngameDialog@CRiotClientShell@@IAEPAVCPopupMenu@@PAVLMessage@@@Z 10077320 f   RiotClientShell.obj
 0001:00076be0       ?CreateMenuPolygrid@CRiotClientShell@@AAEXXZ 10077be0 f   RiotClientShell.obj
 0001:000773b0       ?CrosshairOn@CPlayerStats@@QBEDXZ 100783b0 f i RiotClientShell.obj
 0001:000773f0       ?DefaultModelHook@@YAXPAUModelHookData_t@@PAX@Z 100783f0 f   RiotClientShell.obj
 0001:000775a0       ?DeleteClientShell@@YAXPAUClientShellDE_t@@@Z 100785a0 f   RiotClientShell.obj
 0001:000775f0       ?DemoSerialize@CClientShellDE@@UAEXPAVDStream@@D@Z 100785f0 f i RiotClientShell.obj
 0001:00077610       ?DemoSerialize@CRiotClientShell@@UAEXPAVDStream@@D@Z 10078610 f   RiotClientShell.obj
 0001:00077870       ?DetailSetting@CRiotSettings@@QAEAAMK@Z 10078870 f i RiotClientShell.obj
 0001:000778a0       ?DisplayGenericPickupMessage@CRiotClientShell@@AAEXW4PickupItemType@@@Z 100788a0 f   RiotClientShell.obj
 0001:00077a20       ?DoLoadWorld@CRiotClientShell@@AAEDPAD00E00@Z 10078a20 f   RiotClientShell.obj
 0001:00078210       ?DoMessageBox@CRiotClientShell@@QAEDHHD@Z 10079210 f   RiotClientShell.obj
 0001:000783a0       ?DoPickupItemScreenTint@CRiotClientShell@@AAEXW4PickupItemType@@@Z 100793a0 f   RiotClientShell.obj
 0001:00079190       ?DoRenderLoop@CRiotClientShell@@IAEXD@Z 1007a190 f   RiotClientShell.obj
 0001:00079240       ?DoStartGame@CRiotClientShell@@AAEXXZ 1007a240 f   RiotClientShell.obj
 0001:00079290       ?DoYesNoMessageBox@CRiotClientShell@@QAEDHP6AXDK@ZKHD@Z 1007a290 f   RiotClientShell.obj
 0001:00079440       ?DrawInterface@CRiotClientShell@@IAEXXZ 1007a440 f   RiotClientShell.obj
 0001:000799a0       ?DrawTransmission@CRiotClientShell@@IAEXXZ 1007a9a0 f   RiotClientShell.obj
 0001:00079ea0       ?EnableCrosshair@CPlayerStats@@QAEXD@Z 1007aea0 f i RiotClientShell.obj
 0001:00079ed0       ?EnableJoystick@CRiotClientShell@@QAEDXZ 1007aed0 f   RiotClientShell.obj
 0001:00079ff0       ?ExitGame@@YAXDK@Z         1007aff0 f   RiotClientShell.obj
 0001:0007a030       ?FiredWeapon@@YADW4WeaponState@@@Z 1007b030 f i RiotClientShell.obj
 0001:0007a060       ?FirstUpdate@CRiotClientShell@@AAEXXZ 1007b060 f   RiotClientShell.obj
 0001:0007a560       ?FragSelfFn@@YAXHPAPAD@Z   1007b560 f   RiotClientShell.obj
 0001:0007a5c0       ?GetCameraList@CSFXMgr@@QAEPAVCSpecialFXList@@XZ 1007b5c0 f i RiotClientShell.obj
 0001:0007a5f0       ?GetCameraRotation@CRiotClientShell@@QAEXPAUDRotation_t@@@Z 1007b5f0 f   RiotClientShell.obj
 0001:0007a670       ?GetEditingState@CMessageMgr@@QAEDXZ 1007b670 f i RiotClientShell.obj
 0001:0007a6a0       ?GetFogColor@CVolumeBrushFX@@QBE?AV?$_CVector@M@@XZ 1007b6a0 f i RiotClientShell.obj
 0001:0007a6e0       ?GetFogFarZ@CVolumeBrushFX@@QBEMXZ 1007b6e0 f i RiotClientShell.obj
 0001:0007a700       ?GetFogNearZ@CVolumeBrushFX@@QBEMXZ 1007b700 f i RiotClientShell.obj
 0001:0007a720       ?GetId@CWeaponModel@@QBE?AW4RiotWeaponId@@XZ 1007b720 f i RiotClientShell.obj
 0001:0007a740       ?GetLoadSavedLevelMenu@CSinglePlayerMenu@@QAEPAVCLoadSavedLevelMenu@@XZ 1007b740 f i RiotClientShell.obj
 0001:0007a770       ?GetMainMenu@CRiotMenu@@QAEPAVCMainMenu@@XZ 1007b770 f i RiotClientShell.obj
 0001:0007a7a0       ?GetMenuItem@CPopupMenu@@QAEPAUPOPUPMENUITEM@@H@Z 1007b7a0 f i RiotClientShell.obj
 0001:0007a7d0       ?GetMenuSelection@CPopupMenu@@QAEKXZ 1007b7d0 f i RiotClientShell.obj
 0001:0007a7f0       ?GetModelGlow@CRiotClientShell@@QAEAAV?$_CVector@M@@XZ 1007b7f0 f i RiotClientShell.obj
 0001:0007a820       ?GetMusicLevel@CMusic@@QAE?AW4EMusicLevel@1@XZ 1007b820 f i RiotClientShell.obj
 0001:0007a840       ?GetMuzzleOffset@CWeaponModel@@QBE?AV?$_CVector@M@@XZ 1007b840 f i RiotClientShell.obj
 0001:0007a880       ?GetNiceWorldName@CRiotClientShell@@QAEDPAD0H@Z 1007b880 f   RiotClientShell.obj
 0001:0007ab20       ?GetOffset@CWeaponModel@@QBE?AV?$_CVector@M@@XZ 1007bb20 f i RiotClientShell.obj
 0001:0007ab60       ?GetPos@CPlayerCamera@@QBE?AV?$_CVector@M@@XZ 1007bb60 f i RiotClientShell.obj
 0001:0007aba0       ?GetRotation@CPlayerCamera@@QBE?AUDRotation_t@@XZ 1007bba0 f i RiotClientShell.obj
 0001:0007abf0       ?GetServerObj@CSpecialFX@@QBEPAVDObject@@XZ 1007bbf0 f i RiotClientShell.obj
 0001:0007ac10       ?GetSinglePlayerMenu@CMainMenu@@QAEPAVCSinglePlayerMenu@@XZ 1007bc10 f i RiotClientShell.obj
 0001:0007ac40       ?GetTimeOfDayScale@CLightScaleMgr@@QAE?AV?$_CVector@M@@XZ 1007bc40 f i RiotClientShell.obj
 0001:0007ac80       ?GetType@CCameraFX@@QBEEXZ 1007bc80 f i RiotClientShell.obj
 0001:0007aca0       ?GetWeaponRange@@YAMH@Z    1007bca0 f i RiotClientShell.obj
 0001:0007ae60       ?GoChaseMode@CPlayerCamera@@QAEXXZ 1007be60 f i RiotClientShell.obj
 0001:0007ae90       ?HandleExitLevel@CRiotClientShell@@AAEXPAVLMessage@@@Z 1007be90 f   RiotClientShell.obj
 0001:0007afe0       ?HandleItemExpired@CRiotClientShell@@AAEXW4PickupItemType@@@Z 1007bfe0 f   RiotClientShell.obj
 0001:0007b0f0       ?HandleItemPickedup@CRiotClientShell@@AAEXW4PickupItemType@@@Z 1007c0f0 f   RiotClientShell.obj
 0001:0007b250       ?HandleKeyUp@CMessageMgr@@QAEXH@Z 1007c250 f i RiotClientShell.obj
 0001:0007b280       ?HandleMPChangeLevel@CRiotClientShell@@AAEXXZ 1007c280 f   RiotClientShell.obj
 0001:0007b4d0       ?HandleObjectives@CRiotClientShell@@IAEXPAVLMessage@@@Z 1007c4d0 f   RiotClientShell.obj
 0001:0007b7c0       ?HandlePlaydemo@CRiotClientShell@@QAEXHPAPAD@Z 1007c7c0 f   RiotClientShell.obj
 0001:0007b860       ?HandlePlayerDamage@CRiotClientShell@@AAEXPAVLMessage@@@Z 1007c860 f   RiotClientShell.obj
 0001:0007bb90       ?HandlePlayerStateChange@CRiotClientShell@@AAEXPAVLMessage@@@Z 1007cb90 f   RiotClientShell.obj
 0001:0007be30       ?HandleRecord@CRiotClientShell@@QAEXHPAPAD@Z 1007ce30 f   RiotClientShell.obj
 0001:0007bee0       ?HandleRespawn@CRiotClientShell@@AAEXXZ 1007cee0 f   RiotClientShell.obj
 0001:0007bf80       ?HandleServerError@CRiotClientShell@@AAEXPAVLMessage@@@Z 1007cf80 f   RiotClientShell.obj
 0001:0007c040       ?HandleTransmission@CRiotClientShell@@AAEXPAVLMessage@@@Z 1007d040 f   RiotClientShell.obj
 0001:0007c9f0       ?HandleZoomChange@CRiotClientShell@@AAEXE@Z 1007d9f0 f   RiotClientShell.obj
 0001:0007cae0       ?IRModelHook@@YAXPAUModelHookData_t@@PAX@Z 1007dae0 f   RiotClientShell.obj
 0001:0007cbd0       ?Init@CPlayerCamera@@QAEDPAVClientDE@@@Z 1007dbd0 f i RiotClientShell.obj
 0001:0007cc10       ?InitMultiPlayer@CRiotClientShell@@AAEXXZ 1007dc10 f   RiotClientShell.obj
 0001:0007cda0       ?InitSinglePlayer@CRiotClientShell@@AAEXXZ 1007dda0 f   RiotClientShell.obj
 0001:0007ce50       ?InitSound@CRiotClientShell@@QAEXXZ 1007de50 f   RiotClientShell.obj
 0001:0007d5f0       ?InitSoundFn@@YAXHPAPAD@Z  1007e5f0 f   RiotClientShell.obj
 0001:0007d620       ?IsChaseView@CPlayerCamera@@QBEDXZ 1007e620 f i RiotClientShell.obj
 0001:0007d660       ?IsClosing@CMissionObjectives@@QAEDXZ 1007e660 f i RiotClientShell.obj
 0001:0007d680       ?IsDone@CCredits@@QAEDXZ   1007e680 f i RiotClientShell.obj
 0001:0007d6a0       ?IsFirstPerson@CPlayerCamera@@QBEDXZ 1007e6a0 f i RiotClientShell.obj
 0001:0007d6e0       ?IsFogEnable@CVolumeBrushFX@@QBEDXZ 1007e6e0 f i RiotClientShell.obj
 0001:0007d700       ?IsInited@CCredits@@QAEDXZ 1007e700 f i RiotClientShell.obj
 0001:0007d720       ?IsJoystickEnabled@CRiotClientShell@@QAEDXZ 1007e720 f   RiotClientShell.obj
 0001:0007d800       ?IsListener@CCameraFX@@QBEDXZ 1007e800 f i RiotClientShell.obj
 0001:0007d820       ?IsMultiplayerGame@CRiotClientShell@@QAEDXZ 1007e820 f   RiotClientShell.obj
 0001:0007d890       ?IsPlayerDead@CRiotClientShell@@QBEDXZ 1007e890 f i RiotClientShell.obj
 0001:0007d8e0       ?IsPlayerInWorld@CRiotClientShell@@QAEDXZ 1007e8e0 f   RiotClientShell.obj
 0001:0007d970       ?IsYesNo@CMessageBox@@QAEDXZ 1007e970 f i RiotClientShell.obj
 0001:0007d990       ?LeakFileFn@@YAXHPAPAD@Z   1007e990 f   RiotClientShell.obj
 0001:0007da80       ?LoadConVar@@YAXPAVClientDE@@PAVDStream@@PAD@Z 1007ea80 f   RiotClientShell.obj
 0001:0007db10       ?LoadGame@CRiotClientShell@@QAEDPAD0@Z 1007eb10 f   RiotClientShell.obj
 0001:0007dee0       ?LoadWorld@CRiotClientShell@@QAEDPAD00E@Z 1007eee0 f   RiotClientShell.obj
 0001:0007df20       ?NVModelHook@@YAXPAUModelHookData_t@@PAX@Z 1007ef20 f   RiotClientShell.obj
 0001:0007e000       ?OnCommandOff@CClientShellDE@@UAEXH@Z 1007f000 f i RiotClientShell.obj
 0001:0007e020       ?OnCommandOff@CRiotClientShell@@MAEXH@Z 1007f020 f   RiotClientShell.obj
 0001:0007e180       ?OnCommandOn@CClientShellDE@@UAEXH@Z 1007f180 f i RiotClientShell.obj
 0001:0007e1a0       ?OnCommandOn@CRiotClientShell@@MAEXH@Z 1007f1a0 f   RiotClientShell.obj
 0001:0007e9b0       ?OnEngineInitialized@CClientShellDE@@UAEKPAURMode_t@@PAUDGUID_t@@@Z 1007f9b0 f i RiotClientShell.obj
 0001:0007e9d0       ?OnEngineInitialized@CRiotClientShell@@MAEKPAURMode_t@@PAUDGUID_t@@@Z 1007f9d0 f   RiotClientShell.obj
 0001:00080450       ?OnEngineTerm@CClientShellDE@@UAEXXZ 10081450 f i RiotClientShell.obj
 0001:00080470       ?OnEngineTerm@CRiotClientShell@@MAEXXZ 10081470 f   RiotClientShell.obj
 0001:00080710       ?OnEnterWorld@CClientShellDE@@UAEXXZ 10081710 f i RiotClientShell.obj
 0001:00080730       ?OnEnterWorld@CRiotClientShell@@MAEXXZ 10081730 f   RiotClientShell.obj
 0001:00080930       ?OnEnterWorld@CRiotMenu@@QAEXXZ 10081930 f i RiotClientShell.obj
 0001:00080970       ?OnEvent@CClientShellDE@@UAEXKK@Z 10081970 f i RiotClientShell.obj
 0001:00080990       ?OnEvent@CRiotClientShell@@MAEXKK@Z 10081990 f   RiotClientShell.obj
 0001:00080cd0       ?OnExitWorld@CClientShellDE@@UAEXXZ 10081cd0 f i RiotClientShell.obj
 0001:00080cf0       ?OnExitWorld@CRiotClientShell@@MAEXXZ 10081cf0 f   RiotClientShell.obj
 0001:00080fb0       ?OnExitWorld@CRiotMenu@@QAEXXZ 10081fb0 f i RiotClientShell.obj
 0001:00080ff0       ?OnKeyDown@CClientShellDE@@UAEXHH@Z 10081ff0 f i RiotClientShell.obj
 0001:00081010       ?OnKeyDown@CRiotClientShell@@MAEXHH@Z 10082010 f   RiotClientShell.obj
 0001:00081aa0       ?OnKeyUp@CClientShellDE@@UAEXH@Z 10082aa0 f i RiotClientShell.obj
 0001:00081ac0       ?OnKeyUp@CRiotClientShell@@MAEXH@Z 10082ac0 f   RiotClientShell.obj
 0001:00081b60       ?OnMessage@CClientShellDE@@UAEXEPAVLMessage@@@Z 10082b60 f i RiotClientShell.obj
 0001:00081b80       ?OnMessage@CRiotClientShell@@MAEXEPAVLMessage@@@Z 10082b80 f   RiotClientShell.obj
 0001:00082fe0       ?OnModelKey@CClientShellDE@@UAEXPAVDObject@@PAUArgList_t@@@Z 10083fe0 f i RiotClientShell.obj
 0001:00083000       ?OnModelKey@CRiotClientShell@@MAEXPAVDObject@@PAUArgList_t@@@Z 10084000 f   RiotClientShell.obj
 0001:00083040       ?OnObjectMove@CClientShellDE@@UAEKPAVDObject@@DPAV?$_CVector@M@@@Z 10084040 f i RiotClientShell.obj
 0001:00083060       ?OnObjectMove@CRiotClientShell@@MAEKPAVDObject@@DPAV?$_CVector@M@@@Z 10084060 f   RiotClientShell.obj
 0001:000830a0       ?OnObjectRemove@CClientShellDE@@UAEXPAVDObject@@@Z 100840a0 f i RiotClientShell.obj
 0001:000830c0       ?OnObjectRemove@CRiotClientShell@@MAEXPAVDObject@@@Z 100840c0 f   RiotClientShell.obj
 0001:00083120       ?OnObjectRotate@CClientShellDE@@UAEKPAVDObject@@DPAUDRotation_t@@@Z 10084120 f i RiotClientShell.obj
 0001:00083140       ?OnObjectRotate@CRiotClientShell@@MAEKPAVDObject@@DPAUDRotation_t@@@Z 10084140 f   RiotClientShell.obj
 0001:00083180       ?OnTouchNotify@CClientShellDE@@UAEKPAVDObject@@PAVCollisionInfo@@M@Z 10084180 f i RiotClientShell.obj
 0001:000831a0       ?OnTouchNotify@CRiotClientShell@@MAEKPAVDObject@@PAVCollisionInfo@@M@Z 100841a0 f   RiotClientShell.obj
 0001:000831f0       ?PauseGame@CRiotClientShell@@IAEXDD@Z 100841f0 f   RiotClientShell.obj
 0001:00083320       ?PlayCDList@CMusic@@QAEDXZ 10084320 f i RiotClientShell.obj
 0001:00083360       ?PlayDemoFn@@YAXHPAPAD@Z   10084360 f   RiotClientShell.obj
 0001:000833a0       ?PlayIntroMovies@CRiotClientShell@@IAEXPAVClientDE@@@Z 100843a0 f   RiotClientShell.obj
 0001:000836a0       ?PostUpdate@CClientShellDE@@UAEXXZ 100846a0 f i RiotClientShell.obj
 0001:000836c0       ?PostUpdate@CRiotClientShell@@MAEXXZ 100846c0 f   RiotClientShell.obj
 0001:000837e0       ?PreLoadWorld@CClientShellDE@@UAEXPAD@Z 100847e0 f i RiotClientShell.obj
 0001:00083800       ?PreLoadWorld@CRiotClientShell@@MAEXPAD@Z 10084800 f   RiotClientShell.obj
 0001:00083960       ?PreUpdate@CClientShellDE@@UAEXXZ 10084960 f i RiotClientShell.obj
 0001:00083980       ?PreUpdate@CRiotClientShell@@MAEXXZ 10084980 f   RiotClientShell.obj
 0001:00083ad0       ?PrintError@CRiotClientShell@@QAEXPAD@Z 10084ad0 f   RiotClientShell.obj
 0001:00083b20       ?ProcessCheat@CRiotClientShell@@QAEXW4CheatCode@@@Z 10084b20 f   RiotClientShell.obj
 0001:00083b80       ?ProcessMenuCommand@CRiotClientShell@@AAEDH@Z 10084b80 f   RiotClientShell.obj
 0001:00083bc0       ?QuickLoad@CRiotClientShell@@QAEDXZ 10084bc0 f   RiotClientShell.obj
 0001:00083db0       ?QuickSave@CRiotClientShell@@QAEDXZ 10084db0 f   RiotClientShell.obj
 0001:00084030       ?RecordFn@@YAXHPAPAD@Z     10085030 f   RiotClientShell.obj
 0001:00084070       ?RemoveBumperScreen@CRiotClientShell@@AAEXXZ 10085070 f   RiotClientShell.obj
 0001:000840e0       ?RemoveMenuPolygrid@CRiotClientShell@@AAEXXZ 100850e0 f   RiotClientShell.obj
 0001:00084260       ?RenderCamera@CRiotClientShell@@IAEXD@Z 10085260 f   RiotClientShell.obj
 0001:00084350       ?ResetGlobalFog@CRiotClientShell@@AAEXXZ 10085350 f   RiotClientShell.obj
 0001:00084770       ?SRand@CClientShellDE@@UAEXXZ 10085770 f i RiotClientShell.obj
 0001:000847a0       ?SaveConVar@@YAXPAVClientDE@@PAVDStream@@PADM@Z 100857a0 f   RiotClientShell.obj
 0001:00084820       ?SaveGame@CRiotClientShell@@QAEDPAD@Z 10085820 f   RiotClientShell.obj
 0001:00084950       ?SetAlwaysUpdate@CPolyGridFX@@QAEXD@Z 10085950 f i RiotClientShell.obj
 0001:00084980       ?SetChaseOffset@CPlayerCamera@@QAEXV?$_CVector@M@@@Z 10085980 f i RiotClientShell.obj
 0001:000849e0       ?SetDifficulty@CRiotClientShell@@QAEXW4GameDifficulty@@@Z 100859e0 f i RiotClientShell.obj
 0001:00084a10       ?SetDistUp@CPlayerCamera@@QAEXM@Z 10085a10 f i RiotClientShell.obj
 0001:00084a40       ?SetExternalCamera@CRiotClientShell@@AAEXD@Z 10085a40 f   RiotClientShell.obj
 0001:00084c40       ?SetFirstPersonOffset@CPlayerCamera@@QAEXV?$_CVector@M@@@Z 10085c40 f i RiotClientShell.obj
 0001:00084ca0       ?SetInputState@CRiotClientShell@@AAEXD@Z 10085ca0 f   RiotClientShell.obj
 0001:00084cf0       ?SetLightScale@CLightScaleMgr@@QAEXPAV?$_CVector@M@@W4LightEffectType@@@Z 10085cf0 f i RiotClientShell.obj
 0001:00084d50       ?SetLoadGameMenu@CRiotClientShell@@IAEXXZ 10085d50 f   RiotClientShell.obj
 0001:00084df0       ?SetMenuMode@CRiotClientShell@@QAEDDD@Z 10085df0 f   RiotClientShell.obj
 0001:00085100       ?SetMenuMusic@CRiotClientShell@@QAEDD@Z 10086100 f   RiotClientShell.obj
 0001:00085370       ?SetMouseInput@CRiotClientShell@@IAEXD@Z 10086370 f   RiotClientShell.obj
 0001:000853f0       ?SetMuzzleOffset@CWeaponModel@@QAEXV?$_CVector@M@@@Z 100863f0 f i RiotClientShell.obj
 0001:00085440       ?SetOffset@CWeaponModel@@QAEXV?$_CVector@M@@@Z 10086440 f i RiotClientShell.obj
 0001:00085490       ?SetOptZ@CPlayerCamera@@QAEXM@Z 10086490 f i RiotClientShell.obj
 0001:000854c0       ?SetPointAtOffset@CPlayerCamera@@QAEXV?$_CVector@M@@@Z 100864c0 f i RiotClientShell.obj
 0001:00085520       ?SetRunLock@CRiotSettings@@QAEXD@Z 10086520 f i RiotClientShell.obj
 0001:00085580       ?SetSpectatorMode@CRiotClientShell@@QAEXD@Z 10086580 f   RiotClientShell.obj
 0001:00085630       ?SetUseGlobalSettings@CPolyGridFX@@QAEXD@Z 10086630 f i RiotClientShell.obj
 0001:00085660       ?SetZoom@CWeaponModel@@QAEXD@Z 10086660 f i RiotClientShell.obj
 0001:00085690       ?ShakeScreen@CRiotClientShell@@QAEXV?$_CVector@M@@@Z 10086690 f   RiotClientShell.obj
 0001:000857c0       ?ShowGameMessage@CRiotClientShell@@AAEXPAD@Z 100867c0 f   RiotClientShell.obj
 0001:00085a60       ?ShowPlayer@CRiotClientShell@@IAEXD@Z 10086a60 f   RiotClientShell.obj
 0001:00085b30       ?ShowSplash@CRiotClientShell@@IAEXXZ 10086b30 f   RiotClientShell.obj
 0001:00085d00       ?Sound16Bit@CRiotSettings@@QAEDXZ 10086d00 f i RiotClientShell.obj
 0001:00085d30       ?SoundVolume@CRiotSettings@@QAEMXZ 10086d30 f i RiotClientShell.obj
 0001:00085d60       ?SpecialEffectNotify@CClientShellDE@@UAEXPAVDObject@@PAVLMessage@@@Z 10086d60 f i RiotClientShell.obj
 0001:00085d80       ?SpecialEffectNotify@CRiotClientShell@@MAEXPAVDObject@@PAVLMessage@@@Z 10086d80 f   RiotClientShell.obj
 0001:00085df0       ?StartGame@CRiotClientShell@@QAEDW4GameDifficulty@@@Z 10086df0 f   RiotClientShell.obj
 0001:00085e40       ?StartLevel@CRiotClientShell@@AAEXXZ 10086e40 f   RiotClientShell.obj
 0001:00085ec0       ?StartNewWorld@CRiotClientShell@@AAEXPAUHSTRING_t@@@Z 10086ec0 f   RiotClientShell.obj
 0001:00085fb0       ?SubDetailSetting@CRiotSettings@@QAEAAMK@Z 10086fb0 f i RiotClientShell.obj
 0001:00085fe0       ?Term@CMessageMgr@@QAEXXZ  10086fe0 f i RiotClientShell.obj
 0001:00086040       ?TintScreen@CRiotClientShell@@QAEXV?$_CVector@M@@0MMMMD@Z 10087040 f   RiotClientShell.obj
 0001:000865c0       ?ToggleDebugCheat@CRiotClientShell@@QAEXW4CheatCode@@@Z 100875c0 f   RiotClientShell.obj
 0001:00086780       ?TurnOffAlternativeCamera@CRiotClientShell@@AAEXXZ 10087780 f   RiotClientShell.obj
 0001:00086970       ?UnpackClientSaveMsg@CRiotClientShell@@AAEXPAVLMessage@@@Z 10087970 f   RiotClientShell.obj
 0001:00087280       ?Update3rdPersonCrossHair@CRiotClientShell@@AAEXM@Z 10088280 f   RiotClientShell.obj
 0001:00087850       ?Update3rdPersonInfo@CRiotClientShell@@AAEXXZ 10088850 f   RiotClientShell.obj
 0001:00088160       ?Update@CClientShellDE@@UAEXXZ 10089160 f i RiotClientShell.obj
 0001:00088180       ?Update@CRiotClientShell@@MAEXXZ 10089180 f   RiotClientShell.obj
 0001:00088760       ?UpdateAlternativeCamera@CRiotClientShell@@AAEDXZ 10089760 f   RiotClientShell.obj
 0001:00088ca0       ?UpdateBoundingBox@CRiotClientShell@@AAEXXZ 10089ca0 f   RiotClientShell.obj
 0001:00088df0       ?UpdateBreathingFX@CRiotClientShell@@AAEXD@Z 10089df0 f   RiotClientShell.obj
 0001:00089260       ?UpdateBumperState@CRiotClientShell@@AAEXXZ 1008a260 f   RiotClientShell.obj
 0001:000893b0       ?UpdateCamera@CRiotClientShell@@AAEXXZ 1008a3b0 f   RiotClientShell.obj
 0001:00089500       ?UpdateCameraPosition@CRiotClientShell@@AAEXXZ 1008a500 f   RiotClientShell.obj
 0001:000897c0       ?UpdateCameraRotation@CRiotClientShell@@AAEDXZ 1008a7c0 f   RiotClientShell.obj
 0001:00089a10       ?UpdateCameraShake@CRiotClientShell@@AAEXXZ 1008aa10 f   RiotClientShell.obj
 0001:00089e20       ?UpdateCameraZoom@CRiotClientShell@@AAEXXZ 1008ae20 f   RiotClientShell.obj
 0001:0008a320       ?UpdateContainerFX@CRiotClientShell@@AAEXXZ 1008b320 f   RiotClientShell.obj
 0001:0008aff0       ?UpdateCreditsState@CRiotClientShell@@AAEXXZ 1008bff0 f   RiotClientShell.obj
 0001:0008b0c0       ?UpdateDebugInfo@CRiotClientShell@@AAEXXZ 1008c0c0 f   RiotClientShell.obj
 0001:0008b300       ?UpdateDemoMultiplayerState@CRiotClientShell@@AAEXXZ 1008c300 f   RiotClientShell.obj
 0001:0008b3d0       ?UpdateDuck@CRiotClientShell@@AAEXXZ 1008c3d0 f   RiotClientShell.obj
 0001:0008b5c0       ?UpdateGameOver@CRiotClientShell@@AAEXXZ 1008c5c0 f   RiotClientShell.obj
 0001:0008b660       ?UpdateHeadBob@CRiotClientShell@@AAEXXZ 1008c660 f   RiotClientShell.obj
 0001:0008bd40       ?UpdateHeadCant@CRiotClientShell@@AAEXXZ 1008cd40 f   RiotClientShell.obj
 0001:0008bf90       ?UpdateIntroState@CRiotClientShell@@AAEXXZ 1008cf90 f   RiotClientShell.obj
 0001:0008c060       ?UpdateLoadingLevel@CRiotClientShell@@AAEXXZ 1008d060 f   RiotClientShell.obj
 0001:0008c320       ?UpdateLoadingLevelState@CRiotClientShell@@AAEXXZ 1008d320 f   RiotClientShell.obj
 0001:0008c3e0       ?UpdateMenuPolygrid@CRiotClientShell@@AAEXXZ 1008d3e0 f   RiotClientShell.obj
 0001:0008c4a0       ?UpdateMenuState@CRiotClientShell@@AAEXXZ 1008d4a0 f   RiotClientShell.obj
 0001:0008c520       ?UpdateModelGlow@CRiotClientShell@@QAEXXZ 1008d520 f   RiotClientShell.obj
 0001:0008c7b0       ?UpdateMoviesState@CRiotClientShell@@AAEXXZ 1008d7b0 f   RiotClientShell.obj
 0001:0008c810       ?UpdatePausedState@CRiotClientShell@@AAEXXZ 1008d810 f   RiotClientShell.obj
 0001:0008c940       ?UpdatePlayer@CRiotClientShell@@AAEXXZ 1008d940 f   RiotClientShell.obj
 0001:0008cc30       ?UpdatePlayerCamera@CRiotClientShell@@AAEDXZ 1008dc30 f   RiotClientShell.obj
 0001:0008cce0       ?UpdatePlayerFlags@CRiotClientShell@@AAEXXZ 1008dce0 f   RiotClientShell.obj
 0001:0008d1c0       ?UpdatePlayerInfo@CRiotClientShell@@AAEXXZ 1008e1c0 f   RiotClientShell.obj
 0001:0008d8a0       ?UpdatePlayerStats@CRiotClientShell@@QAEXEEM@Z 1008e8a0 f   RiotClientShell.obj
 0001:0008dca0       ?UpdateScreenTint@CRiotClientShell@@AAEXXZ 1008eca0 f   RiotClientShell.obj
 0001:0008e0d0       ?UpdateServerPlayerModel@CRiotClientShell@@IAEXXZ 1008f0d0 f   RiotClientShell.obj
 0001:0008e220       ?UpdateSoundReverb@CRiotClientShell@@IAEXXZ 1008f220 f   RiotClientShell.obj
 0001:0008f190       ?UpdateUnderWaterFX@CRiotClientShell@@AAEXD@Z 10090190 f   RiotClientShell.obj
 0001:0008f610       ?UpdateWeaponModel@CRiotClientShell@@AAEXXZ 10090610 f   RiotClientShell.obj
 0001:0008fb10       ?UpdateWeaponMuzzlePosition@CRiotClientShell@@AAEXXZ 10090b10 f   RiotClientShell.obj
 0001:0008fe10       ?UpdateWeaponPosition@CRiotClientShell@@AAEXXZ 10090e10 f   RiotClientShell.obj
 0001:00090110       ?UsingIMA@CMusic@@QAEDXZ   10091110 f i RiotClientShell.obj
 0001:00090130       ?_DemoSerialize@CClientShellDE@@CAXPAUClientShellDE_t@@PAVDStream@@D@Z 10091130 f i RiotClientShell.obj
 0001:00090160       ?_OnCommandOff@CClientShellDE@@CAXPAUClientShellDE_t@@H@Z 10091160 f i RiotClientShell.obj
 0001:00090190       ?_OnCommandOn@CClientShellDE@@CAXPAUClientShellDE_t@@H@Z 10091190 f i RiotClientShell.obj
 0001:000901c0       ?_OnEngineInitialized@CClientShellDE@@CAKPAUClientShellDE_t@@PAURMode_t@@PAUDGUID_t@@@Z 100911c0 f i RiotClientShell.obj
 0001:000901f0       ?_OnEngineTerm@CClientShellDE@@CAXPAUClientShellDE_t@@@Z 100911f0 f i RiotClientShell.obj
 0001:00090220       ?_OnEnterWorld@CClientShellDE@@CAXPAUClientShellDE_t@@@Z 10091220 f i RiotClientShell.obj
 0001:00090250       ?_OnEvent@CClientShellDE@@CAXPAUClientShellDE_t@@KK@Z 10091250 f i RiotClientShell.obj
 0001:00090280       ?_OnExitWorld@CClientShellDE@@CAXPAUClientShellDE_t@@@Z 10091280 f i RiotClientShell.obj
 0001:000902b0       ?_OnKeyDown@CClientShellDE@@CAXPAUClientShellDE_t@@HH@Z 100912b0 f i RiotClientShell.obj
 0001:000902f0       ?_OnKeyUp@CClientShellDE@@CAXPAUClientShellDE_t@@H@Z 100912f0 f i RiotClientShell.obj
 0001:00090320       ?_OnMessage@CClientShellDE@@CAXPAUClientShellDE_t@@EPAVLMessage@@@Z 10091320 f i RiotClientShell.obj
 0001:00090360       ?_OnModelKey@CClientShellDE@@CAXPAUClientShellDE_t@@PAVDObject@@PAUArgList_t@@@Z 10091360 f i RiotClientShell.obj
 0001:00090390       ?_OnObjectMove@CClientShellDE@@CAKPAUClientShellDE_t@@PAVDObject@@DPAV?$_CVector@M@@@Z 10091390 f i RiotClientShell.obj
 0001:000903d0       ?_OnObjectRemove@CClientShellDE@@CAXPAUClientShellDE_t@@PAVDObject@@@Z 100913d0 f i RiotClientShell.obj
 0001:00090400       ?_OnObjectRotate@CClientShellDE@@CAKPAUClientShellDE_t@@PAVDObject@@DPAUDRotation_t@@@Z 10091400 f i RiotClientShell.obj
 0001:00090440       ?_OnTouchNotify@CClientShellDE@@CAKPAUClientShellDE_t@@PAVDObject@@PAVCollisionInfo@@M@Z 10091440 f i RiotClientShell.obj
 0001:00090480       ?_PostUpdate@CClientShellDE@@CAXPAUClientShellDE_t@@@Z 10091480 f i RiotClientShell.obj
 0001:000904b0       ?_PreLoadWorld@CClientShellDE@@CAXPAUClientShellDE_t@@PAD@Z 100914b0 f i RiotClientShell.obj
 0001:000904e0       ?_PreUpdate@CClientShellDE@@CAXPAUClientShellDE_t@@@Z 100914e0 f i RiotClientShell.obj
 0001:00090510       ?_SRand@CClientShellDE@@CAXPAUClientShellDE_t@@@Z 10091510 f i RiotClientShell.obj
 0001:00090540       ?_SpecialEffectNotify@CClientShellDE@@CAXPAUClientShellDE_t@@PAVDObject@@PAVLMessage@@@Z 10091540 f i RiotClientShell.obj
 0001:00090570       ?_Update@CClientShellDE@@CAXPAUClientShellDE_t@@@Z 10091570 f i RiotClientShell.obj
 0001:000905a0       _GetClientShellFunctions   100915a0 f   RiotClientShell.obj
 0001:000905d0       _GetClientShellVersion     100915d0 f   RiotClientShell.obj
 0001:000905f0       _SetInstanceHandle         100915f0 f   RiotClientShell.obj
 0001:00090610       _vsprintf                  10091610 f i RiotClientShell.obj
 0001:00090650       ??0CFont12@@QAE@XZ         10091650 f i RiotMenu.obj
 0001:00090680       ??0CFont18@@QAE@XZ         10091680 f i RiotMenu.obj
 0001:000906b0       ??0CFont28@@QAE@XZ         100916b0 f i RiotMenu.obj
 0001:000906e0       ??0CRiotMenu@@QAE@XZ       100916e0 f   RiotMenu.obj
 0001:00090940       ??1CFont12@@QAE@XZ         10091940 f i RiotMenu.obj
 0001:00090970       ??1CFont18@@QAE@XZ         10091970 f i RiotMenu.obj
 0001:000909a0       ??1CFont28@@QAE@XZ         100919a0 f i RiotMenu.obj
 0001:000909d0       ??1CJoystickMenu@@QAE@XZ   100919d0 f i RiotMenu.obj
 0001:00090a00       ??1CMainMenu@@QAE@XZ       10091a00 f i RiotMenu.obj
 0001:00090a50       ??1COptionsMenu@@QAE@XZ    10091a50 f i RiotMenu.obj
 0001:00090ad0       ??1CRiotMenu@@QAE@XZ       10091ad0 f   RiotMenu.obj
 0001:00090be0       ??1CRiotSettings@@QAE@XZ   10091be0 f i RiotMenu.obj
 0001:00090c00       ?Draw@CRiotMenu@@QAEXXZ    10091c00 f   RiotMenu.obj
 0001:00090ca0       ?ExitMenu@CRiotMenu@@QAEXD@Z 10091ca0 f   RiotMenu.obj
 0001:00090d20       ?GetClassName@CFont12@@UAEPADXZ 10091d20 f i RiotMenu.obj
 0001:00090d40       ?GetClassName@CFont18@@UAEPADXZ 10091d40 f i RiotMenu.obj
 0001:00090d60       ?GetClassName@CFont28@@UAEPADXZ 10091d60 f i RiotMenu.obj
 0001:00090d80       ?HandleInput@CRiotMenu@@QAEXH@Z 10091d80 f   RiotMenu.obj
 0001:00091060       ?InWorld@CRiotMenu@@QAEDXZ 10092060 f   RiotMenu.obj
 0001:000910a0       ?Init@CRiotMenu@@QAEDPAVClientDE@@PAVCRiotClientShell@@@Z 100920a0 f   RiotMenu.obj
 0001:00091490       ?InitCharWidths@CFont12@@MAEXXZ 10092490 f i RiotMenu.obj
 0001:00091ee0       ?InitCharWidths@CFont18@@MAEXXZ 10092ee0 f i RiotMenu.obj
 0001:00092930       ?InitCharWidths@CFont28@@MAEXXZ 10093930 f i RiotMenu.obj
 0001:00093380       ?InitControls@CRiotMenu@@IAEDXZ 10094380 f   RiotMenu.obj
 0001:00093b00       ?LoadAllSurfaces@CRiotMenu@@QAEDXZ 10094b00 f   RiotMenu.obj
 0001:00093b40       ?ScreenDimsChanged@CRiotMenu@@QAEXXZ 10094b40 f   RiotMenu.obj
 0001:00093c40       ?SetErrorMsg@CRiotMenu@@QAEXKPADK@Z 10094c40 f   RiotMenu.obj
 0001:00093dc0       ?StopMenuMusic@CRiotMenu@@QAEXXZ 10094dc0 f   RiotMenu.obj
 0001:00093e00       ?Term@CRiotMenu@@QAEXXZ    10094e00 f   RiotMenu.obj
 0001:00093f40       ?UnloadAllSurfaces@CRiotMenu@@QAEXXZ 10094f40 f   RiotMenu.obj
 0001:00093f80       ??0CRiotSettings@@QAE@XZ   10094f80 f   RiotSettings.obj
 0001:000940c0       ??0Setting@@QAE@XZ         100950c0 f i RiotSettings.obj
 0001:00094130       ?CloudMapLight@CRiotSettings@@QAEDXZ 10095130 f i RiotSettings.obj
 0001:00094160       ?EnvironmentMapping@CRiotSettings@@QAEDXZ 10095160 f i RiotSettings.obj
 0001:00094190       ?GetMusic@CRiotClientShell@@QAEPAVCMusic@@XZ 10095190 f i RiotSettings.obj
 0001:000941c0       ?ImplementBitDepth@CRiotSettings@@QAEXXZ 100951c0 f   RiotSettings.obj
 0001:00094250       ?ImplementDetailSetting@CRiotSettings@@QAEXH@Z 10095250 f   RiotSettings.obj
 0001:00095600       ?ImplementInputRate@CRiotSettings@@QAEXXZ 10096600 f   RiotSettings.obj
 0001:000956a0       ?ImplementMouseSensitivity@CRiotSettings@@QAEXXZ 100966a0 f   RiotSettings.obj
 0001:00095a70       ?ImplementMusicSource@CRiotSettings@@QAEXXZ 10096a70 f   RiotSettings.obj
 0001:00095e50       ?ImplementMusicVolume@CRiotSettings@@QAEXXZ 10096e50 f   RiotSettings.obj
 0001:00095f10       ?ImplementRendererSetting@CRiotSettings@@QAEDXZ 10096f10 f   RiotSettings.obj
 0001:00096290       ?ImplementSoundEnabled@CRiotSettings@@QAEXXZ 10097290 f   RiotSettings.obj
 0001:00096380       ?ImplementSoundQuality@CRiotSettings@@QAEXXZ 10097380 f   RiotSettings.obj
 0001:000963c0       ?ImplementSoundVolume@CRiotSettings@@QAEXXZ 100973c0 f   RiotSettings.obj
 0001:00096480       ?Init@CRiotSettings@@QAEDPAVClientDE@@PAVCRiotClientShell@@@Z 10097480 f   RiotSettings.obj
 0001:00098080       ?IsFirstUpdate@CRiotClientShell@@QBEDXZ 10099080 f i RiotSettings.obj
 0001:000980b0       ?ModelFullBrights@CRiotSettings@@QAEDXZ 100990b0 f i RiotSettings.obj
 0001:000980e0       ?ModelLOD@CRiotSettings@@QAEMXZ 100990e0 f i RiotSettings.obj
 0001:00098110       ?ReadControlSettings@CRiotSettings@@QAEXXZ 10099110 f   RiotSettings.obj
 0001:000982e0       ?ReadDetailSettings@CRiotSettings@@QAEXXZ 100992e0 f   RiotSettings.obj
 0001:00098700       ?ReadDisplayModeSettings@CRiotSettings@@QAEXXZ 10099700 f   RiotSettings.obj
 0001:00098820       ?ReadMiscSettings@CRiotSettings@@QAEXXZ 10099820 f   RiotSettings.obj
 0001:000989f0       ?ReadSettings@CRiotSettings@@QAEDXZ 100999f0 f   RiotSettings.obj
 0001:00098a50       ?ReadSoundSettings@CRiotSettings@@QAEXXZ 10099a50 f   RiotSettings.obj
 0001:00098ca0       ?ReadSubDetailSettings@CRiotSettings@@QAEXXZ 10099ca0 f   RiotSettings.obj
 0001:00098e90       ?ResetMenuRestoreCamera@CRiotClientShell@@QAEXHHHH@Z 10099e90 f i RiotSettings.obj
 0001:00098f10       ?SetHiDetail@CRiotSettings@@QAEXXZ 10099f10 f   RiotSettings.obj
 0001:00098f60       ?SetLowDetail@CRiotSettings@@QAEXXZ 10099f60 f   RiotSettings.obj
 0001:00098fb0       ?SetMedDetail@CRiotSettings@@QAEXXZ 10099fb0 f   RiotSettings.obj
 0001:00099000       ?Shadows@CRiotSettings@@QAEDXZ 1009a000 f i RiotSettings.obj
 0001:00099030       ?WriteControlSettings@CRiotSettings@@QAEXXZ 1009a030 f   RiotSettings.obj
 0001:00099180       ?WriteDetailSettings@CRiotSettings@@QAEXXZ 1009a180 f   RiotSettings.obj
 0001:000992d0       ?WriteDisplayModeSettings@CRiotSettings@@QAEXXZ 1009a2d0 f   RiotSettings.obj
 0001:00099370       ?WriteMiscSettings@CRiotSettings@@QAEXXZ 1009a370 f   RiotSettings.obj
 0001:000994c0       ?WriteSettings@CRiotSettings@@QAEXXZ 1009a4c0 f   RiotSettings.obj
 0001:00099520       ?WriteSoundSettings@CRiotSettings@@QAEXXZ 1009a520 f   RiotSettings.obj
 0001:00099740       ?WriteSubDetailSettings@CRiotSettings@@QAEXXZ 1009a740 f   RiotSettings.obj
 0001:00099890       ?AddFlareParticles@CRocketFlareFX@@AAEDXZ 1009a890 f   RocketFlareFX.obj
 0001:00099d40       ?CreateObject@CRocketFlareFX@@UAEDPAVClientDE@@@Z 1009ad40 f   RocketFlareFX.obj
 0001:00099d90       ?Init@CRocketFlareFX@@UAEDPAUSFXCREATESTRUCT@@@Z 1009ad90 f   RocketFlareFX.obj
 0001:00099e80       ?Update@CRocketFlareFX@@UAEDXZ 1009ae80 f   RocketFlareFX.obj
 0001:00099fd0       ?Draw@CSaveLevelMenu@@UAEXPAUHSURFACE_t@@HHH@Z 1009afd0 f   SaveLevelMenu.obj
 0001:0009a430       ?Esc@CSaveLevelMenu@@UAEXXZ 1009b430 f   SaveLevelMenu.obj
 0001:0009a4c0       ?GetCurrentWorldName@CRiotClientShell@@QAEPADXZ 1009b4c0 f i SaveLevelMenu.obj
 0001:0009a4f0       ?Init@CSaveLevelMenu@@UAEDPAVClientDE@@PAVCRiotMenu@@PAVCBaseMenu@@HH@Z 1009b4f0 f   SaveLevelMenu.obj
 0001:0009a560       ?LoadSurfaces@CSaveLevelMenu@@MAEDXZ 1009b560 f   SaveLevelMenu.obj
 0001:0009ad60       ?PostCalculateMenuDims@CSaveLevelMenu@@MAEXXZ 1009bd60 f   SaveLevelMenu.obj
 0001:0009ae30       ?Return@CSaveLevelMenu@@UAEXXZ 1009be30 f   SaveLevelMenu.obj
 0001:0009b4f0       ?ScreenDimsChanged@CSaveLevelMenu@@UAEXHH@Z 1009c4f0 f   SaveLevelMenu.obj
 0001:0009b520       ?UnloadSurfaces@CSaveLevelMenu@@MAEXXZ 1009c520 f   SaveLevelMenu.obj
 0001:0009b850       ??0ALCREATESTRUCT@@QAE@XZ  1009c850 f i SFXMgr.obj
 0001:0009b8a0       ??0CAMCREATESTRUCT@@QAE@XZ 1009c8a0 f i SFXMgr.obj
 0001:0009b8e0       ??0CBaseLineSystemFX@@QAE@XZ 1009c8e0 f i SFXMgr.obj
 0001:0009b9f0       ??0CBaseScaleFX@@QAE@XZ    1009c9f0 f i SFXMgr.obj
 0001:0009bd40       ??0CBulletTrailFX@@QAE@XZ  1009cd40 f i SFXMgr.obj
 0001:0009bf10       ??0CCameraFX@@QAE@XZ       1009cf10 f i SFXMgr.obj
 0001:0009bf60       ??0CCastLineFX@@QAE@XZ     1009cf60 f i SFXMgr.obj
 0001:0009c0a0       ??0CCriticalHitFX@@QAE@XZ  1009d0a0 f i SFXMgr.obj
 0001:0009c170       ??0CDeathFX@@QAE@XZ        1009d170 f i SFXMgr.obj
 0001:0009c290       ??0CDebrisFX@@QAE@XZ       1009d290 f i SFXMgr.obj
 0001:0009c5c0       ??0CDynamicLightFX@@QAE@XZ 1009d5c0 f i SFXMgr.obj
 0001:0009c750       ??0CExplosionFX@@QAE@XZ    1009d750 f i SFXMgr.obj
 0001:0009c7a0       ??0CGibFX@@QAE@XZ          1009d7a0 f i SFXMgr.obj
 0001:0009cab0       ??0CHCREATESTRUCT@@QAE@XZ  1009dab0 f i SFXMgr.obj
 0001:0009cb40       ??0CLCREATESTRUCT@@QAE@XZ  1009db40 f i SFXMgr.obj
 0001:0009cba0       ??0CLightFX@@QAE@XZ        1009dba0 f i SFXMgr.obj
 0001:0009cd90       ??0CLineBallFX@@QAE@XZ     1009dd90 f i SFXMgr.obj
 0001:0009d030       ??0CMarkSFX@@QAE@XZ        1009e030 f i SFXMgr.obj
 0001:0009d150       ??0CParticleExplosionFX@@QAE@XZ 1009e150 f i SFXMgr.obj
 0001:0009d4f0       ??0CParticleTrailSegmentFX@@QAE@XZ 1009e4f0 f i SFXMgr.obj
 0001:0009d6a0       ??0CPickupItemFX@@QAE@XZ   1009e6a0 f i SFXMgr.obj
 0001:0009d6d0       ??0CPlayerFX@@QAE@XZ       1009e6d0 f i SFXMgr.obj
 0001:0009d740       ??0CProjectileFX@@QAE@XZ   1009e740 f i SFXMgr.obj
 0001:0009d8a0       ??0CSmokeFX@@QAE@XZ        1009e8a0 f i SFXMgr.obj
 0001:0009dab0       ??0CSparksFX@@QAE@XZ       1009eab0 f i SFXMgr.obj
 0001:0009dc40       ??0CSpriteFX@@QAE@XZ       1009ec40 f i SFXMgr.obj
 0001:0009dc90       ??0CTracerFX@@QAE@XZ       1009ec90 f i SFXMgr.obj
 0001:0009dec0       ??0CVolumeBrushFX@@QAE@XZ  1009eec0 f i SFXMgr.obj
 0001:0009dfa0       ??0CWeaponFX@@QAE@XZ       1009efa0 f i SFXMgr.obj
 0001:0009e300       ??0CWeaponSoundFX@@QAE@XZ  1009f300 f i SFXMgr.obj
 0001:0009e3e0       ??0DEATHCREATESTRUCT@@QAE@XZ 1009f3e0 f i SFXMgr.obj
 0001:0009e440       ??0DEBRISCREATESTRUCT@@QAE@XZ 1009f440 f i SFXMgr.obj
 0001:0009e4f0       ??0LIGHTCREATESTRUCT@@QAE@XZ 1009f4f0 f i SFXMgr.obj
 0001:0009e540       ??0MARKCREATESTRUCT@@QAE@XZ 1009f540 f i SFXMgr.obj
 0001:0009e5a0       ??0MovingObject_t@@QAE@XZ  1009f5a0 f i SFXMgr.obj
 0001:0009e600       ??0PICKUPITEMCREATESTRUCT@@QAE@XZ 1009f600 f i SFXMgr.obj
 0001:0009e640       ??0PLAYERCREATESTRUCT@@QAE@XZ 1009f640 f i SFXMgr.obj
 0001:0009e680       ??0PROJECTILECREATESTRUCT@@QAE@XZ 1009f680 f i SFXMgr.obj
 0001:0009e6d0       ??0TRCREATESTRUCT@@QAE@XZ  1009f6d0 f i SFXMgr.obj
 0001:0009e7a0       ??0VBCREATESTRUCT@@QAE@XZ  1009f7a0 f i SFXMgr.obj
 0001:0009e7f0       ??0WSOUNDCREATESTRUCT@@QAE@XZ 1009f7f0 f i SFXMgr.obj
 0001:0009e840       ??1CBaseLineSystemFX@@UAE@XZ 1009f840 f i SFXMgr.obj
 0001:0009e870       ??1CBaseScaleFX@@UAE@XZ    1009f870 f i SFXMgr.obj
 0001:0009e8a0       ??1CBulletTrailFX@@UAE@XZ  1009f8a0 f i SFXMgr.obj
 0001:0009e8d0       ??1CCameraFX@@UAE@XZ       1009f8d0 f i SFXMgr.obj
 0001:0009e900       ??1CCastLineFX@@UAE@XZ     1009f900 f i SFXMgr.obj
 0001:0009e930       ??1CCriticalHitFX@@UAE@XZ  1009f930 f i SFXMgr.obj
 0001:0009e960       ??1CDeathFX@@UAE@XZ        1009f960 f i SFXMgr.obj
 0001:0009e990       ??1CDebrisFX@@UAE@XZ       1009f990 f i SFXMgr.obj
 0001:0009ea70       ??1CDynamicLightFX@@UAE@XZ 1009fa70 f i SFXMgr.obj
 0001:0009eaa0       ??1CExplosionFX@@UAE@XZ    1009faa0 f i SFXMgr.obj
 0001:0009ead0       ??1CGibFX@@UAE@XZ          1009fad0 f i SFXMgr.obj
 0001:0009eb50       ??1CLightFX@@UAE@XZ        1009fb50 f i SFXMgr.obj
 0001:0009ec30       ??1CLineBallFX@@UAE@XZ     1009fc30 f i SFXMgr.obj
 0001:0009ec60       ??1CMarkSFX@@UAE@XZ        1009fc60 f i SFXMgr.obj
 0001:0009ec90       ??1CParticleExplosionFX@@UAE@XZ 1009fc90 f i SFXMgr.obj
 0001:0009ed70       ??1CParticleTrailSegmentFX@@UAE@XZ 1009fd70 f i SFXMgr.obj
 0001:0009eda0       ??1CPickupItemFX@@UAE@XZ   1009fda0 f i SFXMgr.obj
 0001:0009edd0       ??1CPlayerFX@@UAE@XZ       1009fdd0 f i SFXMgr.obj
 0001:0009ee60       ??1CProjectileFX@@UAE@XZ   1009fe60 f i SFXMgr.obj
 0001:0009eee0       ??1CSmokeFX@@UAE@XZ        1009fee0 f i SFXMgr.obj
 0001:0009ef10       ??1CSparksFX@@UAE@XZ       1009ff10 f i SFXMgr.obj
 0001:0009ef40       ??1CSpriteFX@@UAE@XZ       1009ff40 f i SFXMgr.obj
 0001:0009ef70       ??1CTracerFX@@UAE@XZ       1009ff70 f i SFXMgr.obj
 0001:0009efa0       ??1CVolumeBrushFX@@UAE@XZ  1009ffa0 f i SFXMgr.obj
 0001:0009efd0       ??1CWeaponFX@@UAE@XZ       1009ffd0 f i SFXMgr.obj
 0001:0009f000       ??1CWeaponSoundFX@@UAE@XZ  100a0000 f i SFXMgr.obj
 0001:0009f0a0       ??_ECBaseLineSystemFX@@UAEPAXI@Z 100a00a0 f i SFXMgr.obj
 0001:0009f0a0       ??_GCBaseLineSystemFX@@UAEPAXI@Z 100a00a0 f i SFXMgr.obj
 0001:0009f0f0       ??_GCBaseScaleFX@@UAEPAXI@Z 100a00f0 f i SFXMgr.obj
 0001:0009f0f0       ??_ECBaseScaleFX@@UAEPAXI@Z 100a00f0 f i SFXMgr.obj
 0001:0009f140       ??_GCBulletTrailFX@@UAEPAXI@Z 100a0140 f i SFXMgr.obj
 0001:0009f140       ??_ECBulletTrailFX@@UAEPAXI@Z 100a0140 f i SFXMgr.obj
 0001:0009f190       ??_ECCameraFX@@UAEPAXI@Z   100a0190 f i SFXMgr.obj
 0001:0009f190       ??_GCCameraFX@@UAEPAXI@Z   100a0190 f i SFXMgr.obj
 0001:0009f1e0       ??_ECCastLineFX@@UAEPAXI@Z 100a01e0 f i SFXMgr.obj
 0001:0009f1e0       ??_GCCastLineFX@@UAEPAXI@Z 100a01e0 f i SFXMgr.obj
 0001:0009f230       ??_ECCriticalHitFX@@UAEPAXI@Z 100a0230 f i SFXMgr.obj
 0001:0009f230       ??_GCCriticalHitFX@@UAEPAXI@Z 100a0230 f i SFXMgr.obj
 0001:0009f280       ??_GCDeathFX@@UAEPAXI@Z    100a0280 f i SFXMgr.obj
 0001:0009f280       ??_ECDeathFX@@UAEPAXI@Z    100a0280 f i SFXMgr.obj
 0001:0009f2d0       ??_ECDebrisFX@@UAEPAXI@Z   100a02d0 f i SFXMgr.obj
 0001:0009f2d0       ??_GCDebrisFX@@UAEPAXI@Z   100a02d0 f i SFXMgr.obj
 0001:0009f320       ??_ECDynamicLightFX@@UAEPAXI@Z 100a0320 f i SFXMgr.obj
 0001:0009f320       ??_GCDynamicLightFX@@UAEPAXI@Z 100a0320 f i SFXMgr.obj
 0001:0009f370       ??_ECExplosionFX@@UAEPAXI@Z 100a0370 f i SFXMgr.obj
 0001:0009f370       ??_GCExplosionFX@@UAEPAXI@Z 100a0370 f i SFXMgr.obj
 0001:0009f3c0       ??_ECGibFX@@UAEPAXI@Z      100a03c0 f i SFXMgr.obj
 0001:0009f3c0       ??_GCGibFX@@UAEPAXI@Z      100a03c0 f i SFXMgr.obj
 0001:0009f410       ??_GCLightFX@@UAEPAXI@Z    100a0410 f i SFXMgr.obj
 0001:0009f410       ??_ECLightFX@@UAEPAXI@Z    100a0410 f i SFXMgr.obj
 0001:0009f460       ??_ECLineBallFX@@UAEPAXI@Z 100a0460 f i SFXMgr.obj
 0001:0009f460       ??_GCLineBallFX@@UAEPAXI@Z 100a0460 f i SFXMgr.obj
 0001:0009f4b0       ??_ECMarkSFX@@UAEPAXI@Z    100a04b0 f i SFXMgr.obj
 0001:0009f4b0       ??_GCMarkSFX@@UAEPAXI@Z    100a04b0 f i SFXMgr.obj
 0001:0009f500       ??_ECParticleExplosionFX@@UAEPAXI@Z 100a0500 f i SFXMgr.obj
 0001:0009f500       ??_GCParticleExplosionFX@@UAEPAXI@Z 100a0500 f i SFXMgr.obj
 0001:0009f550       ??_GCParticleTrailSegmentFX@@UAEPAXI@Z 100a0550 f i SFXMgr.obj
 0001:0009f550       ??_ECParticleTrailSegmentFX@@UAEPAXI@Z 100a0550 f i SFXMgr.obj
 0001:0009f5a0       ??_GCPickupItemFX@@UAEPAXI@Z 100a05a0 f i SFXMgr.obj
 0001:0009f5a0       ??_ECPickupItemFX@@UAEPAXI@Z 100a05a0 f i SFXMgr.obj
 0001:0009f5f0       ??_GCPlayerFX@@UAEPAXI@Z   100a05f0 f i SFXMgr.obj
 0001:0009f5f0       ??_ECPlayerFX@@UAEPAXI@Z   100a05f0 f i SFXMgr.obj
 0001:0009f640       ??_GCProjectileFX@@UAEPAXI@Z 100a0640 f i SFXMgr.obj
 0001:0009f640       ??_ECProjectileFX@@UAEPAXI@Z 100a0640 f i SFXMgr.obj
 0001:0009f690       ??_GCSmokeFX@@UAEPAXI@Z    100a0690 f i SFXMgr.obj
 0001:0009f690       ??_ECSmokeFX@@UAEPAXI@Z    100a0690 f i SFXMgr.obj
 0001:0009f6e0       ??_GCSparksFX@@UAEPAXI@Z   100a06e0 f i SFXMgr.obj
 0001:0009f6e0       ??_ECSparksFX@@UAEPAXI@Z   100a06e0 f i SFXMgr.obj
 0001:0009f730       ??_ECSpriteFX@@UAEPAXI@Z   100a0730 f i SFXMgr.obj
 0001:0009f730       ??_GCSpriteFX@@UAEPAXI@Z   100a0730 f i SFXMgr.obj
 0001:0009f780       ??_GCTracerFX@@UAEPAXI@Z   100a0780 f i SFXMgr.obj
 0001:0009f780       ??_ECTracerFX@@UAEPAXI@Z   100a0780 f i SFXMgr.obj
 0001:0009f7d0       ??_GCVolumeBrushFX@@UAEPAXI@Z 100a07d0 f i SFXMgr.obj
 0001:0009f7d0       ??_ECVolumeBrushFX@@UAEPAXI@Z 100a07d0 f i SFXMgr.obj
 0001:0009f820       ??_GCWeaponFX@@UAEPAXI@Z   100a0820 f i SFXMgr.obj
 0001:0009f820       ??_ECWeaponFX@@UAEPAXI@Z   100a0820 f i SFXMgr.obj
 0001:0009f870       ??_GCWeaponSoundFX@@UAEPAXI@Z 100a0870 f i SFXMgr.obj
 0001:0009f870       ??_ECWeaponSoundFX@@UAEPAXI@Z 100a0870 f i SFXMgr.obj
 0001:0009f8c0       ?Add@CSpecialFXList@@QAEDPAVCSpecialFX@@@Z 100a08c0 f i SFXMgr.obj
 0001:0009fa90       ?AddDynamicSpecialFX@CSFXMgr@@AAEDPAVCSpecialFX@@E@Z 100a0a90 f   SFXMgr.obj
 0001:0009faf0       ?Create@CSpecialFXList@@QAEDI@Z 100a0af0 f i SFXMgr.obj
 0001:0009fc30       ?CreateAutoSFX@CSFXMgr@@QAEPAVCSpecialFX@@PAVDObject@@PAVLMessage@@@Z 100a0c30 f   SFXMgr.obj
 0001:0009fd30       ?CreateObject@CVolumeBrushFX@@UAEDPAVClientDE@@@Z 100a0d30 f i SFXMgr.obj
 0001:0009fe00       ?CreateSFX@CSFXMgr@@QAEPAVCSpecialFX@@EPAUSFXCREATESTRUCT@@@Z 100a0e00 f   SFXMgr.obj
 0001:000a0f30       ?FindSpecialFX@CSFXMgr@@QAEPAVCSpecialFX@@EPAVDObject@@@Z 100a1f30 f   SFXMgr.obj
 0001:000a1020       ?GetDynArrayIndex@CSFXMgr@@AAEHE@Z 100a2020 f   SFXMgr.obj
 0001:000a1060       ?GetDynArrayMaxNum@CSFXMgr@@AAEIE@Z 100a2060 f   SFXMgr.obj
 0001:000a1250       ?GetUpdateDelta@CSpecialFX@@QBEMXZ 100a2250 f i SFXMgr.obj
 0001:000a1270       ?HandleSFXMsg@CSFXMgr@@QAEXPAVDObject@@PAVLMessage@@@Z 100a2270 f   SFXMgr.obj
 0001:000a28b0       ?Init@CCameraFX@@UAEDPAUSFXCREATESTRUCT@@@Z 100a38b0 f i SFXMgr.obj
 0001:000a2920       ?Init@CSFXMgr@@QAEDPAVClientDE@@@Z 100a3920 f   SFXMgr.obj
 0001:000a29d0       ?Init@CVolumeBrushFX@@UAEDPAUSFXCREATESTRUCT@@@Z 100a39d0 f i SFXMgr.obj
 0001:000a2a70       ?NumBulletHoles@CRiotSettings@@QAEMXZ 100a3a70 f i SFXMgr.obj
 0001:000a2aa0       ?OnTouchNotify@CSFXMgr@@QAEXPAVDObject@@PAVCollisionInfo@@M@Z 100a3aa0 f   SFXMgr.obj
 0001:000a2b10       ?Remove@CSpecialFXList@@QAEDPAVCSpecialFX@@@Z 100a3b10 f i SFXMgr.obj
 0001:000a2c00       ?RemoveAll@CSFXMgr@@QAEXXZ 100a3c00 f   SFXMgr.obj
 0001:000a2c90       ?RemoveAllDynamicSpecialFX@CSFXMgr@@AAEXXZ 100a3c90 f   SFXMgr.obj
 0001:000a2d40       ?RemoveDynamicSpecialFX@CSFXMgr@@AAEXPAVDObject@@@Z 100a3d40 f   SFXMgr.obj
 0001:000a2e40       ?RemoveSpecialFX@CSFXMgr@@QAEXPAVDObject@@@Z 100a3e40 f   SFXMgr.obj
 0001:000a2f20       ?Update@CCameraFX@@UAEDXZ  100a3f20 f i SFXMgr.obj
 0001:000a2f60       ?Update@CCriticalHitFX@@UAEDXZ 100a3f60 f i SFXMgr.obj
 0001:000a2f80       ?Update@CDeathFX@@UAEDXZ   100a3f80 f i SFXMgr.obj
 0001:000a2fa0       ?Update@CMarkSFX@@UAEDXZ   100a3fa0 f i SFXMgr.obj
 0001:000a2fc0       ?Update@CVolumeBrushFX@@UAEDXZ 100a3fc0 f i SFXMgr.obj
 0001:000a2fe0       ?Update@CWeaponFX@@UAEDXZ  100a3fe0 f i SFXMgr.obj
 0001:000a3000       ?Update@CWeaponSoundFX@@UAEDXZ 100a4000 f i SFXMgr.obj
 0001:000a3020       ?UpdateDynamicSpecialFX@CSFXMgr@@AAEXXZ 100a4020 f   SFXMgr.obj
 0001:000a31f0       ?UpdateSpecialFX@CSFXMgr@@QAEXXZ 100a41f0 f   SFXMgr.obj
 0001:000a3380       ?FindSFXReg@@YAPAVSFXReg@@K@Z 100a4380 f   SFXReg.obj
 0001:000a33d0       ?FindSFXRegByName@@YAPAVSFXReg@@PAD@Z 100a43d0 f   SFXReg.obj
 0001:000a3430       ??0CShellCasingFX@@QAE@XZ  100a4430 f   ShellCasingFX.obj
 0001:000a3590       ??1CShellCasingFX@@UAE@XZ  100a4590 f i ShellCasingFX.obj
 0001:000a35c0       ??_ECShellCasingFX@@UAEPAXI@Z 100a45c0 f i ShellCasingFX.obj
 0001:000a35c0       ??_GCShellCasingFX@@UAEPAXI@Z 100a45c0 f i ShellCasingFX.obj
 0001:000a3610       ?CreateObject@CShellCasingFX@@UAEDPAVClientDE@@@Z 100a4610 f   ShellCasingFX.obj
 0001:000a3cb0       ?GetModelName@CShellCasingFX@@AAEPADXZ 100a4cb0 f   ShellCasingFX.obj
 0001:000a3ea0       ?GetSkinName@CShellCasingFX@@AAEPADXZ 100a4ea0 f   ShellCasingFX.obj
 0001:000a3f90       ?Init@CShellCasingFX@@UAEDPAUSFXCREATESTRUCT@@@Z 100a4f90 f   ShellCasingFX.obj
 0001:000a4090       ?Update@CShellCasingFX@@UAEDXZ 100a5090 f   ShellCasingFX.obj
 0001:000a4540       ?GetNumFiles@CLoadLevelMenu@@QAEHXZ 100a5540 f i SinglePlayerMenu.obj
 0001:000a4570       ?Init@CSinglePlayerMenu@@UAEDPAVClientDE@@PAVCRiotMenu@@PAVCBaseMenu@@HH@Z 100a5570 f   SinglePlayerMenu.obj
 0001:000a46d0       ?LoadSurfaces@CSinglePlayerMenu@@MAEDXZ 100a56d0 f   SinglePlayerMenu.obj
 0001:000a4ac0       ?Return@CSinglePlayerMenu@@UAEXXZ 100a5ac0 f   SinglePlayerMenu.obj
 0001:000a4ca0       ?ScreenDimsChanged@CSinglePlayerMenu@@UAEXHH@Z 100a5ca0 f   SinglePlayerMenu.obj
 0001:000a4d70       ?UnloadSurfaces@CSinglePlayerMenu@@MAEXXZ 100a5d70 f   SinglePlayerMenu.obj
 0001:000a4ec0       ??1CSlider@@QAE@XZ         100a5ec0 f   Slider.obj
 0001:000a4f20       ?Draw@CSlider@@QAEXPAUHSURFACE_t@@HH@Z 100a5f20 f   Slider.obj
 0001:000a4fc0       ?GetThumbPos@CSlider@@IAEXPAH0@Z 100a5fc0 f   Slider.obj
 0001:000a5040       ?Init@CSlider@@QAEDPAVClientDE@@HH@Z 100a6040 f   Slider.obj
 0001:000a52d0       ?Term@CSlider@@QAEXXZ      100a62d0 f   Slider.obj
 0001:000a5540       ?UpdateSlider@CSlider@@IAEXXZ 100a6540 f   Slider.obj
 0001:000a5820       ?CreateObject@CSmokeFX@@UAEDPAVClientDE@@@Z 100a6820 f   SmokeFX.obj
 0001:000a58d0       ?Init@CSmokeFX@@UAEDPAUSFXCREATESTRUCT@@@Z 100a68d0 f   SmokeFX.obj
 0001:000a5ae0       ?Update@CSmokeFX@@UAEDXZ   100a6ae0 f   SmokeFX.obj
 0001:000a5f00       ?Init@CSmokeSphereFX@@UAEDPAUSFXCREATESTRUCT@@@Z 100a6f00 f   SmokeSphereFX.obj
 0001:000a6070       ?Update@CSmokeSphereFX@@UAEDXZ 100a7070 f   SmokeSphereFX.obj
 0001:000a6420       ??0CSoundOptionsMenu@@QAE@XZ 100a7420 f   SoundOptionsMenu.obj
 0001:000a6520       ?Down@CSoundOptionsMenu@@UAEXXZ 100a7520 f   SoundOptionsMenu.obj
 0001:000a65d0       ?Draw@CSoundOptionsMenu@@UAEXPAUHSURFACE_t@@HHH@Z 100a75d0 f   SoundOptionsMenu.obj
 0001:000a6880       ?End@CSoundOptionsMenu@@UAEXXZ 100a7880 f   SoundOptionsMenu.obj
 0001:000a68b0       ?Esc@CSoundOptionsMenu@@UAEXXZ 100a78b0 f   SoundOptionsMenu.obj
 0001:000a68e0       ?Home@CSoundOptionsMenu@@UAEXXZ 100a78e0 f   SoundOptionsMenu.obj
 0001:000a6910       ?Init@CSoundOptionsMenu@@UAEDPAVClientDE@@PAVCRiotMenu@@PAVCBaseMenu@@HH@Z 100a7910 f   SoundOptionsMenu.obj
 0001:000a6a70       ?Left@CSoundOptionsMenu@@UAEXXZ 100a7a70 f   SoundOptionsMenu.obj
 0001:000a7270       ?LoadAllSurfaces@CSoundOptionsMenu@@UAEDXZ 100a8270 f i SoundOptionsMenu.obj
 0001:000a72a0       ?LoadSurfaces@CSoundOptionsMenu@@MAEDXZ 100a82a0 f   SoundOptionsMenu.obj
 0001:000a7980       ?MusicEnabled@CRiotSettings@@QAEDXZ 100a8980 f i SoundOptionsMenu.obj
 0001:000a79b0       ?PageDown@CSoundOptionsMenu@@UAEXXZ 100a89b0 f   SoundOptionsMenu.obj
 0001:000a79e0       ?PageUp@CSoundOptionsMenu@@UAEXXZ 100a89e0 f   SoundOptionsMenu.obj
 0001:000a7a10       ?PostCalculateMenuDims@CSoundOptionsMenu@@MAEXXZ 100a8a10 f   SoundOptionsMenu.obj
 0001:000a7c00       ?Reset@CSoundOptionsMenu@@UAEXXZ 100a8c00 f   SoundOptionsMenu.obj
 0001:000a7c60       ?Return@CSoundOptionsMenu@@UAEXXZ 100a8c60 f   SoundOptionsMenu.obj
 0001:000a7cc0       ?Right@CSoundOptionsMenu@@UAEXXZ 100a8cc0 f   SoundOptionsMenu.obj
 0001:000a7f50       ?ScreenDimsChanged@CSoundOptionsMenu@@UAEXHH@Z 100a8f50 f   SoundOptionsMenu.obj
 0001:000a7f80       ?SoundEnabled@CRiotSettings@@QAEDXZ 100a8f80 f i SoundOptionsMenu.obj
 0001:000a7fb0       ?UnloadAllSurfaces@CSoundOptionsMenu@@UAEXXZ 100a8fb0 f i SoundOptionsMenu.obj
 0001:000a7fe0       ?UnloadSurfaces@CSoundOptionsMenu@@MAEXXZ 100a8fe0 f   SoundOptionsMenu.obj
 0001:000a82b0       ?Up@CSoundOptionsMenu@@UAEXXZ 100a92b0 f   SoundOptionsMenu.obj
 0001:000a8360       ?Sparam_Add@@YAHPADPBD1@Z  100a9360 f   Sparam.obj
 0001:000a8450       ?Sparam_Add@@YAHPADPBDH@Z  100a9450 f   Sparam.obj
 0001:000a84c0       ?Sparam_Get@@YAHPADPBD1@Z  100a94c0 f   Sparam.obj
 0001:000a86a0       ?AddSparks@CSparksFX@@AAEDXZ 100a96a0 f   SparksFX.obj
 0001:000a8f00       ?CreateObject@CSparksFX@@UAEDPAVClientDE@@@Z 100a9f00 f   SparksFX.obj
 0001:000a8f90       ?Init@CSparksFX@@UAEDPAUSFXCREATESTRUCT@@@Z 100a9f90 f   SparksFX.obj
 0001:000a9110       ?Update@CSparksFX@@UAEDXZ  100aa110 f   SparksFX.obj
 0001:000a9260       ?Init@CSpriteFX@@UAEDPAUSFXCREATESTRUCT@@@Z 100aa260 f   SpriteFX.obj
 0001:000a9290       ??0?$CDynArray@K@@QAE@HJ@Z 100aa290 f i TextHelper.obj
 0001:000a92e0       ??1?$CDynArray@K@@QAE@XZ   100aa2e0 f i TextHelper.obj
 0001:000a9340       ??A?$CDynArray@K@@QAEAAKH@Z 100aa340 f i TextHelper.obj
 0001:000a93b0       ?CreateShortenedStringSurface@CTextHelper@@SAPAUHSURFACE_t@@PAVClientDE@@HPAUFONT@@HKKDHH@Z 100aa3b0 f   TextHelper.obj
 0001:000a94f0       ?CreateShortenedStringSurface@CTextHelper@@SAPAUHSURFACE_t@@PAVClientDE@@HPAUFONT@@PADKKDHH@Z 100aa4f0 f   TextHelper.obj
 0001:000a95c0       ?CreateShortenedStringSurface@CTextHelper@@SAPAUHSURFACE_t@@PAVClientDE@@HPAUHDEFONT_t@@HKKDHH@Z 100aa5c0 f   TextHelper.obj
 0001:000a9670       ?CreateShortenedStringSurface@CTextHelper@@SAPAUHSURFACE_t@@PAVClientDE@@HPAUHDEFONT_t@@PADKKDHH@Z 100aa670 f   TextHelper.obj
 0001:000a96d0       ?CreateShortenedSurface@CTextHelper@@KAPAUHSURFACE_t@@PAVClientDE@@HPAUHDEFONT_t@@PADKKDHH@Z 100aa6d0 f   TextHelper.obj
 0001:000a9a00       ?CreateSurface@CTextHelper@@KAPAUHSURFACE_t@@PAVClientDE@@PAUHDEFONT_t@@PAUHSTRING_t@@KKDHH@Z 100aaa00 f   TextHelper.obj
 0001:000a9ab0       ?CreateSurfaceFromString@CTextHelper@@SAPAUHSURFACE_t@@PAVClientDE@@PAUFONT@@HKKDHH@Z 100aaab0 f   TextHelper.obj
 0001:000a9be0       ?CreateSurfaceFromString@CTextHelper@@SAPAUHSURFACE_t@@PAVClientDE@@PAUFONT@@PADKKDHH@Z 100aabe0 f   TextHelper.obj
 0001:000a9d10       ?CreateSurfaceFromString@CTextHelper@@SAPAUHSURFACE_t@@PAVClientDE@@PAUHDEFONT_t@@HKKDHH@Z 100aad10 f   TextHelper.obj
 0001:000a9db0       ?CreateSurfaceFromString@CTextHelper@@SAPAUHSURFACE_t@@PAVClientDE@@PAUHDEFONT_t@@PADKKDHH@Z 100aadb0 f   TextHelper.obj
 0001:000a9e50       ?CreateSurfaceFromString@CTextHelper@@SAPAUHSURFACE_t@@PAVClientDE@@PAVCBitmapFont@@HH@Z 100aae50 f   TextHelper.obj
 0001:000a9ef0       ?CreateSurfaceFromString@CTextHelper@@SAPAUHSURFACE_t@@PAVClientDE@@PAVCBitmapFont@@PADH@Z 100aaef0 f   TextHelper.obj
 0001:000aa450       ?CreateWrappedStringSurface@CTextHelper@@SAPAUHSURFACE_t@@PAVClientDE@@HPAUFONT@@HKKHDHH@Z 100ab450 f   TextHelper.obj
 0001:000aa590       ?CreateWrappedStringSurface@CTextHelper@@SAPAUHSURFACE_t@@PAVClientDE@@HPAUFONT@@PADKKHDHH@Z 100ab590 f   TextHelper.obj
 0001:000aa670       ?CreateWrappedStringSurface@CTextHelper@@SAPAUHSURFACE_t@@PAVClientDE@@HPAUHDEFONT_t@@HKKHDHH@Z 100ab670 f   TextHelper.obj
 0001:000aa730       ?CreateWrappedStringSurface@CTextHelper@@SAPAUHSURFACE_t@@PAVClientDE@@HPAUHDEFONT_t@@PADKKHDHH@Z 100ab730 f   TextHelper.obj
 0001:000aa7a0       ?CreateWrappedStringSurface@CTextHelper@@SAPAUHSURFACE_t@@PAVClientDE@@HPAVCBitmapFont@@HHD@Z 100ab7a0 f   TextHelper.obj
 0001:000aa850       ?CreateWrappedStringSurface@CTextHelper@@SAPAUHSURFACE_t@@PAVClientDE@@HPAVCBitmapFont@@PADHD@Z 100ab850 f   TextHelper.obj
 0001:000ab360       ?CreateWrappedSurface@CTextHelper@@KAPAUHSURFACE_t@@PAVClientDE@@HPAUHDEFONT_t@@PADKKHDHH@Z 100ac360 f   TextHelper.obj
 0001:000ac200       ?CropSurface@CTextHelper@@KAPAUHSURFACE_t@@PAVClientDE@@PAU2@K@Z 100ad200 f   TextHelper.obj
 0001:000ac3a0       ?Flush@?$CDynArray@K@@QAEXXZ 100ad3a0 f i TextHelper.obj
 0001:000ac3f0       ?GetCharPos@CBitmapFont@@QAEHH@Z 100ad3f0 f i TextHelper.obj
 0001:000ac440       ?GetCharWidth@CBitmapFont@@QAEHH@Z 100ad440 f i TextHelper.obj
 0001:000ac490       ?GetFontHeight@CBitmapFont@@QAEKXZ 100ad490 f i TextHelper.obj
 0001:000ac4c0       ?GetFontSurface@CBitmapFont@@QAEPAUHSURFACE_t@@XZ 100ad4c0 f i TextHelper.obj
 0001:000ac4f0       ?GetImageName@CBitmapFont@@QAEPADXZ 100ad4f0 f i TextHelper.obj
 0001:000ac510       ?Grow@?$CDynArray@K@@IAEHXZ 100ad510 f i TextHelper.obj
 0001:000ac630       ?IsValid@CBitmapFont@@QAEDXZ 100ad630 f i TextHelper.obj
 0001:000ac670       ?TextHelperCheckStringID@@YADPAVClientDE@@HPBDDD@Z 100ad670 f   TextHelper.obj
 0001:000ac740       ?TextHelperGetFloatValFromStringID@@YAMPAVClientDE@@HM@Z 100ad740 f   TextHelper.obj
 0001:000ac7e0       ?TextHelperGetIntValFromStringID@@YAHPAVClientDE@@HH@Z 100ad7e0 f   TextHelper.obj
 0001:000ac830       ?Init@CTracerFX@@UAEDPAUSFXCREATESTRUCT@@@Z 100ad830 f   TracerFX.obj
 0001:000ac9d0       ?Update@CTracerFX@@UAEDXZ  100ad9d0 f   TracerFX.obj
 0001:000ad4d0       ?VKToASCII@@YADH@Z         100ae4d0 f   VKDefs.obj
 0001:000ada70       ??0BTCREATESTRUCT@@QAE@XZ  100aea70 f i WeaponFX.obj
 0001:000adae0       ??0LBCREATESTRUCT@@QAE@XZ  100aeae0 f i WeaponFX.obj
 0001:000adbb0       ??0PESCREATESTRUCT@@QAE@XZ 100aebb0 f i WeaponFX.obj
 0001:000add10       ??0SHELLCREATESTRUCT@@QAE@XZ 100aed10 f i WeaponFX.obj
 0001:000add70       ?CreateAssaultRifleFX@CWeaponFX@@IAEXXZ 100aed70 f   WeaponFX.obj
 0001:000ae0f0       ?CreateBeamFX@CWeaponFX@@IAEXXZ 100af0f0 f   WeaponFX.obj
 0001:000ae210       ?CreateBlastMark@CWeaponFX@@IAEXXZ 100af210 f   WeaponFX.obj
 0001:000ae430       ?CreateBulletTrail@CWeaponFX@@IAEXPAV?$_CVector@M@@@Z 100af430 f   WeaponFX.obj
 0001:000ae660       ?CreateBullgutFX@CWeaponFX@@IAEXXZ 100af660 f   WeaponFX.obj
 0001:000af080       ?CreateColt45FX@CWeaponFX@@IAEXXZ 100b0080 f   WeaponFX.obj
 0001:000af400       ?CreateEnergyBatonFX@CWeaponFX@@IAEXXZ 100b0400 f i WeaponFX.obj
 0001:000af420       ?CreateEnergyBladeFX@CWeaponFX@@IAEXXZ 100b0420 f i WeaponFX.obj
 0001:000af440       ?CreateEnergyGrenadeFX@CWeaponFX@@IAEXXZ 100b0440 f   WeaponFX.obj
 0001:000af770       ?CreateJuggernautBeam@CWeaponFX@@IAEXXZ 100b0770 f   WeaponFX.obj
 0001:000afb10       ?CreateJuggernautFX@CWeaponFX@@IAEXXZ 100b0b10 f   WeaponFX.obj
 0001:000b09f0       ?CreateKatanaFX@CWeaponFX@@IAEXXZ 100b19f0 f i WeaponFX.obj
 0001:000b0a10       ?CreateKatoGrenadeFX@CWeaponFX@@IAEXXZ 100b1a10 f   WeaponFX.obj
 0001:000b1180       ?CreateLaserCannonBeam@CWeaponFX@@IAEXXZ 100b2180 f   WeaponFX.obj
 0001:000b14d0       ?CreateLaserCannonFX@CWeaponFX@@IAEXXZ 100b24d0 f i WeaponFX.obj
 0001:000b14f0       ?CreateLightFX@CWeaponFX@@IAEXXZ 100b24f0 f   WeaponFX.obj
 0001:000b2190       ?CreateMac10FX@CWeaponFX@@IAEXXZ 100b3190 f   WeaponFX.obj
 0001:000b2510       ?CreateMark@CWeaponFX@@IAEXXZ 100b3510 f   WeaponFX.obj
 0001:000b2c70       ?CreateMonoKnifeFX@CWeaponFX@@IAEXXZ 100b3c70 f i WeaponFX.obj
 0001:000b2c90       ?CreateMuzzleFX@CWeaponFX@@IAEXXZ 100b3c90 f   WeaponFX.obj
 0001:000b2f80       ?CreateMuzzleLight@CWeaponFX@@IAEXXZ 100b3f80 f   WeaponFX.obj
 0001:000b31a0       ?CreateObject@CWeaponFX@@UAEDPAVClientDE@@@Z 100b41a0 f   WeaponFX.obj
 0001:000b3bb0       ?CreatePulseRifleFX@CWeaponFX@@IAEXXZ 100b4bb0 f   WeaponFX.obj
 0001:000b3e00       ?CreateRedRiotBeam@CWeaponFX@@IAEXXZ 100b4e00 f   WeaponFX.obj
 0001:000b4170       ?CreateRedRiotFX@CWeaponFX@@IAEXXZ 100b5170 f   WeaponFX.obj
 0001:000b4b70       ?CreateShell@CWeaponFX@@IAEXXZ 100b5b70 f   WeaponFX.obj
 0001:000b4d10       ?CreateShotgunFX@CWeaponFX@@IAEXXZ 100b5d10 f   WeaponFX.obj
 0001:000b5090       ?CreateShredderBeam@CWeaponFX@@IAEXXZ 100b6090 f   WeaponFX.obj
 0001:000b53f0       ?CreateShredderFX@CWeaponFX@@IAEXXZ 100b63f0 f   WeaponFX.obj
 0001:000b56d0       ?CreateSmoke@CWeaponFX@@IAEXXZ 100b66d0 f   WeaponFX.obj
 0001:000b57c0       ?CreateSniperRifleFX@CWeaponFX@@IAEXXZ 100b67c0 f   WeaponFX.obj
 0001:000b5b40       ?CreateSparks@CWeaponFX@@IAEXXZ 100b6b40 f   WeaponFX.obj
 0001:000b6090       ?CreateSpiderFX@CWeaponFX@@IAEXXZ 100b7090 f   WeaponFX.obj
 0001:000b6510       ?CreateTOWFX@CWeaponFX@@IAEXXZ 100b7510 f   WeaponFX.obj
 0001:000b6ff0       ?CreateTantoFX@CWeaponFX@@IAEXXZ 100b7ff0 f   WeaponFX.obj
 0001:000b7500       ?CreateTracer@CWeaponFX@@IAEXXZ 100b8500 f   WeaponFX.obj
 0001:000b7650       ?CreateVectorBloodFX@CWeaponFX@@IAEXAAV?$_CVector@M@@0M@Z 100b8650 f   WeaponFX.obj
 0001:000b8070       ?CreateWeaponSpecificFX@CWeaponFX@@IAEXXZ 100b9070 f   WeaponFX.obj
 0001:000b8580       ?DetermineDamageFX@CWeaponFX@@IAEDAAD000@Z 100b9580 f   WeaponFX.obj
 0001:000b8760       ?GetImpactSound@@YAPADW4SurfaceType@@W4RiotWeaponId@@@Z 100b9760 f i WeaponFX.obj
 0001:000b8940       ?GetImpactSoundDir@@YAPADW4SurfaceType@@@Z 100b9940 f i WeaponFX.obj
 0001:000b8ab0       ?GetImpactSprite@@YAPADW4SurfaceType@@W4RiotWeaponId@@@Z 100b9ab0 f i WeaponFX.obj
 0001:000b8cf0       ?GetSparkTexture@CWeaponFX@@IAEPADW4RiotWeaponId@@W4SurfaceType@@PAV?$_CVector@M@@2@Z 100b9cf0 f   WeaponFX.obj
 0001:000b9400       ?GetWeaponDamage@@YAMH@Z   100ba400 f i WeaponFX.obj
 0001:000b95c0       ?GetWeaponDamageRadius@@YAHHW4ModelSize@@@Z 100ba5c0 f i WeaponFX.obj
 0001:000b9760       ?GetWeaponFX@@YAEH@Z       100ba760 f i WeaponFX.obj
 0001:000b9820       ?GetWeaponFireSound@@YAPADW4RiotWeaponId@@@Z 100ba820 f i WeaponFX.obj
 0001:000b98b0       ?GetWeaponSoundDir@@YADW4RiotWeaponId@@@Z 100ba8b0 f i WeaponFX.obj
 0001:000b9a90       ?HaveSilencer@CRiotClientShell@@QBEDXZ 100baa90 f i WeaponFX.obj
 0001:000b9ac0       ?Init@CWeaponFX@@UAEDPAUSFXCREATESTRUCT@@@Z 100baac0 f   WeaponFX.obj
 0001:000b9cc0       ?IsAnime@CRiotClientShell@@QBEDXZ 100bacc0 f i WeaponFX.obj
 0001:000b9cf0       ?IsBulletTrailWeapon@CWeaponFX@@IAEDW4RiotWeaponId@@@Z 100bacf0 f   WeaponFX.obj
 0001:000b9d50       ?PlayFireSound@CWeaponFX@@IAEXXZ 100bad50 f   WeaponFX.obj
 0001:000b9e10       ?PlayImpactSound@CWeaponFX@@IAEXXZ 100bae10 f   WeaponFX.obj
 0001:000ba0b0       ?SetTracerValues@CWeaponFX@@IAEXW4RiotWeaponId@@PAUTRCREATESTRUCT@@@Z 100bb0b0 f   WeaponFX.obj
 0001:000ba390       ?SetupSmoke@CWeaponFX@@IAEXW4RiotWeaponId@@W4SurfaceType@@PAUSMCREATESTRUCT@@@Z 100bb390 f   WeaponFX.obj
 0001:000ba910       ?ShowsMark@@YADW4SurfaceType@@@Z 100bb910 f i WeaponFX.obj
 0001:000baa70       ?TintScreen@CWeaponFX@@IAEXXZ 100bba70 f   WeaponFX.obj
 0001:000bb230       ?CreateLowAssaultRifleFX@CWeaponFX@@IAEXXZ 100bc230 f   WeaponFXLow.obj
 0001:000bb5c0       ?CreateLowBullgutFX@CWeaponFX@@IAEXXZ 100bc5c0 f   WeaponFXLow.obj
 0001:000bb820       ?CreateLowColt45FX@CWeaponFX@@IAEXXZ 100bc820 f   WeaponFXLow.obj
 0001:000bbbc0       ?CreateLowEnergyGrenadeFX@CWeaponFX@@IAEXXZ 100bcbc0 f   WeaponFXLow.obj
 0001:000bbe90       ?CreateLowJuggernautFX@CWeaponFX@@IAEXXZ 100bce90 f   WeaponFXLow.obj
 0001:000bc4e0       ?CreateLowKatoGrenadeFX@CWeaponFX@@IAEXXZ 100bd4e0 f   WeaponFXLow.obj
 0001:000bc740       ?CreateLowMac10FX@CWeaponFX@@IAEXXZ 100bd740 f   WeaponFXLow.obj
 0001:000bcad0       ?CreateLowPulseRifleFX@CWeaponFX@@IAEXXZ 100bdad0 f   WeaponFXLow.obj
 0001:000bccc0       ?CreateLowRedRiotFX@CWeaponFX@@IAEXXZ 100bdcc0 f   WeaponFXLow.obj
 0001:000bcfb0       ?CreateLowShotgunFX@CWeaponFX@@IAEXXZ 100bdfb0 f   WeaponFXLow.obj
 0001:000bd340       ?CreateLowShredderFX@CWeaponFX@@IAEXXZ 100be340 f   WeaponFXLow.obj
 0001:000bd4f0       ?CreateLowSniperRifleFX@CWeaponFX@@IAEXXZ 100be4f0 f   WeaponFXLow.obj
 0001:000bd890       ?CreateLowSpiderFX@CWeaponFX@@IAEXXZ 100be890 f   WeaponFXLow.obj
 0001:000bdac0       ?CreateLowTOWFX@CWeaponFX@@IAEXXZ 100beac0 f   WeaponFXLow.obj
 0001:000bdda0       ?CreateLowTantoFX@CWeaponFX@@IAEXXZ 100beda0 f   WeaponFXLow.obj
 0001:000be0e0       ?CreateLowVectorBloodFX@CWeaponFX@@IAEXAAV?$_CVector@M@@0M@Z 100bf0e0 f   WeaponFXLow.obj
 0001:000be400       ?CreateMedAssaultRifleFX@CWeaponFX@@IAEXXZ 100bf400 f   WeaponFXMed.obj
 0001:000be780       ?CreateMedBullgutFX@CWeaponFX@@IAEXXZ 100bf780 f   WeaponFXMed.obj
 0001:000bef30       ?CreateMedColt45FX@CWeaponFX@@IAEXXZ 100bff30 f   WeaponFXMed.obj
 0001:000bf2b0       ?CreateMedEnergyGrenadeFX@CWeaponFX@@IAEXXZ 100c02b0 f   WeaponFXMed.obj
 0001:000bf580       ?CreateMedJuggernautFX@CWeaponFX@@IAEXXZ 100c0580 f   WeaponFXMed.obj
 0001:000c0150       ?CreateMedKatoGrenadeFX@CWeaponFX@@IAEXXZ 100c1150 f   WeaponFXMed.obj
 0001:000c0570       ?CreateMedMac10FX@CWeaponFX@@IAEXXZ 100c1570 f   WeaponFXMed.obj
 0001:000c08f0       ?CreateMedPulseRifleFX@CWeaponFX@@IAEXXZ 100c18f0 f   WeaponFXMed.obj
 0001:000c0ae0       ?CreateMedRedRiotFX@CWeaponFX@@IAEXXZ 100c1ae0 f   WeaponFXMed.obj
 0001:000c0f80       ?CreateMedShotgunFX@CWeaponFX@@IAEXXZ 100c1f80 f   WeaponFXMed.obj
 0001:000c1300       ?CreateMedShredderFX@CWeaponFX@@IAEXXZ 100c2300 f   WeaponFXMed.obj
 0001:000c14b0       ?CreateMedSniperRifleFX@CWeaponFX@@IAEXXZ 100c24b0 f   WeaponFXMed.obj
 0001:000c1830       ?CreateMedSpiderFX@CWeaponFX@@IAEXXZ 100c2830 f   WeaponFXMed.obj
 0001:000c1ca0       ?CreateMedTOWFX@CWeaponFX@@IAEXXZ 100c2ca0 f   WeaponFXMed.obj
 0001:000c2290       ?CreateMedTantoFX@CWeaponFX@@IAEXXZ 100c3290 f   WeaponFXMed.obj
 0001:000c27a0       ?CreateMedVectorBloodFX@CWeaponFX@@IAEXAAV?$_CVector@M@@0M@Z 100c37a0 f   WeaponFXMed.obj
 0001:000c3110       ??0CWeaponModel@@QAE@XZ    100c4110 f   WeaponModel.obj
 0001:000c3430       ??1CWeaponModel@@UAE@XZ    100c4430 f   WeaponModel.obj
 0001:000c34f0       ??_GCWeaponModel@@UAEPAXI@Z 100c44f0 f i WeaponModel.obj
 0001:000c34f0       ??_ECWeaponModel@@UAEPAXI@Z 100c44f0 f i WeaponModel.obj
 0001:000c3540       ?AddImpact@CWeaponModel@@IAEXPAVDObject@@AAV?$_CVector@M@@1W4SurfaceType@@@Z 100c4540 f   WeaponModel.obj
 0001:000c35f0       ?AutoSelectWeapon@CWeaponModel@@IAEXXZ 100c45f0 f   WeaponModel.obj
 0001:000c3690       ?CanChangeToWeapon@CWeaponModel@@IAEDE@Z 100c4690 f   WeaponModel.obj
 0001:000c3810       ?CanWeaponZoom@@YADH@Z     100c4810 f i WeaponModel.obj
 0001:000c3840       ?ChangeToNextWeapon@CWeaponModel@@QAEXXZ 100c4840 f   WeaponModel.obj
 0001:000c38b0       ?ChangeToPrevWeapon@CWeaponModel@@QAEXXZ 100c48b0 f   WeaponModel.obj
 0001:000c3920       ?ChangeWeapon@CWeaponModel@@QAEXE@Z 100c4920 f   WeaponModel.obj
 0001:000c3a20       ?ClientFire@CWeaponModel@@IAEXAAV?$_CVector@M@@0@Z 100c4a20 f   WeaponModel.obj
 0001:000c3b20       ?Create@CWeaponModel@@QAEDPAVClientDE@@E@Z 100c4b20 f   WeaponModel.obj
 0001:000c3cd0       ?CreateFlash@CWeaponModel@@IAEXXZ 100c4cd0 f   WeaponModel.obj
 0001:000c3ee0       ?CreateModel@CWeaponModel@@IAEXXZ 100c4ee0 f   WeaponModel.obj
 0001:000c4160       ?CreateServerObj@CWeaponModel@@IAEPAVDObject@@XZ 100c5160 f   WeaponModel.obj
 0001:000c43c0       ?DemoNextWeapon@CWeaponModel@@IAEEE@Z 100c53c0 f   WeaponModel.obj
 0001:000c45e0       ?DemoPrevWeapon@CWeaponModel@@IAEEE@Z 100c55e0 f   WeaponModel.obj
 0001:000c47f0       ?Deselect@CWeaponModel@@IAEXXZ 100c57f0 f   WeaponModel.obj
 0001:000c48c0       ?DoProjectile@CWeaponModel@@IAEXXZ 100c58c0 f   WeaponModel.obj
 0001:000c4980       ?DoVector@CWeaponModel@@IAEXXZ 100c5980 f   WeaponModel.obj
 0001:000c4cd0       ?DoWeaponChange@CWeaponModel@@IAEXE@Z 100c5cd0 f   WeaponModel.obj
 0001:000c4d80       ?Fire@CWeaponModel@@IAE?AW4WeaponState@@XZ 100c5d80 f   WeaponModel.obj
 0001:000c5050       ?GetCommandId@@YAHH@Z      100c6050 f i WeaponModel.obj
 0001:000c5150       ?GetExtraWeaponFlags@@YAKW4RiotWeaponId@@@Z 100c6150 f i WeaponModel.obj
 0001:000c5270       ?GetFlashDuration@@YAMH@Z  100c6270 f i WeaponModel.obj
 0001:000c53c0       ?GetFlashFilename@@YAPADH@Z 100c63c0 f i WeaponModel.obj
 0001:000c54e0       ?GetFlashScale2@@YA?AV?$_CVector@M@@W4RiotWeaponId@@W4ModelSize@@@Z 100c64e0 f i WeaponModel.obj
 0001:000c56d0       ?GetFlashScale@@YA?AV?$_CVector@M@@W4RiotWeaponId@@W4ModelSize@@@Z 100c66d0 f i WeaponModel.obj
 0001:000c58c0       ?GetInventory@CRiotClientShell@@QAEPAVCPlayerInventory@@XZ 100c68c0 f i WeaponModel.obj
 0001:000c58f0       ?GetModelPos@CWeaponModel@@QBE?AV?$_CVector@M@@XZ 100c68f0 f   WeaponModel.obj
 0001:000c5990       ?GetPVModelName@@YAPADH@Z  100c6990 f i WeaponModel.obj
 0001:000c5ab0       ?GetPVModelSkin@@YAPADH@Z  100c6ab0 f i WeaponModel.obj
 0001:000c5bd0       ?GetShotsPerClip@@YAHH@Z   100c6bd0 f i WeaponModel.obj
 0001:000c5cf0       ?GetVectorsPerShot@@YAHH@Z 100c6cf0 f i WeaponModel.obj
 0001:000c5d20       ?GetWeaponDryFireSound@@YAPADW4RiotWeaponId@@@Z 100c6d20 f i WeaponModel.obj
 0001:000c5d70       ?GetWeaponMuzzleOffset2@@YA?AV?$_CVector@M@@W4RiotWeaponId@@W4WeaponState@@@Z 100c6d70 f i WeaponModel.obj
 0001:000c62a0       ?GetWeaponMuzzleOffset@@YA?AV?$_CVector@M@@W4RiotWeaponId@@W4WeaponState@@@Z 100c72a0 f i WeaponModel.obj
 0001:000c67d0       ?GetWeaponOffset2@@YA?AV?$_CVector@M@@W4RiotWeaponId@@@Z 100c77d0 f i WeaponModel.obj
 0001:000c6d30       ?GetWeaponOffset@@YA?AV?$_CVector@M@@W4RiotWeaponId@@@Z 100c7d30 f i WeaponModel.obj
 0001:000c72b0       ?GetWeaponRecoil@@YA?AV?$_CVector@M@@W4RiotWeaponId@@@Z 100c82b0 f i WeaponModel.obj
 0001:000c7390       ?HandleInternalWeaponChange@CWeaponModel@@IAEXE@Z 100c8390 f   WeaponModel.obj
 0001:000c7490       ?HandleStateChange@CWeaponModel@@QAEXPAVLMessage@@@Z 100c8490 f   WeaponModel.obj
 0001:000c7500       ?HandleVectorImpact@CWeaponModel@@IAEXAAVIntersectQuery@@AAUIntersectInfo_t@@@Z 100c8500 f   WeaponModel.obj
 0001:000c7640       ?InitAnimations@CWeaponModel@@IAEXXZ 100c8640 f   WeaponModel.obj
 0001:000c7840       ?IsChaseView@CRiotClientShell@@QAEDXZ 100c8840 f i WeaponModel.obj
 0001:000c7870       ?IsDemoWeapon@CWeaponModel@@QAEDE@Z 100c8870 f   WeaponModel.obj
 0001:000c7920       ?NextWeapon@CWeaponModel@@IAEEE@Z 100c8920 f   WeaponModel.obj
 0001:000c7ac0       ?OnModelKey@CWeaponModel@@QAEXPAVDObject@@PAUArgList_t@@@Z 100c8ac0 f   WeaponModel.obj
 0001:000c7d30       ?PlayDeselectAnimation@CWeaponModel@@IAEDXZ 100c8d30 f   WeaponModel.obj
 0001:000c7e10       ?PlayFireAnimation@CWeaponModel@@IAEDXZ 100c8e10 f   WeaponModel.obj
 0001:000c7f90       ?PlayIdleAnimation@CWeaponModel@@IAEDXZ 100c8f90 f   WeaponModel.obj
 0001:000c8160       ?PlayReloadAnimation@CWeaponModel@@IAEDXZ 100c9160 f   WeaponModel.obj
 0001:000c8260       ?PlaySelectAnimation@CWeaponModel@@IAEDXZ 100c9260 f   WeaponModel.obj
 0001:000c8340       ?PlayStartFireAnimation@CWeaponModel@@IAEDXZ 100c9340 f   WeaponModel.obj
 0001:000c8420       ?PlayStopFireAnimation@CWeaponModel@@IAEDXZ 100c9420 f   WeaponModel.obj
 0001:000c8500       ?PlayerViewWeaponSetting@CRiotSettings@@QAEEXZ 100c9500 f i WeaponModel.obj
 0001:000c8530       ?PrevWeapon@CWeaponModel@@IAEEE@Z 100c9530 f   WeaponModel.obj
 0001:000c86d0       ?RemoveModel@CWeaponModel@@IAEXXZ 100c96d0 f   WeaponModel.obj
 0001:000c8760       ?Reset@CWeaponModel@@QAEXXZ 100c9760 f   WeaponModel.obj
 0001:000c87f0       ?Select@CWeaponModel@@IAEXXZ 100c97f0 f   WeaponModel.obj
 0001:000c88a0       ?SendFireMsg@CWeaponModel@@IAEXXZ 100c98a0 f   WeaponModel.obj
 0001:000c8ce0       ?SetVisible@CWeaponModel@@QAEXD@Z 100c9ce0 f   WeaponModel.obj
 0001:000c8db0       ?StartFlash@CWeaponModel@@IAEXXZ 100c9db0 f   WeaponModel.obj
 0001:000c8f10       ?UpdateBob@CWeaponModel@@QAEXMM@Z 100c9f10 f   WeaponModel.obj
 0001:000c8f50       ?UpdateFiring@CWeaponModel@@IAEXXZ 100c9f50 f   WeaponModel.obj
 0001:000c90b0       ?UpdateFlash@CWeaponModel@@IAEXW4WeaponState@@@Z 100ca0b0 f   WeaponModel.obj
 0001:000c9230       ?UpdateModelState@CWeaponModel@@IAE?AW4WeaponState@@D@Z 100ca230 f   WeaponModel.obj
 0001:000c92f0       ?UpdateNonFiring@CWeaponModel@@IAEXXZ 100ca2f0 f   WeaponModel.obj
 0001:000c9470       ?UpdateWeaponModel@CWeaponModel@@QAE?AW4WeaponState@@UDRotation_t@@V?$_CVector@M@@D@Z 100ca470 f   WeaponModel.obj
 0001:000ca040       ?CreateObject@CWeaponSoundFX@@UAEDPAVClientDE@@@Z 100cb040 f   WeaponSoundFX.obj
 0001:000ca1d0       ?Init@CWeaponSoundFX@@UAEDPAUSFXCREATESTRUCT@@@Z 100cb1d0 f   WeaponSoundFX.obj
 0001:000ca280       ?CreateDir@CWinUtil@@SAHPAD@Z 100cb280 f   WinUtil.obj
 0001:000ca420       ?DebugBreak@CWinUtil@@SAXXZ 100cb420 f   WinUtil.obj
 0001:000ca440       ?DebugOut@CWinUtil@@SAXPAD@Z 100cb440 f   WinUtil.obj
 0001:000ca460       ?DirExist@CWinUtil@@SAHPAD@Z 100cb460 f   WinUtil.obj
 0001:000ca570       ?FileExist@CWinUtil@@SAHPAD@Z 100cb570 f   WinUtil.obj
 0001:000ca5e0       ?GetFocusWindow@CWinUtil@@SAPADXZ 100cb5e0 f   WinUtil.obj
 0001:000ca640       ?GetMoviesPath@CWinUtil@@SAHPAD@Z 100cb640 f   WinUtil.obj
 0001:000ca890       ?GetTime@CWinUtil@@SAMXZ   100cb890 f   WinUtil.obj
 0001:000ca8f0       ?WinGetPrivateProfileString@CWinUtil@@SAKPAD000K0@Z 100cb8f0 f   WinUtil.obj
 0001:000ca930       ?WinWritePrivateProfileString@CWinUtil@@SAKPAD000@Z 100cb930 f   WinUtil.obj
 0001:000ca960       ?WriteToDebugFile@CWinUtil@@SAXPAD@Z 100cb960 f   WinUtil.obj
 0001:000cab53       _LoadResource@8            100cbb53 f   kernel32:KERNEL32.dll
 0001:000cab59       _LockResource@4            100cbb59 f   kernel32:KERNEL32.dll
 0001:000cab5f       _FindResourceA@12          100cbb5f f   kernel32:KERNEL32.dll
 0001:000cab65       _Sleep@4                   100cbb65 f   kernel32:KERNEL32.dll
 0001:000cab6b       _CreateDirectoryA@8        100cbb6b f   kernel32:KERNEL32.dll
 0001:000cab71       _GetDriveTypeA@4           100cbb71 f   kernel32:KERNEL32.dll
 0001:000cab77       _DebugBreak@0              100cbb77 f   kernel32:KERNEL32.dll
 0001:000cab7d       _OutputDebugStringA@4      100cbb7d f   kernel32:KERNEL32.dll
 0001:000cab83       _SetErrorMode@4            100cbb83 f   kernel32:KERNEL32.dll
 0001:000cab89       _GetTickCount@0            100cbb89 f   kernel32:KERNEL32.dll
 0001:000cab8f       _OpenFile@12               100cbb8f f   kernel32:KERNEL32.dll
 0001:000cab95       _GetPrivateProfileStringA@24 100cbb95 f   kernel32:KERNEL32.dll
 0001:000cab9b       _WritePrivateProfileStringA@16 100cbb9b f   kernel32:KERNEL32.dll
 0001:000caba1       _wsprintfA                 100cbba1 f   user32:USER32.dll
 0001:000caba7       _SendMessageA@16           100cbba7 f   user32:USER32.dll
 0001:000cabad       _UpdateWindow@4            100cbbad f   user32:USER32.dll
 0001:000cabb3       _InvalidateRect@12         100cbbb3 f   user32:USER32.dll
 0001:000cabb9       _SetWindowTextA@8          100cbbb9 f   user32:USER32.dll
 0001:000cabbf       _GetWindowTextA@12         100cbbbf f   user32:USER32.dll
 0001:000cabc5       _GetKeyboardLayout@4       100cbbc5 f   user32:USER32.dll
 0001:000cabcb       _MapVirtualKeyExA@12       100cbbcb f   user32:USER32.dll
 0001:000cabd1       _LoadStringA@16            100cbbd1 f   user32:USER32.dll
 0001:000cabd7       _PostMessageA@16           100cbbd7 f   user32:USER32.dll
 0001:000cabdd       _ShowWindow@8              100cbbdd f   user32:USER32.dll
 0001:000cabe3       _BringWindowToTop@4        100cbbe3 f   user32:USER32.dll
 0001:000cabe9       _DialogBoxParamA@20        100cbbe9 f   user32:USER32.dll
 0001:000cabef       _EndDialog@8               100cbbef f   user32:USER32.dll
 0001:000cabf5       _GetDlgItem@8              100cbbf5 f   user32:USER32.dll
 0001:000cabfb       _SetDlgItemInt@16          100cbbfb f   user32:USER32.dll
 0001:000cac01       _GetDlgItemInt@16          100cbc01 f   user32:USER32.dll
 0001:000cac07       _SetDlgItemTextA@12        100cbc07 f   user32:USER32.dll
 0001:000cac0d       _GetDlgItemTextA@16        100cbc0d f   user32:USER32.dll
 0001:000cac13       _CheckDlgButton@12         100cbc13 f   user32:USER32.dll
 0001:000cac19       _IsDlgButtonChecked@8      100cbc19 f   user32:USER32.dll
 0001:000cac1f       _SetFocus@4                100cbc1f f   user32:USER32.dll
 0001:000cac25       _GetActiveWindow@0         100cbc25 f   user32:USER32.dll
 0001:000cac2b       _GetAsyncKeyState@4        100cbc2b f   user32:USER32.dll
 0001:000cac31       _SetTimer@16               100cbc31 f   user32:USER32.dll
 0001:000cac37       _KillTimer@8               100cbc37 f   user32:USER32.dll
 0001:000cac3d       _EnableWindow@8            100cbc3d f   user32:USER32.dll
 0001:000cac43       _SetActiveWindow@4         100cbc43 f   user32:USER32.dll
 0001:000cac49       _SetForegroundWindow@4     100cbc49 f   user32:USER32.dll
 0001:000cac4f       _MessageBoxA@16            100cbc4f f   user32:USER32.dll
 0001:000cac55       _SetCursor@4               100cbc55 f   user32:USER32.dll
 0001:000cac5b       _GetClassLongA@8           100cbc5b f   user32:USER32.dll
 0001:000cac61       _LoadCursorA@8             100cbc61 f   user32:USER32.dll
 0001:000cac67       _GetKeyState@4             100cbc67 f   user32:USER32.dll
 0001:000cac6d       _GetFocus@0                100cbc6d f   user32:USER32.dll
 0001:000cac73       _GetForegroundWindow@0     100cbc73 f   user32:USER32.dll
 0001:000cac80       @__security_check_cookie@4 100cbc80 f   LIBCMTD:secchk.obj
 0001:000caca0       __ftoui3                   100cbca0 f   LIBCMTD:ftol3.obj
 0001:000cace6       __ftoul3                   100cbce6 f   LIBCMTD:ftol3.obj
 0001:000cad58       __ftol3                    100cbd58 f   LIBCMTD:ftol3.obj
 0001:000cadc5       __dtoui3                   100cbdc5 f   LIBCMTD:ftol3.obj
 0001:000cae39       __dtoul3                   100cbe39 f   LIBCMTD:ftol3.obj
 0001:000caedb       __dtol3                    100cbedb f   LIBCMTD:ftol3.obj
 0001:000caf90       __ultod3                   100cbf90 f   LIBCMTD:ftol3.obj
 0001:000caff0       __ltod3                    100cbff0 f   LIBCMTD:ftol3.obj
 0001:000cb120       ??3@YAXPAXI@Z              100cc120 f   LIBCMTD:delete_scalar_size.obj
 0001:000cb140       __ftoi2                    100cc140 f   LIBCMTD:ftol2.obj
 0001:000cb140       __ftol2_sse                100cc140     LIBCMTD:ftol2.obj
 0001:000cb140       __ftol2_sse_excpt          100cc140     LIBCMTD:ftol2.obj
 0001:000cb1c0       __ftoui2                   100cc1c0 f   LIBCMTD:ftol2.obj
 0001:000cb270       __ftol2                    100cc270 f   LIBCMTD:ftol2.obj
 0001:000cb320       __ftoul2                   100cc320 f   LIBCMTD:ftol2.obj
 0001:000cb480       ??1type_info@@UAE@XZ       100cc480 f   LIBCMTD:std_type_info_static.obj
 0001:000cb4a0       ??_Etype_info@@UAEPAXI@Z   100cc4a0 f i LIBCMTD:std_type_info_static.obj
 0001:000cb4a0       ??_Gtype_info@@UAEPAXI@Z   100cc4a0 f i LIBCMTD:std_type_info_static.obj
 0001:000cb4e0       ??2@YAPAXI@Z               100cc4e0 f   LIBCMTD:new_scalar.obj
 0001:000cb540       ___raise_securityfailure   100cc540 f   LIBCMTD:gs_report.obj
 0001:000cb580       ___report_gsfailure        100cc580 f   LIBCMTD:gs_report.obj
 0001:000cb6d0       ___report_rangecheckfailure 100cc6d0 f   LIBCMTD:gs_report.obj
 0001:000cb6e0       ___report_securityfailure  100cc6e0 f   LIBCMTD:gs_report.obj
 0001:000cb7f0       ___report_securityfailureEx 100cc7f0 f   LIBCMTD:gs_report.obj
 0001:000cb960       ??_U@YAPAXI@Z              100cc960 f   LIBCMTD:new_array.obj
 0001:000cb980       ??_V@YAXPAX@Z              100cc980 f   LIBCMTD:delete_array.obj
 0001:000cb9a0       ??_V@YAXPAXI@Z             100cc9a0 f   LIBCMTD:delete_array_size.obj
 0001:000cb9c0       __chkstk                   100cc9c0 f   LIBCMTD:chkstk.obj
 0001:000cb9c0       __alloca_probe             100cc9c0 f   LIBCMTD:chkstk.obj
 0001:000cba00       ?configure_argv@__scrt_narrow_argv_policy@@SAHXZ 100cca00 f i LIBCMTD:utility.obj
 0001:000cbad0       ?initialize_environment@__scrt_narrow_environment_policy@@SAHXZ 100ccad0 f i LIBCMTD:utility.obj
 0001:000cbb70       _NtCurrentTeb              100ccb70 f i LIBCMTD:utility.obj
 0001:000cbb80       ___scrt_acquire_startup_lock 100ccb80 f   LIBCMTD:utility.obj
 0001:000cbbe0       ___scrt_dllmain_after_initialize_c 100ccbe0 f   LIBCMTD:utility.obj
 0001:000cbc20       ___scrt_dllmain_before_initialize_c 100ccc20 f   LIBCMTD:utility.obj
 0001:000cbc50       ___scrt_dllmain_crt_thread_attach 100ccc50 f   LIBCMTD:utility.obj
 0001:000cbc90       ___scrt_dllmain_crt_thread_detach 100ccc90 f   LIBCMTD:utility.obj
 0001:000cbcb0       ___scrt_dllmain_exception_filter 100cccb0 f   LIBCMTD:utility.obj
 0001:000cbd10       ___scrt_dllmain_uninitialize_c 100ccd10 f   LIBCMTD:utility.obj
 0001:000cbd50       ___scrt_dllmain_uninitialize_critical 100ccd50 f   LIBCMTD:utility.obj
 0001:000cbd70       ___scrt_initialize_crt     100ccd70 f   LIBCMTD:utility.obj
 0001:000cbdd0       ___scrt_initialize_onexit_tables 100ccdd0 f   LIBCMTD:utility.obj
 0001:000cbee0       ___scrt_is_nonwritable_in_current_image 100ccee0 f   LIBCMTD:utility.obj
 0001:000cc060       ___scrt_release_startup_lock 100cd060 f   LIBCMTD:utility.obj
 0001:000cc090       ___scrt_uninitialize_crt   100cd090 f   LIBCMTD:utility.obj
 0001:000cc0e0       __onexit                   100cd0e0 f   LIBCMTD:utility.obj
 0001:000cc160       _at_quick_exit             100cd160 f   LIBCMTD:utility.obj
 0001:000cc1b0       _atexit                    100cd1b0 f   LIBCMTD:utility.obj
 0001:000cc1f0       ??_L@YGXPAXIHP6EX0@Z1@Z    100cd1f0 f   LIBCMTD:ehvecctr.obj
 0001:000cc220       ??_L@YGXPAXIIP6EX0@Z1@Z    100cd220 f   LIBCMTD:ehvecctr.obj
 0001:000cc310       ??_M@YGXPAXIHP6EX0@Z@Z     100cd310 f   LIBCMTD:ehvecdtr.obj
 0001:000cc340       ??_M@YGXPAXIIP6EX0@Z@Z     100cd340 f   LIBCMTD:ehvecdtr.obj
 0001:000cc4a0       ?__ArrayUnwind@@YGXPAXIIP6EX0@Z@Z 100cd4a0 f   LIBCMTD:ehvecdtr.obj
 0001:000cc6d0       __Init_thread_abort        100cd6d0 f   LIBCMTD:thread_safe_statics.obj
 0001:000cc700       __Init_thread_footer       100cd700 f   LIBCMTD:thread_safe_statics.obj
 0001:000cc760       __Init_thread_header       100cd760 f   LIBCMTD:thread_safe_statics.obj
 0001:000cc7f0       __Init_thread_lock         100cd7f0 f   LIBCMTD:thread_safe_statics.obj
 0001:000cc810       __Init_thread_notify       100cd810 f   LIBCMTD:thread_safe_statics.obj
 0001:000cc870       __Init_thread_unlock       100cd870 f   LIBCMTD:thread_safe_statics.obj
 0001:000cc890       __Init_thread_wait         100cd890 f   LIBCMTD:thread_safe_statics.obj
 0001:000ccf40       __CRT_INIT@12              100cdf40 f   LIBCMTD:dll_dllmain.obj
 0001:000ccf60       __DllMainCRTStartup@12     100cdf60 f   LIBCMTD:dll_dllmain.obj
 0001:000ccf90       ___isa_available_init      100cdf90 f   LIBCMTD:cpu_disp.obj
 0001:000cd390       ??3@YAXPAX@Z               100ce390 f   LIBCMTD:delete_scalar.obj
 0001:000cd3b0       ??0bad_alloc@std@@AAE@QBD@Z 100ce3b0 f i LIBCMTD:throw_bad_alloc.obj
 0001:000cd3e0       ??0bad_alloc@std@@QAE@ABV01@@Z 100ce3e0 f i LIBCMTD:throw_bad_alloc.obj
 0001:000cd410       ??0bad_alloc@std@@QAE@XZ   100ce410 f i LIBCMTD:throw_bad_alloc.obj
 0001:000cd440       ??0bad_array_new_length@std@@QAE@ABV01@@Z 100ce440 f i LIBCMTD:throw_bad_alloc.obj
 0001:000cd470       ??0bad_array_new_length@std@@QAE@XZ 100ce470 f i LIBCMTD:throw_bad_alloc.obj
 0001:000cd4a0       ??0exception@std@@QAE@ABV01@@Z 100ce4a0 f i LIBCMTD:throw_bad_alloc.obj
 0001:000cd4f0       ??0exception@std@@QAE@QBDH@Z 100ce4f0 f i LIBCMTD:throw_bad_alloc.obj
 0001:000cd530       ??1bad_alloc@std@@UAE@XZ   100ce530 f i LIBCMTD:throw_bad_alloc.obj
 0001:000cd550       ??1bad_array_new_length@std@@UAE@XZ 100ce550 f i LIBCMTD:throw_bad_alloc.obj
 0001:000cd570       ??1exception@std@@UAE@XZ   100ce570 f i LIBCMTD:throw_bad_alloc.obj
 0001:000cd5a0       ??_Ebad_alloc@std@@UAEPAXI@Z 100ce5a0 f i LIBCMTD:throw_bad_alloc.obj
 0001:000cd5a0       ??_Gbad_alloc@std@@UAEPAXI@Z 100ce5a0 f i LIBCMTD:throw_bad_alloc.obj
 0001:000cd5e0       ??_Ebad_array_new_length@std@@UAEPAXI@Z 100ce5e0 f i LIBCMTD:throw_bad_alloc.obj
 0001:000cd5e0       ??_Gbad_array_new_length@std@@UAEPAXI@Z 100ce5e0 f i LIBCMTD:throw_bad_alloc.obj
 0001:000cd620       ??_Gexception@std@@UAEPAXI@Z 100ce620 f i LIBCMTD:throw_bad_alloc.obj
 0001:000cd620       ??_Eexception@std@@UAEPAXI@Z 100ce620 f i LIBCMTD:throw_bad_alloc.obj
 0001:000cd660       ?__scrt_throw_std_bad_alloc@@YAXXZ 100ce660 f   LIBCMTD:throw_bad_alloc.obj
 0001:000cd690       ?__scrt_throw_std_bad_array_new_length@@YAXXZ 100ce690 f   LIBCMTD:throw_bad_alloc.obj
 0001:000cd6c0       ?what@exception@std@@UBEPBDXZ 100ce6c0 f i LIBCMTD:throw_bad_alloc.obj
 0001:000cd700       __get_startup_argv_mode    100ce700 f   LIBCMTD:argv_mode.obj
 0001:000cd710       ___scrt_is_ucrt_dll_in_use 100ce710 f   LIBCMTD:ucrt_detection.obj
 0001:000cd740       ___scrt_fastfail           100ce740 f   LIBCMTD:utility_desktop.obj
 0001:000cd8d0       ___scrt_get_show_window_mode 100ce8d0 f   LIBCMTD:utility_desktop.obj
 0001:000cd920       ___scrt_initialize_mta     100ce920 f   LIBCMTD:utility_desktop.obj
 0001:000cd930       ___scrt_initialize_winrt   100ce930 f   LIBCMTD:utility_desktop.obj
 0001:000cd940       ___scrt_is_managed_app     100ce940 f   LIBCMTD:utility_desktop.obj
 0001:000cd9f0       ___scrt_set_unhandled_exception_filter 100ce9f0 f   LIBCMTD:utility_desktop.obj
 0001:000cda10       ___scrt_stub_for_initialize_mta 100cea10 f   LIBCMTD:utility_desktop.obj
 0001:000cda10       ___scrt_exe_initialize_mta 100cea10 f   LIBCMTD:utility_desktop.obj
 0001:000cda20       ___scrt_unhandled_exception_filter@4 100cea20 f   LIBCMTD:utility_desktop.obj
 0001:000cdac0       __crt_debugger_hook        100ceac0 f   LIBCMTD:utility_desktop.obj
 0001:000cdae0       @_guard_check_icall_nop@4  100ceae0 f i LIBCMTD:guard_support.obj
 0001:000cdaf0       _ReadNoFence               100ceaf0 f i LIBCMTD:guard_support.obj
 0001:000cdb10       _ReadPointerNoFence        100ceb10 f i LIBCMTD:guard_support.obj
 0001:000cdb30       __guard_icall_checks_enforced 100ceb30 f i LIBCMTD:guard_support.obj
 0001:000cdc00       ___security_init_cookie    100cec00 f   LIBCMTD:gs_support.obj
 0001:000cdca0       _DllMain@12                100ceca0 f   LIBCMTD:dll_dllmain_stub.obj
 0001:000cdcb0       ?__scrt_initialize_type_info@@YAXXZ 100cecb0 f   LIBCMTD:tncleanup.obj
 0001:000cdcd0       ?__scrt_uninitialize_type_info@@YAXXZ 100cecd0 f   LIBCMTD:tncleanup.obj
 0001:000cdcf0       ___scrt_initialize_default_local_stdio_options 100cecf0 f   LIBCMTD:default_local_stdio_options.obj
 0001:000cdd40       ___scrt_get_dyn_tls_init_callback 100ced40 f   LIBCMTD:dyn_tls_init.obj
 0001:000cdd50       __RTC_Initialize           100ced50 f   LIBCMTD:initsect.obj
 0001:000cdd90       __RTC_Terminate            100ced90 f   LIBCMTD:initsect.obj
 0001:000cddd0       ??$__crt_interlocked_exchange_pointer@$$A6AXXZP6AXXZ@@YAP6AXXZPDS6AXXZQ6AXXZ@Z 100cedd0 f i libvcruntimed:purevirt.obj
 0001:000cdde0       ??$__crt_interlocked_read_pointer@$$A6AXXZ@@YAP6AXXZPDS6AXXZ@Z 100cede0 f i libvcruntimed:purevirt.obj
 0001:000cde00       ?__crt_interlocked_read_32@@YAHPDH@Z 100cee00 f i libvcruntimed:purevirt.obj
 0001:000cde20       __get_purecall_handler     100cee20 f   libvcruntimed:purevirt.obj
 0001:000cde40       __purecall                 100cee40 f   libvcruntimed:purevirt.obj
 0001:000cde80       __set_purecall_handler     100cee80 f   libvcruntimed:purevirt.obj
 0001:000cdea0       _memset                    100ceea0 f   libvcruntimed:memset.obj
 0001:000ce050       ??$?0AAViterator@TryBlockMap@__FrameHandler3@@AAV012@$0A@@?$pair@Viterator@TryBlockMap@__FrameHandler3@@V123@@std@@QAE@AAViterator@TryBlockMap@__FrameHandler3@@0@Z 100cf050 f i libvcruntimed:trnsctrl.obj
 0001:000ce0b0       ??$forward@AAViterator@TryBlockMap@__FrameHandler3@@@std@@YAAAViterator@TryBlockMap@__FrameHandler3@@AAV123@@Z 100cf0b0 f i libvcruntimed:trnsctrl.obj
 0001:000ce0c0       ??0iterator@TryBlockMap@__FrameHandler3@@QAE@AAV12@I@Z 100cf0c0 f i libvcruntimed:trnsctrl.obj
 0001:000ce0f0       ?GetRangeOfTrysToCheck@__FrameHandler3@@SA?AU?$pair@Viterator@TryBlockMap@__FrameHandler3@@V123@@std@@AAVTryBlockMap@1@HPAXPBU_s_FuncInfo@@H@Z 100cf0f0 f   libvcruntimed:trnsctrl.obj
 0001:000ce210       ?_CallCatchBlock2@@YAPAXPAUEHRegistrationNode@@PBU_s_FuncInfo@@PAXHK@Z 100cf210 f   libvcruntimed:trnsctrl.obj
 0001:000ce2a0       ?_CallSETranslator@@YAHPAUEHExceptionRecord@@PAUEHRegistrationNode@@PAX2PBU_s_FuncInfo@@H1@Z 100cf2a0 f   libvcruntimed:trnsctrl.obj
 0001:000ce3e0       ?_JumpToContinuation@@YGXPAXPAUEHRegistrationNode@@@Z 100cf3e0 f   libvcruntimed:trnsctrl.obj
 0001:000ce420       ?_UnwindNestedFrames@@YGXPAUEHRegistrationNode@@PAUEHExceptionRecord@@@Z 100cf420 f   libvcruntimed:trnsctrl.obj
 0001:000ce490       __CatchGuardHandler        100cf490 f   libvcruntimed:trnsctrl.obj
 0001:000ce4f0       __CreateFrameInfo          100cf4f0 f   libvcruntimed:trnsctrl.obj
 0001:000ce530       __FindAndUnlinkFrame       100cf530 f   libvcruntimed:trnsctrl.obj
 0001:000ce5c0       __TranslatorGuardHandler   100cf5c0 f   libvcruntimed:trnsctrl.obj
 0001:000ce6a0       ___CxxFrameHandler         100cf6a0 f   libvcruntimed:trnsctrl.obj
 0001:000ce6f0       ___CxxFrameHandler2        100cf6f0 f   libvcruntimed:trnsctrl.obj
 0001:000ce740       ___CxxFrameHandler3        100cf740 f   libvcruntimed:trnsctrl.obj
 0001:000ce790       ___CxxLongjmpUnwind@4      100cf790 f   libvcruntimed:trnsctrl.obj
 0001:000ce7e0       _memcpy                    100cf7e0 f   libvcruntimed:memcpy.obj
 0001:000cf0d0       _memcmp                    100d00d0 f   libvcruntimed:memcmp.obj
 0001:000cfbd0       _strstr                    100d0bd0 f   libvcruntimed:strstr.obj
 0001:000cfed0       ___vcrt_initialize         100d0ed0 f   libvcruntimed:initialization.obj
 0001:000cff10       ___vcrt_thread_attach      100d0f10 f   libvcruntimed:initialization.obj
 0001:000cff30       ___vcrt_thread_detach      100d0f30 f   libvcruntimed:initialization.obj
 0001:000cff50       ___vcrt_uninitialize       100d0f50 f   libvcruntimed:initialization.obj
 0001:000cff70       ___vcrt_uninitialize_critical 100d0f70 f   libvcruntimed:initialization.obj
 0001:000d0010       __except_handler4          100d1010 f   libvcruntimed:chandler4.obj
 0001:000d0270       ___DestructExceptionObject 100d1270 f   libvcruntimed:ehhelpers.obj
 0001:000d03e0       ?_CallMemberFunction0@@YGXQAX0@Z 100d13e0 f i libvcruntimed:ehhelpers.obj
 0001:000d04b0       ?raw_name@type_info@@QBEPBDXZ 100d14b0 f i libvcruntimed:ehhelpers.obj
 0001:000d04d0       __IsExceptionObjectToBeDestroyed 100d14d0 f   libvcruntimed:ehhelpers.obj
 0001:000d0520       __SetWinRTOutOfMemoryExceptionCallback 100d1520 f   libvcruntimed:ehhelpers.obj
 0001:000d0530       ___AdjustPointer           100d1530 f   libvcruntimed:ehhelpers.obj
 0001:000d0590       ___FrameUnwindFilter       100d1590 f   libvcruntimed:ehhelpers.obj
 0001:000d0640       ___GetPlatformExceptionInfo 100d1640 f   libvcruntimed:ehhelpers.obj
 0001:000d06e0       ___current_exception       100d16e0 f   libvcruntimed:ehhelpers.obj
 0001:000d06f0       ___current_exception_context 100d16f0 f   libvcruntimed:ehhelpers.obj
 0001:000d0700       ___processing_throw        100d1700 f   libvcruntimed:ehhelpers.obj
 0001:000d0710       ___std_terminate           100d1710 f   libvcruntimed:ehhelpers.obj
 0001:000d0720       __is_exception_typeof      100d1720 f   libvcruntimed:ehhelpers.obj
 0001:000d0830       ??$?RD@__crt_public_free_policy@@QBEXQBD@Z 100d1830 f i libvcruntimed:std_exception.obj
 0001:000d0850       ??0?$__crt_unique_heap_ptr@DU__crt_public_free_policy@@@@QAE@QAD@Z 100d1850 f i libvcruntimed:std_exception.obj
 0001:000d0870       ??1?$__crt_unique_heap_ptr@DU__crt_public_free_policy@@@@QAE@XZ 100d1870 f i libvcruntimed:std_exception.obj
 0001:000d0890       ??B?$__crt_unique_heap_ptr@DU__crt_public_free_policy@@@@QBE_NXZ 100d1890 f i libvcruntimed:std_exception.obj
 0001:000d08b0       ?detach@?$__crt_unique_heap_ptr@DU__crt_public_free_policy@@@@QAEPADXZ 100d18b0 f i libvcruntimed:std_exception.obj
 0001:000d08e0       ?get@?$__crt_unique_heap_ptr@DU__crt_public_free_policy@@@@QBEPADXZ 100d18e0 f i libvcruntimed:std_exception.obj
 0001:000d0900       ?is_valid@?$__crt_unique_heap_ptr@DU__crt_public_free_policy@@@@QBE_NXZ 100d1900 f i libvcruntimed:std_exception.obj
 0001:000d0940       ?release@?$__crt_unique_heap_ptr@DU__crt_public_free_policy@@@@QAEXXZ 100d1940 f i libvcruntimed:std_exception.obj
 0001:000d0970       ___std_exception_copy      100d1970 f   libvcruntimed:std_exception.obj
 0001:000d0aa0       ___std_exception_destroy   100d1aa0 f   libvcruntimed:std_exception.obj
 0001:000d0ae0       __CxxThrowException@8      100d1ae0 f   libvcruntimed:throw.obj
 0001:000d0bf0       ??$?RD@__crt_internal_free_policy@@QBEXQBD@Z 100d1bf0 f i libvcruntimed:std_type_info.obj
 0001:000d0c20       ??$?RX@__crt_internal_free_policy@@QBEXQBX@Z 100d1c20 f i libvcruntimed:std_type_info.obj
 0001:000d0c50       ??$__crt_interlocked_compare_exchange_pointer@$$CBDPAD$$T@@YAPBDPDSBDQAD$$T@Z 100d1c50 f i libvcruntimed:std_type_info.obj
 0001:000d0c70       ??$__crt_interlocked_read_pointer@$$CBD@@YAPBDPDSBD@Z 100d1c70 f i libvcruntimed:std_type_info.obj
 0001:000d0c90       ??0?$__crt_unique_heap_ptr@DU__crt_internal_free_policy@@@@QAE@QAD@Z 100d1c90 f i libvcruntimed:std_type_info.obj
 0001:000d0cb0       ??0?$__crt_unique_heap_ptr@XU__crt_internal_free_policy@@@@QAE@QAX@Z 100d1cb0 f i libvcruntimed:std_type_info.obj
 0001:000d0cd0       ??1?$__crt_unique_heap_ptr@DU__crt_internal_free_policy@@@@QAE@XZ 100d1cd0 f i libvcruntimed:std_type_info.obj
 0001:000d0cf0       ??1?$__crt_unique_heap_ptr@XU__crt_internal_free_policy@@@@QAE@XZ 100d1cf0 f i libvcruntimed:std_type_info.obj
 0001:000d0d10       ??B?$__crt_unique_heap_ptr@DU__crt_internal_free_policy@@@@QBE_NXZ 100d1d10 f i libvcruntimed:std_type_info.obj
 0001:000d0d30       ??B?$__crt_unique_heap_ptr@XU__crt_internal_free_policy@@@@QBE_NXZ 100d1d30 f i libvcruntimed:std_type_info.obj
 0001:000d0df0       ?detach@?$__crt_unique_heap_ptr@XU__crt_internal_free_policy@@@@QAEPAXXZ 100d1df0 f i libvcruntimed:std_type_info.obj
 0001:000d0e20       ?get@?$__crt_unique_heap_ptr@DU__crt_internal_free_policy@@@@QBEPADXZ 100d1e20 f i libvcruntimed:std_type_info.obj
 0001:000d0e40       ?get@?$__crt_unique_heap_ptr@XU__crt_internal_free_policy@@@@QBEPAXXZ 100d1e40 f i libvcruntimed:std_type_info.obj
 0001:000d0e60       ?is_valid@?$__crt_unique_heap_ptr@DU__crt_internal_free_policy@@@@QBE_NXZ 100d1e60 f i libvcruntimed:std_type_info.obj
 0001:000d0ea0       ?is_valid@?$__crt_unique_heap_ptr@XU__crt_internal_free_policy@@@@QBE_NXZ 100d1ea0 f i libvcruntimed:std_type_info.obj
 0001:000d0ee0       ?release@?$__crt_unique_heap_ptr@DU__crt_internal_free_policy@@@@QAEXXZ 100d1ee0 f i libvcruntimed:std_type_info.obj
 0001:000d0f10       ?release@?$__crt_unique_heap_ptr@XU__crt_internal_free_policy@@@@QAEXXZ 100d1f10 f i libvcruntimed:std_type_info.obj
 0001:000d0f40       ___std_type_info_compare   100d1f40 f   libvcruntimed:std_type_info.obj
 0001:000d0f70       ___std_type_info_destroy_list 100d1f70 f   libvcruntimed:std_type_info.obj
 0001:000d0fc0       ___std_type_info_hash      100d1fc0 f   libvcruntimed:std_type_info.obj
 0001:000d1030       ___std_type_info_name      100d2030 f   libvcruntimed:std_type_info.obj
 0001:000d1280       ??$?RU__vcrt_ptd@@@__crt_internal_free_policy@@QBEXQBU__vcrt_ptd@@@Z 100d2280 f i libvcruntimed:per_thread_data.obj
 0001:000d12b0       ??0?$__crt_unique_heap_ptr@U__vcrt_ptd@@U__crt_internal_free_policy@@@@QAE@QAU__vcrt_ptd@@@Z 100d22b0 f i libvcruntimed:per_thread_data.obj
 0001:000d12f0       ??1?$__crt_unique_heap_ptr@U__vcrt_ptd@@U__crt_internal_free_policy@@@@QAE@XZ 100d22f0 f i libvcruntimed:per_thread_data.obj
 0001:000d1330       ??B?$__crt_unique_heap_ptr@U__vcrt_ptd@@U__crt_internal_free_policy@@@@QBE_NXZ 100d2330 f i libvcruntimed:per_thread_data.obj
 0001:000d1350       ?detach@?$__crt_unique_heap_ptr@U__vcrt_ptd@@U__crt_internal_free_policy@@@@QAEPAU__vcrt_ptd@@XZ 100d2350 f i libvcruntimed:per_thread_data.obj
 0001:000d1380       ?get@?$__crt_unique_heap_ptr@U__vcrt_ptd@@U__crt_internal_free_policy@@@@QBEPAU__vcrt_ptd@@XZ 100d2380 f i libvcruntimed:per_thread_data.obj
 0001:000d13a0       ?is_valid@?$__crt_unique_heap_ptr@U__vcrt_ptd@@U__crt_internal_free_policy@@@@QBE_NXZ 100d23a0 f i libvcruntimed:per_thread_data.obj
 0001:000d13e0       ?release@?$__crt_unique_heap_ptr@U__vcrt_ptd@@U__crt_internal_free_policy@@@@QAEXXZ 100d23e0 f i libvcruntimed:per_thread_data.obj
 0001:000d1440       ___vcrt_freefls@4          100d2440 f   libvcruntimed:per_thread_data.obj
 0001:000d1470       ___vcrt_freeptd            100d2470 f   libvcruntimed:per_thread_data.obj
 0001:000d14e0       ___vcrt_getptd             100d24e0 f   libvcruntimed:per_thread_data.obj
 0001:000d1510       ___vcrt_getptd_noexit      100d2510 f   libvcruntimed:per_thread_data.obj
 0001:000d16c0       ___vcrt_getptd_noinit      100d26c0 f   libvcruntimed:per_thread_data.obj
 0001:000d1730       ___vcrt_initialize_ptd     100d2730 f   libvcruntimed:per_thread_data.obj
 0001:000d1790       ___vcrt_uninitialize_ptd   100d2790 f   libvcruntimed:per_thread_data.obj
 0001:000d2610       ??$TypeMatchHelper@V__FrameHandler3@@@@YAHPBU_s_HandlerType@@PBU_s_CatchableType@@PBU_s_ThrowInfo@@@Z 100d3610 f i libvcruntimed:frame.obj
 0001:000d2720       ??$__InternalCxxFrameHandler@V__FrameHandler3@@@@YA?AW4_EXCEPTION_DISPOSITION@@PAUEHExceptionRecord@@PAUEHRegistrationNode@@PAU_CONTEXT@@PAXPBU_s_FuncInfo@@H1E@Z 100d3720 f i libvcruntimed:frame.obj
 0001:000d2950       ??0HandlerMap@__FrameHandler3@@QAE@PBU_s_TryBlockMapEntry@@II@Z 100d3950 f i libvcruntimed:frame.obj
 0001:000d2980       ??0TryBlockMap@__FrameHandler3@@QAE@PBU_s_FuncInfo@@I@Z 100d3980 f i libvcruntimed:frame.obj
 0001:000d29b0       ??0bad_exception@std@@QAE@ABV01@@Z 100d39b0 f i libvcruntimed:frame.obj
 0001:000d29e0       ??0bad_exception@std@@QAE@XZ 100d39e0 f i libvcruntimed:frame.obj
 0001:000d2a10       ??0iterator@HandlerMap@__FrameHandler3@@QAE@AAV12@I@Z 100d3a10 f i libvcruntimed:frame.obj
 0001:000d2a40       ??1bad_exception@std@@UAE@XZ 100d3a40 f i libvcruntimed:frame.obj
 0001:000d2a60       ??8iterator@HandlerMap@__FrameHandler3@@QBE_NABV012@@Z 100d3a60 f i libvcruntimed:frame.obj
 0001:000d2aa0       ??8type_info@@QBE_NABV0@@Z 100d3aa0 f i libvcruntimed:frame.obj
 0001:000d2af0       ??9iterator@HandlerMap@__FrameHandler3@@QBE_NABV012@@Z 100d3af0 f i libvcruntimed:frame.obj
 0001:000d2b40       ??Diterator@HandlerMap@__FrameHandler3@@QAE?BU_s_HandlerType@@XZ 100d3b40 f i libvcruntimed:frame.obj
 0001:000d2b90       ??Diterator@TryBlockMap@__FrameHandler3@@QAE?BU_s_TryBlockMapEntry@@XZ 100d3b90 f i libvcruntimed:frame.obj
 0001:000d2bf0       ??Eiterator@HandlerMap@__FrameHandler3@@QAEAAV012@XZ 100d3bf0 f i libvcruntimed:frame.obj
 0001:000d2c20       ??Eiterator@TryBlockMap@__FrameHandler3@@QAEAAV012@XZ 100d3c20 f i libvcruntimed:frame.obj
 0001:000d2c50       ??Miterator@TryBlockMap@__FrameHandler3@@QBE_NABV012@@Z 100d3c50 f i libvcruntimed:frame.obj
 0001:000d2c90       ??_Ebad_exception@std@@UAEPAXI@Z 100d3c90 f i libvcruntimed:frame.obj
 0001:000d2c90       ??_Gbad_exception@std@@UAEPAXI@Z 100d3c90 f i libvcruntimed:frame.obj
 0001:000d2cd0       ?BuildCatchObject@__FrameHandler3@@SAXPAUEHExceptionRecord@@PAXPBU_s_HandlerType@@PBU_s_CatchableType@@@Z 100d3cd0 f   libvcruntimed:frame.obj
 0001:000d2d00       ?BuildCatchObjectHelper@__FrameHandler3@@SAHPAUEHExceptionRecord@@PAXPBU_s_HandlerType@@PBU_s_CatchableType@@@Z 100d3d00 f   libvcruntimed:frame.obj
 0001:000d3180       ?FrameUnwindToEmptyState@__FrameHandler3@@SAXPAUEHRegistrationNode@@PAXPBU_s_FuncInfo@@@Z 100d4180 f   libvcruntimed:frame.obj
 0001:000d31b0       ?FrameUnwindToState@__FrameHandler3@@SAXPAUEHRegistrationNode@@PAXPBU_s_FuncInfo@@H@Z 100d41b0 f   libvcruntimed:frame.obj
 0001:000d3390       ?GetMaxState@__FrameHandler3@@SAHPAXPBU_s_FuncInfo@@@Z 100d4390 f i libvcruntimed:frame.obj
 0001:000d34e0       ?TypeMatch@__FrameHandler3@@SAHPBU_s_HandlerType@@PBU_s_CatchableType@@PBU_s_ThrowInfo@@@Z 100d44e0 f   libvcruntimed:frame.obj
 0001:000d3500       ?_CallMemberFunction1@@YGXQAX00@Z 100d4500 f i libvcruntimed:frame.obj
 0001:000d3530       ?_CallMemberFunction2@@YGXQAX00H@Z 100d4530 f i libvcruntimed:frame.obj
 0001:000d3560       ?begin@HandlerMap@__FrameHandler3@@QAE?AViterator@12@XZ 100d4560 f i libvcruntimed:frame.obj
 0001:000d3590       ?end@HandlerMap@__FrameHandler3@@QAE?AViterator@12@XZ 100d4590 f i libvcruntimed:frame.obj
 0001:000d35c0       ?getESTypes@__FrameHandler3@@SAPBU_s_ESTypeList@@PBU_s_FuncInfo@@@Z 100d45c0 f i libvcruntimed:frame.obj
 0001:000d35d0       ?getLastEntry@HandlerMap@__FrameHandler3@@QAEPBU_s_HandlerType@@XZ 100d45d0 f i libvcruntimed:frame.obj
 0001:000d3600       ?getMagicNum@__FrameHandler3@@SAIPBU_s_FuncInfo@@@Z 100d4600 f i libvcruntimed:frame.obj
 0001:000d3620       ?getNumTryBlocks@TryBlockMap@__FrameHandler3@@QAEIXZ 100d4620 f i libvcruntimed:frame.obj
 0001:000d3640       ?isEHs@__FrameHandler3@@SA_NPBU_s_FuncInfo@@@Z 100d4640 f i libvcruntimed:frame.obj
 0001:000d3670       ?isNoExcept@__FrameHandler3@@SA_NPBU_s_FuncInfo@@@Z 100d4670 f i libvcruntimed:frame.obj
 0001:000d36a0       ___BuildCatchObject        100d46a0 f   libvcruntimed:frame.obj
 0001:000d36d0       ___BuildCatchObjectHelper  100d46d0 f   libvcruntimed:frame.obj
 0001:000d3700       ___TypeMatch               100d4700 f   libvcruntimed:frame.obj
 0001:000d3720       ___vcrt_EncodePointer      100d4720 f i libvcruntimed:frame.obj
 0001:000d3740       __CallSettingFrame@12      100d4740 f   libvcruntimed:lowhelpr.obj
 0001:000d3767       __NLG_Return               100d4767     libvcruntimed:lowhelpr.obj
 0001:000d37b0       ___except_validate_context_record 100d47b0 f   libvcruntimed:jbcxrval.obj
 0001:000d3810       ___except_validate_jump_buffer 100d4810 f   libvcruntimed:jbcxrval.obj
 0001:000d3830       ___except_validate_jump_buffer_common 100d4830 f i libvcruntimed:jbcxrval.obj
 0001:000d38a0       _strchr                    100d48a0 f   libvcruntimed:strchr.obj
 0001:000d390e       ___from_strstr_to_strchr   100d490e     libvcruntimed:strchr.obj
 0001:000d3a20       ___vcrt_initialize_locks   100d4a20 f   libvcruntimed:locks.obj
 0001:000d3a90       ___vcrt_lock               100d4a90 f   libvcruntimed:locks.obj
 0001:000d3ab0       ___vcrt_uninitialize_locks 100d4ab0 f   libvcruntimed:locks.obj
 0001:000d3b10       ___vcrt_unlock             100d4b10 f   libvcruntimed:locks.obj
 0001:000d3b30       __local_unwind4            100d4b30 f   libvcruntimed:exsup4.obj
 0001:000d3c04       __seh_longjmp_unwind4@4    100d4c04 f   libvcruntimed:exsup4.obj
 0001:000d3c2c       @_EH4_CallFilterFunc@8     100d4c2c f   libvcruntimed:exsup4.obj
 0001:000d3c44       @_EH4_TransferToHandler@8  100d4c44 f   libvcruntimed:exsup4.obj
 0001:000d3c60       @_EH4_GlobalUnwind2@8      100d4c60 f   libvcruntimed:exsup4.obj
 0001:000d3c7c       @_EH4_LocalUnwind@16       100d4c7c f   libvcruntimed:exsup4.obj
 0001:000d3cf0       ??$?0$00@DName@@QAE@PBDU?$StringLifeSelector@$00@@@Z 100d4cf0 f i libvcruntimed:undname.obj
 0001:000d3d60       ??$?0$00@pcharNode@@QAE@PBDHU?$StringLifeSelector@$00@@@Z 100d4d60 f i libvcruntimed:undname.obj
 0001:000d3da0       ??$?0$01@DName@@QAE@PBDU?$StringLifeSelector@$01@@@Z 100d4da0 f i libvcruntimed:undname.obj
 0001:000d3e10       ??$?0$01@pcharNode@@QAE@PBDHU?$StringLifeSelector@$01@@@Z 100d4e10 f i libvcruntimed:undname.obj
 0001:000d3eb0       ??$?0$0A@@DName@@QAE@PBDU?$StringLifeSelector@$0A@@@@Z 100d4eb0 f i libvcruntimed:undname.obj
 0001:000d3f20       ??$?0$0A@@pcharNode@@QAE@PBDHU?$StringLifeSelector@$0A@@@@Z 100d4f20 f i libvcruntimed:undname.obj
 0001:000d3fc0       ??$?0_K$0A@@?$optional@_K@std@@QAE@$$QA_K@Z 100d4fc0 f i libvcruntimed:undname.obj
 0001:000d4010       ??$?0_K@?$_Optional_construct_base@_K@std@@QAE@Uin_place_t@1@$$QA_K@Z 100d5010 f i libvcruntimed:undname.obj
 0001:000d4040       ??$?0_K@?$_Optional_destruct_base@_K$00@std@@QAE@Uin_place_t@1@$$QA_K@Z 100d5040 f i libvcruntimed:undname.obj
 0001:000d4080       ??$append@VDNameNode@@@DName@@AAEXPBVDNameNode@@@Z 100d5080 f i libvcruntimed:undname.obj
 0001:000d4130       ??$append@VDNameStatusNode@@@DName@@AAEXPBVDNameStatusNode@@@Z 100d5130 f i libvcruntimed:undname.obj
 0001:000d41e0       ??$append@VcharNode@@@DName@@AAEXPBVcharNode@@@Z 100d51e0 f i libvcruntimed:undname.obj
 0001:000d4290       ??$append@VpDNameNode@@@DName@@AAEXPBVpDNameNode@@@Z 100d5290 f i libvcruntimed:undname.obj
 0001:000d4340       ??$append@VpcharNode@@@DName@@AAEXPBVpcharNode@@@Z 100d5340 f i libvcruntimed:undname.obj
 0001:000d43f0       ??$doPchar@$00@DName@@AAEXPBDH@Z 100d53f0 f i libvcruntimed:undname.obj
 0001:000d4540       ??$doPchar@$01@DName@@AAEXPBDH@Z 100d5540 f i libvcruntimed:undname.obj
 0001:000d4690       ??$doPchar@$0A@@DName@@AAEXPBDH@Z 100d5690 f i libvcruntimed:undname.obj
 0001:000d47e0       ??$forward@_K@std@@YA$$QA_KAA_K@Z 100d57e0 f i libvcruntimed:undname.obj
 0001:000d47f0       ??$size@D$04@std@@YAIAAY04$$CBD@Z 100d57f0 f i libvcruntimed:undname.obj
 0001:000d4800       ??$size@D$0EB@@std@@YAIAAY0EB@$$CBD@Z 100d5800 f i libvcruntimed:undname.obj
 0001:000d4810       ??0?$_Optional_construct_base@_K@std@@QAE@XZ 100d5810 f i libvcruntimed:undname.obj
 0001:000d4830       ??0?$_Optional_destruct_base@_K$00@std@@QAE@XZ 100d5830 f i libvcruntimed:undname.obj
 0001:000d4860       ??0?$optional@_K@std@@QAE@XZ 100d5860 f i libvcruntimed:undname.obj
 0001:000d4890       ??0Block@_HeapManager@@QAE@XZ 100d5890 f i libvcruntimed:undname.obj
 0001:000d48b0       ??0DName@@QAE@AAPBDD@Z     100d58b0 f   libvcruntimed:undname.obj
 0001:000d4a80       ??0DName@@QAE@ABUStringLiteral@@@Z 100d5a80 f   libvcruntimed:undname.obj
 0001:000d4ae0       ??0DName@@QAE@ABV0@@Z      100d5ae0 f i libvcruntimed:undname.obj
 0001:000d4b10       ??0DName@@QAE@D@Z          100d5b10 f   libvcruntimed:undname.obj
 0001:000d4b50       ??0DName@@QAE@PAV0@@Z      100d5b50 f   libvcruntimed:undname.obj
 0001:000d4c30       ??0DName@@QAE@W4DNameStatus@@@Z 100d5c30 f   libvcruntimed:undname.obj
 0001:000d4cf0       ??0DName@@QAE@XZ           100d5cf0 f i libvcruntimed:undname.obj
 0001:000d4d20       ??0DName@@QAE@_J@Z         100d5d20 f   libvcruntimed:undname.obj
 0001:000d4e40       ??0DName@@QAE@_K@Z         100d5e40 f   libvcruntimed:undname.obj
 0001:000d4f10       ??0DNameNode@@IAE@XZ       100d5f10 f i libvcruntimed:undname.obj
 0001:000d4f30       ??0Replicator@@QAE@XZ      100d5f30 f i libvcruntimed:undname.obj
 0001:000d4f80       ??0UnDecorator@@QAE@PBDP6APADJ@ZK@Z 100d5f80 f i libvcruntimed:undname.obj
 0001:000d5020       ??0charNode@@QAE@D@Z       100d6020 f i libvcruntimed:undname.obj
 0001:000d5060       ??0pDNameNode@@QAE@PAVDName@@@Z 100d6060 f   libvcruntimed:undname.obj
 0001:000d50e0       ??0pairNode@@QAE@PBVDNameNode@@0@Z 100d60e0 f i libvcruntimed:undname.obj
 0001:000d5150       ??2@YAPAXIAAV_HeapManager@@H@Z 100d6150 f   libvcruntimed:undname.obj
 0001:000d51a0       ??4DName@@QAEAAV0@ABUStringLiteral@@@Z 100d61a0 f   libvcruntimed:undname.obj
 0001:000d51f0       ??4DName@@QAEAAV0@ABV0@@Z  100d61f0 f   libvcruntimed:undname.obj
 0001:000d5220       ??4DName@@QAEAAV0@D@Z      100d6220 f i libvcruntimed:undname.obj
 0001:000d5260       ??4DName@@QAEAAV0@PAV0@@Z  100d6260 f   libvcruntimed:undname.obj
 0001:000d5320       ??4DName@@QAEAAV0@W4DNameStatus@@@Z 100d6320 f   libvcruntimed:undname.obj
 0001:000d53c0       ??AReplicator@@QBE?AVDName@@H@Z 100d63c0 f   libvcruntimed:undname.obj
 0001:000d5440       ??B?$optional@_K@std@@QBE_NXZ 100d6440 f i libvcruntimed:undname.obj
 0001:000d5460       ??D?$optional@_K@std@@QGAEAA_KXZ 100d6460 f i libvcruntimed:undname.obj
 0001:000d5480       ??H@YA?AVDName@@ABUStringLiteral@@ABV0@@Z 100d6480 f i libvcruntimed:undname.obj
 0001:000d54c0       ??H@YA?AVDName@@DABV0@@Z   100d64c0 f i libvcruntimed:undname.obj
 0001:000d5500       ??H@YA?AVDName@@W4DNameStatus@@ABV0@@Z 100d6500 f i libvcruntimed:undname.obj
 0001:000d5540       ??HDName@@QBE?AV0@ABUStringLiteral@@@Z 100d6540 f   libvcruntimed:undname.obj
 0001:000d5590       ??HDName@@QBE?AV0@ABV0@@Z  100d6590 f   libvcruntimed:undname.obj
 0001:000d55e0       ??HDName@@QBE?AV0@D@Z      100d65e0 f   libvcruntimed:undname.obj
 0001:000d5630       ??HDName@@QBE?AV0@PAV0@@Z  100d6630 f   libvcruntimed:undname.obj
 0001:000d5680       ??HDName@@QBE?AV0@W4DNameStatus@@@Z 100d6680 f   libvcruntimed:undname.obj
 0001:000d56d0       ??HStringLiteral@@QBE?AU0@H@Z 100d66d0 f i libvcruntimed:undname.obj
 0001:000d5710       ??YDName@@QAEAAV0@ABUStringLiteral@@@Z 100d6710 f   libvcruntimed:undname.obj
 0001:000d57d0       ??YDName@@QAEAAV0@ABV0@@Z  100d67d0 f   libvcruntimed:undname.obj
 0001:000d5890       ??YDName@@QAEAAV0@D@Z      100d6890 f   libvcruntimed:undname.obj
 0001:000d5930       ??YDName@@QAEAAV0@PAV0@@Z  100d6930 f   libvcruntimed:undname.obj
 0001:000d5a10       ??YDName@@QAEAAV0@W4DNameStatus@@@Z 100d6a10 f   libvcruntimed:undname.obj
 0001:000d5a90       ??YReplicator@@QAEAAV0@ABVDName@@@Z 100d6a90 f   libvcruntimed:undname.obj
 0001:000d5b40       ??_5DName@@QAEAAV0@ABV0@@Z 100d6b40 f   libvcruntimed:undname.obj
 0001:000d5bb0       ??__K_l@@YA?AUStringLiteral@@PBDI@Z 100d6bb0 f i libvcruntimed:undname.obj
 0001:000d5be0       ?Constructor@_HeapManager@@QAEXP6APAXI@ZP6AXPAX@Z@Z 100d6be0 f i libvcruntimed:undname.obj
 0001:000d5c30       ?Destructor@_HeapManager@@QAEXXZ 100d6c30 f i libvcruntimed:undname.obj
 0001:000d5cd0       ?UScore@UnDecorator@@SA?AUStringLiteral@@W4Tokens@@@Z 100d6cd0 f   libvcruntimed:undname.obj
 0001:000d5d30       ?composeDeclaration@UnDecorator@@CA?AVDName@@ABV2@@Z 100d6d30 f i libvcruntimed:undname.obj
 0001:000d8480       ?dbGetString@DName@@QBEPADXZ 100d9480 f   libvcruntimed:undname.obj
 0001:000d84b0       ?doAccessSpecifiers@UnDecorator@@SAHXZ 100d94b0 f i libvcruntimed:undname.obj
 0001:000d84e0       ?doAllocationLanguage@UnDecorator@@SAHXZ 100d94e0 f i libvcruntimed:undname.obj
 0001:000d8510       ?doAllocationModel@UnDecorator@@SAHXZ 100d9510 f i libvcruntimed:undname.obj
 0001:000d8540       ?doEcsu@UnDecorator@@SAHXZ 100d9540 f i libvcruntimed:undname.obj
 0001:000d8570       ?doEllipsis@UnDecorator@@SAHXZ 100d9570 f i libvcruntimed:undname.obj
 0001:000d85a0       ?doFunctionReturns@UnDecorator@@SAHXZ 100d95a0 f i libvcruntimed:undname.obj
 0001:000d85d0       ?doMSKeywords@UnDecorator@@SAHXZ 100d95d0 f i libvcruntimed:undname.obj
 0001:000d8600       ?doMemberTypes@UnDecorator@@SAHXZ 100d9600 f i libvcruntimed:undname.obj
 0001:000d8630       ?doNameOnly@UnDecorator@@SAHXZ 100d9630 f i libvcruntimed:undname.obj
 0001:000d8650       ?doNoIdentCharCheck@UnDecorator@@SAHXZ 100d9650 f i libvcruntimed:undname.obj
 0001:000d8670       ?doPchar@DName@@AAEXD@Z    100d9670 f   libvcruntimed:undname.obj
 0001:000d8700       ?doPtr64@UnDecorator@@SAHXZ 100d9700 f i libvcruntimed:undname.obj
 0001:000d8730       ?doRestrictionSpec@UnDecorator@@SAHXZ 100d9730 f i libvcruntimed:undname.obj
 0001:000d8760       ?doThisTypes@UnDecorator@@SAHXZ 100d9760 f i libvcruntimed:undname.obj
 0001:000d87a0       ?doThrowTypes@UnDecorator@@SAHXZ 100d97a0 f i libvcruntimed:undname.obj
 0001:000d87d0       ?doTypeOnly@UnDecorator@@SAHXZ 100d97d0 f i libvcruntimed:undname.obj
 0001:000d87f0       ?doUnderScore@UnDecorator@@SAHXZ 100d97f0 f i libvcruntimed:undname.obj
 0001:000d8820       ?getArgumentList@UnDecorator@@CA?AVDName@@XZ 100d9820 f   libvcruntimed:undname.obj
 0001:000d89c0       ?getArgumentTypes@UnDecorator@@CA?AVDName@@XZ 100d99c0 f   libvcruntimed:undname.obj
 0001:000d8c50       ?getArrayObject@UnDecorator@@CA?AVDName@@XZ 100d9c50 f   libvcruntimed:undname.obj
 0001:000d8d70       ?getArrayType@UnDecorator@@CA?AVDName@@ABV2@@Z 100d9d70 f i libvcruntimed:undname.obj
 0001:000d90b0       ?getBasedType@UnDecorator@@CA?AVDName@@XZ 100da0b0 f   libvcruntimed:undname.obj
 0001:000d91e0       ?getBasicDataType@UnDecorator@@CA?AVDName@@ABV2@@Z 100da1e0 f   libvcruntimed:undname.obj
 0001:000d9d30       ?getCHPEName@UnDecorator@@QAEPADPADH@Z 100dad30 f i libvcruntimed:undname.obj
 0001:000d9ef0       ?getCallIndex@UnDecorator@@CA?AVDName@@XZ 100daef0 f i libvcruntimed:undname.obj
 0001:000d9f10       ?getCallingConvention@UnDecorator@@CA?AVDName@@XZ 100daf10 f   libvcruntimed:undname.obj
 0001:000da1d0       ?getDataIndirectType@UnDecorator@@CA?AVDName@@ABV2@W4IndirectionKind@@0H@Z 100db1d0 f   libvcruntimed:undname.obj
 0001:000dad30       ?getDataIndirectType@UnDecorator@@CA?AVDName@@XZ 100dbd30 f i libvcruntimed:undname.obj
 0001:000dad80       ?getDataType@UnDecorator@@CA?AVDName@@PAV2@@Z 100dbd80 f   libvcruntimed:undname.obj
 0001:000daf10       ?getDecoratedName@UnDecorator@@CA?AVDName@@XZ 100dbf10 f   libvcruntimed:undname.obj
 0001:000db450       ?getDimension@UnDecorator@@CA?AVDName@@_N@Z 100dc450 f   libvcruntimed:undname.obj
 0001:000db750       ?getDispatchTarget@UnDecorator@@CA?AVDName@@XZ 100dc750 f   libvcruntimed:undname.obj
 0001:000db820       ?getDisplacement@UnDecorator@@CA?AVDName@@XZ 100dc820 f i libvcruntimed:undname.obj
 0001:000db840       ?getECSUDataType@UnDecorator@@CA?AVDName@@XZ 100dc840 f   libvcruntimed:undname.obj
 0001:000dbb30       ?getECSUName@UnDecorator@@CA?AVDName@@XZ 100dcb30 f i libvcruntimed:undname.obj
 0001:000dbb50       ?getEnumType@UnDecorator@@CA?AVDName@@XZ 100dcb50 f i libvcruntimed:undname.obj
 0001:000dbd70       ?getExtendedDataIndirectType@UnDecorator@@CA?AVDName@@AAW4IndirectionKind@@AA_NH@Z 100dcd70 f   libvcruntimed:undname.obj
 0001:000dc050       ?getExternalDataType@UnDecorator@@CA?AVDName@@ABV2@@Z 100dd050 f i libvcruntimed:undname.obj
 0001:000dc110       ?getFloatingPoint@UnDecorator@@CA?AVDName@@H@Z 100dd110 f   libvcruntimed:undname.obj
 0001:000dc330       ?getFunctionIndirectType@UnDecorator@@CA?AVDName@@ABV2@@Z 100dd330 f   libvcruntimed:undname.obj
 0001:000dc950       ?getGuardNumber@UnDecorator@@CA?AVDName@@XZ 100dd950 f i libvcruntimed:undname.obj
 0001:000dc970       ?getLastChar@DName@@QBEDXZ 100dd970 f i libvcruntimed:undname.obj
 0001:000dc9c0       ?getLastChar@DNameStatusNode@@UBEDXZ 100dd9c0 f i libvcruntimed:undname.obj
 0001:000dca00       ?getLastChar@charNode@@UBEDXZ 100dda00 f i libvcruntimed:undname.obj
 0001:000dca20       ?getLastChar@pDNameNode@@UBEDXZ 100dda20 f i libvcruntimed:undname.obj
 0001:000dca60       ?getLastChar@pairNode@@UBEDXZ 100dda60 f i libvcruntimed:undname.obj
 0001:000dcae0       ?getLastChar@pcharNode@@UBEDXZ 100ddae0 f i libvcruntimed:undname.obj
 0001:000dcb20       ?getLexicalFrame@UnDecorator@@CA?AVDName@@XZ 100ddb20 f i libvcruntimed:undname.obj
 0001:000dcb70       ?getMemoryWithBuffer@_HeapManager@@QAEPAXI@Z 100ddb70 f   libvcruntimed:undname.obj
 0001:000dcc90       ?getMemoryWithoutBuffer@_HeapManager@@QAEPAXI@Z 100ddc90 f   libvcruntimed:undname.obj
 0001:000dcce0       ?getNoexcept@UnDecorator@@CA?AVDName@@XZ 100ddce0 f   libvcruntimed:undname.obj
 0001:000dcd80       ?getNumberOfDimensions@UnDecorator@@CAHXZ 100ddd80 f   libvcruntimed:undname.obj
 0001:000dcec0       ?getOperatorName@UnDecorator@@CA?AVDName@@_NPA_N@Z 100ddec0 f i libvcruntimed:undname.obj
 0001:000ddc70       ?getPointerType@UnDecorator@@CA?AVDName@@ABV2@0@Z 100dec70 f i libvcruntimed:undname.obj
 0001:000ddca0       ?getPointerTypeArray@UnDecorator@@CA?AVDName@@ABV2@0@Z 100deca0 f i libvcruntimed:undname.obj
 0001:000ddcd0       ?getPrimaryDataType@UnDecorator@@CA?AVDName@@ABV2@@Z 100decd0 f   libvcruntimed:undname.obj
 0001:000de250       ?getPtrRefDataType@UnDecorator@@CA?AVDName@@ABV2@H@Z 100df250 f   libvcruntimed:undname.obj
 0001:000de5a0       ?getPtrRefType@UnDecorator@@CA?AVDName@@ABV2@0W4IndirectionKind@@@Z 100df5a0 f   libvcruntimed:undname.obj
 0001:000de780       ?getReferenceType@UnDecorator@@CA?AVDName@@ABV2@0W4IndirectionKind@@@Z 100df780 f i libvcruntimed:undname.obj
 0001:000de7b0       ?getRestrictionSpec@UnDecorator@@CA?AVDName@@XZ 100df7b0 f   libvcruntimed:undname.obj
 0001:000de9e0       ?getReturnType@UnDecorator@@CA?AVDName@@PAV2@@Z 100df9e0 f   libvcruntimed:undname.obj
 0001:000dea40       ?getScope@UnDecorator@@CA?AVDName@@XZ 100dfa40 f   libvcruntimed:undname.obj
 0001:000df130       ?getScopedName@UnDecorator@@CA?AVDName@@XZ 100e0130 f   libvcruntimed:undname.obj
 0001:000df2d0       ?getSignedDimension@UnDecorator@@CA?AVDName@@XZ 100e02d0 f   libvcruntimed:undname.obj
 0001:000df370       ?getStorageConvention@UnDecorator@@CA?AVDName@@XZ 100e0370 f i libvcruntimed:undname.obj
 0001:000df390       ?getString@DName@@QBEPADPAD0@Z 100e0390 f i libvcruntimed:undname.obj
 0001:000df400       ?getString@DName@@QBEPADPADH@Z 100e0400 f i libvcruntimed:undname.obj
 0001:000df4b0       ?getString@DNameStatusNode@@UBEPADPAD0@Z 100e04b0 f i libvcruntimed:undname.obj
 0001:000df4f0       ?getString@charNode@@UBEPADPAD0@Z 100e04f0 f i libvcruntimed:undname.obj
 0001:000df530       ?getString@pDNameNode@@UBEPADPAD0@Z 100e0530 f i libvcruntimed:undname.obj
 0001:000df580       ?getString@pairNode@@UBEPADPAD0@Z 100e0580 f i libvcruntimed:undname.obj
 0001:000df630       ?getString@pcharNode@@UBEPADPAD0@Z 100e0630 f i libvcruntimed:undname.obj
 0001:000df670       ?getStringEncoding@UnDecorator@@CA?AVDName@@W4PrefixKind@@H@Z 100e0670 f   libvcruntimed:undname.obj
 0001:000df7c0       ?getStringHelper@@YAPADPADPBD1H@Z 100e07c0 f i libvcruntimed:undname.obj
 0001:000df810       ?getStringObject@UnDecorator@@CA?AVDName@@XZ 100e0810 f   libvcruntimed:undname.obj
 0001:000df8e0       ?getSymbolName@UnDecorator@@CA?AVDName@@XZ 100e08e0 f i libvcruntimed:undname.obj
 0001:000df990       ?getTemplateArgumentList@UnDecorator@@CA?AVDName@@XZ 100e0990 f   libvcruntimed:undname.obj
 0001:000dfd30       ?getTemplateName@UnDecorator@@CA?AVDName@@_N@Z 100e0d30 f   libvcruntimed:undname.obj
 0001:000dff60       ?getTemplateNonTypeArgument@UnDecorator@@CA?AVDName@@XZ 100e0f60 f   libvcruntimed:undname.obj
 0001:000e05d0       ?getTemplateTypeArgument@UnDecorator@@CA?AVDName@@XZ 100e15d0 f   libvcruntimed:undname.obj
 0001:000e07e0       ?getThisType@UnDecorator@@CA?AVDName@@XZ 100e17e0 f i libvcruntimed:undname.obj
 0001:000e0830       ?getThrowTypes@UnDecorator@@CA?AVDName@@XZ 100e1830 f   libvcruntimed:undname.obj
 0001:000e0880       ?getTypeEncoding@UnDecorator@@CAHXZ 100e1880 f i libvcruntimed:undname.obj
 0001:000e15f0       ?getUndecoratedName@UnDecorator@@QAEPADPADH@Z 100e25f0 f i libvcruntimed:undname.obj
 0001:000e17a0       ?getVCallThunkType@UnDecorator@@CA?AVDName@@XZ 100e27a0 f i libvcruntimed:undname.obj
 0001:000e1830       ?getValue@UnDecorator@@CA?AV?$optional@_K@std@@XZ 100e2830 f   libvcruntimed:undname.obj
 0001:000e1920       ?getValueObject@UnDecorator@@CA?AVDName@@XZ 100e2920 f   libvcruntimed:undname.obj
 0001:000e1ae0       ?getVbTableType@UnDecorator@@CA?AVDName@@ABV2@@Z 100e2ae0 f i libvcruntimed:undname.obj
 0001:000e1b00       ?getVdispMapType@UnDecorator@@CA?AVDName@@ABV2@@Z 100e2b00 f i libvcruntimed:undname.obj
 0001:000e1bb0       ?getVfTableType@UnDecorator@@CA?AVDName@@ABV2@@Z 100e2bb0 f i libvcruntimed:undname.obj
 0001:000e1e30       ?getZName@UnDecorator@@CA?AVDName@@_N0@Z 100e2e30 f   libvcruntimed:undname.obj
 0001:000e2240       ?haveTemplateParameters@UnDecorator@@SAHXZ 100e3240 f i libvcruntimed:undname.obj
 0001:000e2260       ?isArray@DName@@QBEHXZ     100e3260 f i libvcruntimed:undname.obj
 0001:000e2280       ?isComArray@DName@@QBEHXZ  100e3280 f i libvcruntimed:undname.obj
 0001:000e22a0       ?isEmpty@DName@@QBEHXZ     100e32a0 f i libvcruntimed:undname.obj
 0001:000e22e0       ?isFull@Replicator@@QBEHXZ 100e32e0 f i libvcruntimed:undname.obj
 0001:000e2320       ?isNoTE@DName@@QBEHXZ      100e3320 f i libvcruntimed:undname.obj
 0001:000e2340       ?isPinPtr@DName@@QBEHXZ    100e3340 f i libvcruntimed:undname.obj
 0001:000e2360       ?isPtrRef@DName@@QBEHXZ    100e3360 f i libvcruntimed:undname.obj
 0001:000e2380       ?isUDC@DName@@QBEHXZ       100e3380 f i libvcruntimed:undname.obj
 0001:000e23d0       ?isUDTThunk@DName@@QBEHXZ  100e33d0 f i libvcruntimed:undname.obj
 0001:000e2420       ?isVCallThunk@DName@@QBEHXZ 100e3420 f i libvcruntimed:undname.obj
 0001:000e2440       ?isValid@DName@@QBEHXZ     100e3440 f i libvcruntimed:undname.obj
 0001:000e2480       ?length@DName@@QBEHXZ      100e3480 f i libvcruntimed:undname.obj
 0001:000e24d0       ?length@DNameStatusNode@@UBEHXZ 100e34d0 f i libvcruntimed:undname.obj
 0001:000e24f0       ?length@charNode@@UBEHXZ   100e34f0 f i libvcruntimed:undname.obj
 0001:000e2510       ?length@pDNameNode@@UBEHXZ 100e3510 f i libvcruntimed:undname.obj
 0001:000e2550       ?length@pairNode@@UBEHXZ   100e3550 f i libvcruntimed:undname.obj
 0001:000e25e0       ?length@pcharNode@@UBEHXZ  100e35e0 f i libvcruntimed:undname.obj
 0001:000e2600       ?make@DNameStatusNode@@SAPBV1@W4DNameStatus@@@Z 100e3600 f i libvcruntimed:undname.obj
 0001:000e2640       ?parseDecoratedName@UnDecorator@@CA?AVDName@@XZ 100e3640 f   libvcruntimed:undname.obj
 0001:000e2830       ?raw_length@DNameStatusNode@@UBEHXZ 100e3830 f i libvcruntimed:undname.obj
 0001:000e2850       ?raw_length@charNode@@UBEHXZ 100e3850 f i libvcruntimed:undname.obj
 0001:000e2870       ?raw_length@pDNameNode@@UBEHXZ 100e3870 f i libvcruntimed:undname.obj
 0001:000e2890       ?raw_length@pairNode@@UBEHXZ 100e3890 f i libvcruntimed:undname.obj
 0001:000e28b0       ?raw_length@pcharNode@@UBEHXZ 100e38b0 f i libvcruntimed:undname.obj
 0001:000e28d0       ?setIsArray@DName@@QAEXXZ  100e38d0 f i libvcruntimed:undname.obj
 0001:000e2900       ?setIsComArray@DName@@QAEXXZ 100e3900 f i libvcruntimed:undname.obj
 0001:000e2930       ?setIsNoTE@DName@@QAEXXZ   100e3930 f i libvcruntimed:undname.obj
 0001:000e2960       ?setIsPinPtr@DName@@QAEXXZ 100e3960 f i libvcruntimed:undname.obj
 0001:000e2990       ?setIsUDC@DName@@QAEXXZ    100e3990 f i libvcruntimed:undname.obj
 0001:000e29d0       ?setIsVCallThunk@DName@@QAEXXZ 100e39d0 f i libvcruntimed:undname.obj
 0001:000e2a00       ?setPtrRef@DName@@QAEAAV1@XZ 100e3a00 f i libvcruntimed:undname.obj
 0001:000e2a30       ?status@DName@@QBE?AW4DNameStatus@@XZ 100e3a30 f i libvcruntimed:undname.obj
 0001:000e2b50       ___unDName                 100e3b50 f   libvcruntimed:undname.obj
 0001:000e2b90       ___unDNameEx               100e3b90 f   libvcruntimed:undname.obj
 0001:000e2c90       __vsprintf_s_l             100e3c90 f i libvcruntimed:undname.obj
 0001:000e2cf0       _sprintf_s                 100e3cf0 f i libvcruntimed:undname.obj
 0001:000e2d40       _unDNameGenerateCHPE       100e3d40 f   libvcruntimed:undname.obj
 0001:000e2dc0       ??$__crt_interlocked_exchange_pointer@UHINSTANCE__@@PAU1@@@YAPAUHINSTANCE__@@PDSAU0@QAU0@@Z 100e3dc0 f i libvcruntimed:winapi_downlevel.obj
 0001:000e2dd0       ??$__crt_interlocked_exchange_pointer@UHINSTANCE__@@PAX@@YAPAUHINSTANCE__@@PDSAU0@QAX@Z 100e3dd0 f i libvcruntimed:winapi_downlevel.obj
 0001:000e2de0       ??$__crt_interlocked_exchange_pointer@XPAX@@YAPAXPDSAXQAX@Z 100e3de0 f i libvcruntimed:winapi_downlevel.obj
 0001:000e2df0       ??$__crt_interlocked_read_pointer@UHINSTANCE__@@@@YAPAUHINSTANCE__@@PDSAU0@@Z 100e3df0 f i libvcruntimed:winapi_downlevel.obj
 0001:000e2e10       ??$__crt_interlocked_read_pointer@X@@YAPAXPDSAX@Z 100e3e10 f i libvcruntimed:winapi_downlevel.obj
 0001:000e32e0       ___vcrt_FlsAlloc           100e42e0 f   libvcruntimed:winapi_downlevel.obj
 0001:000e3330       ___vcrt_FlsFree            100e4330 f   libvcruntimed:winapi_downlevel.obj
 0001:000e3380       ___vcrt_FlsGetValue        100e4380 f   libvcruntimed:winapi_downlevel.obj
 0001:000e33d0       ___vcrt_FlsSetValue        100e43d0 f   libvcruntimed:winapi_downlevel.obj
 0001:000e3430       ___vcrt_InitializeCriticalSectionEx 100e4430 f   libvcruntimed:winapi_downlevel.obj
 0001:000e34c0       __get_unexpected           100e44c0 f   libvcruntimed:unexpected.obj
 0001:000e34e0       _set_unexpected            100e44e0 f   libvcruntimed:unexpected.obj
 0001:000e3520       _unexpected                100e4520 f   libvcruntimed:unexpected.obj
 0001:000e3560       _memmove                   100e4560 f   libvcruntimed:memmove.obj
 0001:000e3c40       ?GetCurrentState@__FrameHandler3@@SAHPAUEHRegistrationNode@@PAXPBU_s_FuncInfo@@@Z 100e4c40 f   libvcruntimed:ehstate.obj
 0001:000e3c80       ?SetState@__FrameHandler3@@SAXPAUEHRegistrationNode@@PBU_s_FuncInfo@@H@Z 100e4c80 f   libvcruntimed:ehstate.obj
 0001:000e3ca0       __global_unwind2           100e4ca0 f   libvcruntimed:exsup.obj
 0001:000e3d06       __local_unwind2            100e4d06 f   libvcruntimed:exsup.obj
 0001:000e3d8a       __abnormal_termination     100e4d8a f   libvcruntimed:exsup.obj
 0001:000e3db0       __NLG_Notify1              100e4db0 f   libvcruntimed:exsup.obj
 0001:000e3dbc       __NLG_Notify               100e4dbc f   libvcruntimed:exsup.obj
 0001:000e3dd3       __NLG_Dispatch             100e4dd3     libvcruntimed:exsup.obj
 0001:000e3dd3       __NLG_Dispatch2            100e4dd3     libvcruntimed:exsup.obj
 0001:000e3ddb       __NLG_Call                 100e4ddb f   libvcruntimed:exsup.obj
 0001:000e3ddd       __NLG_Return2              100e4ddd     libvcruntimed:exsup.obj
 0001:000e3e30       _atan2                     100e4e30 f   libucrtd:atan2.obj
 0001:000e3e40       _rand                      100e4e40 f   libucrtd:rand.obj
 0001:000e3e90       _srand                     100e4e90 f   libucrtd:rand.obj
 0001:000e3eb0       _sqrt                      100e4eb0 f   libucrtd:sqrt.obj
 0001:000e3ed0       _strcpy                    100e4ed0 f   libucrtd:strcat.obj
 0001:000e3ee0       _strcat                    100e4ee0 f   libucrtd:strcat.obj
 0001:000e4010       _strncpy                   100e5010 f   libucrtd:strncpy.obj
 0001:000e4180       ??$?0ABV?$stream_output_adapter@D@__crt_stdio_output@@AB_KABQBDABQAU__crt_locale_pointers@@ABQAD@?$format_validation_base@DV?$stream_output_adapter@D@__crt_stdio_output@@@__crt_stdio_output@@IAE@ABV?$stream_output_adapter@D@1@AB_KABQBDABQAU__crt_locale_pointers@@ABQAD@Z 100e5180 f i libucrtd:output.obj
 0001:000e41c0       ??$?0ABV?$stream_output_adapter@D@__crt_stdio_output@@AB_KABQBDABQAU__crt_locale_pointers@@ABQAD@?$positional_parameter_base@DV?$stream_output_adapter@D@__crt_stdio_output@@@__crt_stdio_output@@IAE@ABV?$stream_output_adapter@D@1@AB_KABQBDABQAU__crt_locale_pointers@@ABQAD@Z 100e51c0 f i libucrtd:output.obj
 0001:000e4250       ??$?0ABV?$stream_output_adapter@D@__crt_stdio_output@@AB_KABQBDABQAU__crt_locale_pointers@@ABQAD@?$standard_base@DV?$stream_output_adapter@D@__crt_stdio_output@@@__crt_stdio_output@@IAE@ABV?$stream_output_adapter@D@1@AB_KABQBDABQAU__crt_locale_pointers@@ABQAD@Z 100e5250 f i libucrtd:output.obj
 0001:000e42b0       ??$?0ABV?$stream_output_adapter@_W@__crt_stdio_output@@AB_KABQB_WABQAU__crt_locale_pointers@@ABQAD@?$format_validation_base@_WV?$stream_output_adapter@_W@__crt_stdio_output@@@__crt_stdio_output@@IAE@ABV?$stream_output_adapter@_W@1@AB_KABQB_WABQAU__crt_locale_pointers@@ABQAD@Z 100e52b0 f i libucrtd:output.obj
 0001:000e42f0       ??$?0ABV?$stream_output_adapter@_W@__crt_stdio_output@@AB_KABQB_WABQAU__crt_locale_pointers@@ABQAD@?$positional_parameter_base@_WV?$stream_output_adapter@_W@__crt_stdio_output@@@__crt_stdio_output@@IAE@ABV?$stream_output_adapter@_W@1@AB_KABQB_WABQAU__crt_locale_pointers@@ABQAD@Z 100e52f0 f i libucrtd:output.obj
 0001:000e4380       ??$?0ABV?$stream_output_adapter@_W@__crt_stdio_output@@AB_KABQB_WABQAU__crt_locale_pointers@@ABQAD@?$standard_base@_WV?$stream_output_adapter@_W@__crt_stdio_output@@@__crt_stdio_output@@IAE@ABV?$stream_output_adapter@_W@1@AB_KABQB_WABQAU__crt_locale_pointers@@ABQAD@Z 100e5380 f i libucrtd:output.obj
 0001:000e43e0       ??$?0ABV?$string_output_adapter@D@__crt_stdio_output@@AB_KABQBDABQAU__crt_locale_pointers@@ABQAD@?$format_validation_base@DV?$string_output_adapter@D@__crt_stdio_output@@@__crt_stdio_output@@IAE@ABV?$string_output_adapter@D@1@AB_KABQBDABQAU__crt_locale_pointers@@ABQAD@Z 100e53e0 f i libucrtd:output.obj
 0001:000e4420       ??$?0ABV?$string_output_adapter@D@__crt_stdio_output@@AB_KABQBDABQAU__crt_locale_pointers@@ABQAD@?$positional_parameter_base@DV?$string_output_adapter@D@__crt_stdio_output@@@__crt_stdio_output@@IAE@ABV?$string_output_adapter@D@1@AB_KABQBDABQAU__crt_locale_pointers@@ABQAD@Z 100e5420 f i libucrtd:output.obj
 0001:000e44b0       ??$?0ABV?$string_output_adapter@D@__crt_stdio_output@@AB_KABQBDABQAU__crt_locale_pointers@@ABQAD@?$standard_base@DV?$string_output_adapter@D@__crt_stdio_output@@@__crt_stdio_output@@IAE@ABV?$string_output_adapter@D@1@AB_KABQBDABQAU__crt_locale_pointers@@ABQAD@Z 100e54b0 f i libucrtd:output.obj
 0001:000e4510       ??$?0ABV?$string_output_adapter@_W@__crt_stdio_output@@AB_KABQB_WABQAU__crt_locale_pointers@@ABQAD@?$format_validation_base@_WV?$string_output_adapter@_W@__crt_stdio_output@@@__crt_stdio_output@@IAE@ABV?$string_output_adapter@_W@1@AB_KABQB_WABQAU__crt_locale_pointers@@ABQAD@Z 100e5510 f i libucrtd:output.obj
 0001:000e4550       ??$?0ABV?$string_output_adapter@_W@__crt_stdio_output@@AB_KABQB_WABQAU__crt_locale_pointers@@ABQAD@?$positional_parameter_base@_WV?$string_output_adapter@_W@__crt_stdio_output@@@__crt_stdio_output@@IAE@ABV?$string_output_adapter@_W@1@AB_KABQB_WABQAU__crt_locale_pointers@@ABQAD@Z 100e5550 f i libucrtd:output.obj
 0001:000e45e0       ??$?0ABV?$string_output_adapter@_W@__crt_stdio_output@@AB_KABQB_WABQAU__crt_locale_pointers@@ABQAD@?$standard_base@_WV?$string_output_adapter@_W@__crt_stdio_output@@@__crt_stdio_output@@IAE@ABV?$string_output_adapter@_W@1@AB_KABQB_WABQAU__crt_locale_pointers@@ABQAD@Z 100e55e0 f i libucrtd:output.obj
 0001:000e4be0       ??$__crt_interlocked_read@J@@YAJPDJ@Z 100e5be0 f i libucrtd:output.obj
 0001:000e8480       ??$count@D@formatting_buffer@__crt_stdio_output@@QBEIXZ 100e9480 f i libucrtd:output.obj
 0001:000e84d0       ??$count@_W@formatting_buffer@__crt_stdio_output@@QBEIXZ 100e94d0 f i libucrtd:output.obj
 0001:000e8520       ??$data@D@formatting_buffer@__crt_stdio_output@@QAEPADXZ 100e9520 f i libucrtd:output.obj
 0001:000e8570       ??$data@_W@formatting_buffer@__crt_stdio_output@@QAEPA_WXZ 100e9570 f i libucrtd:output.obj
 0001:000e85c0       ??$ensure_buffer_is_big_enough@D@formatting_buffer@__crt_stdio_output@@QAE_NI@Z 100e95c0 f i libucrtd:output.obj
 0001:000e86e0       ??$ensure_buffer_is_big_enough@_W@formatting_buffer@__crt_stdio_output@@QAE_NI@Z 100e96e0 f i libucrtd:output.obj
 0001:000e8800       ??$extract_argument_from_va_list@C_J@?$positional_parameter_base@DV?$stream_output_adapter@D@__crt_stdio_output@@@__crt_stdio_output@@IAE_NAA_J@Z 100e9800 f i libucrtd:output.obj
 0001:000e8980       ??$extract_argument_from_va_list@C_J@?$positional_parameter_base@DV?$string_output_adapter@D@__crt_stdio_output@@@__crt_stdio_output@@IAE_NAA_J@Z 100e9980 f i libucrtd:output.obj
 0001:000e8b00       ??$extract_argument_from_va_list@C_J@?$positional_parameter_base@_WV?$stream_output_adapter@_W@__crt_stdio_output@@@__crt_stdio_output@@IAE_NAA_J@Z 100e9b00 f i libucrtd:output.obj
 0001:000e8c80       ??$extract_argument_from_va_list@C_J@?$positional_parameter_base@_WV?$string_output_adapter@_W@__crt_stdio_output@@@__crt_stdio_output@@IAE_NAA_J@Z 100e9c80 f i libucrtd:output.obj
 0001:000e8e00       ??$extract_argument_from_va_list@C_J@?$standard_base@DV?$stream_output_adapter@D@__crt_stdio_output@@@__crt_stdio_output@@IAE_NAA_J@Z 100e9e00 f i libucrtd:output.obj
 0001:000e8e40       ??$extract_argument_from_va_list@C_J@?$standard_base@DV?$string_output_adapter@D@__crt_stdio_output@@@__crt_stdio_output@@IAE_NAA_J@Z 100e9e40 f i libucrtd:output.obj
 0001:000e8e80       ??$extract_argument_from_va_list@C_J@?$standard_base@_WV?$stream_output_adapter@_W@__crt_stdio_output@@@__crt_stdio_output@@IAE_NAA_J@Z 100e9e80 f i libucrtd:output.obj
 0001:000e8ec0       ??$extract_argument_from_va_list@C_J@?$standard_base@_WV?$string_output_adapter@_W@__crt_stdio_output@@@__crt_stdio_output@@IAE_NAA_J@Z 100e9ec0 f i libucrtd:output.obj
 0001:000e8f00       ??$extract_argument_from_va_list@E_J@?$positional_parameter_base@DV?$stream_output_adapter@D@__crt_stdio_output@@@__crt_stdio_output@@IAE_NAA_J@Z 100e9f00 f i libucrtd:output.obj
 0001:000e9080       ??$extract_argument_from_va_list@E_J@?$positional_parameter_base@DV?$string_output_adapter@D@__crt_stdio_output@@@__crt_stdio_output@@IAE_NAA_J@Z 100ea080 f i libucrtd:output.obj
 0001:000e9200       ??$extract_argument_from_va_list@E_J@?$positional_parameter_base@_WV?$stream_output_adapter@_W@__crt_stdio_output@@@__crt_stdio_output@@IAE_NAA_J@Z 100ea200 f i libucrtd:output.obj
 0001:000e9380       ??$extract_argument_from_va_list@E_J@?$positional_parameter_base@_WV?$string_output_adapter@_W@__crt_stdio_output@@@__crt_stdio_output@@IAE_NAA_J@Z 100ea380 f i libucrtd:output.obj
 0001:000e9500       ??$extract_argument_from_va_list@E_J@?$standard_base@DV?$stream_output_adapter@D@__crt_stdio_output@@@__crt_stdio_output@@IAE_NAA_J@Z 100ea500 f i libucrtd:output.obj
 0001:000e9540       ??$extract_argument_from_va_list@E_J@?$standard_base@DV?$string_output_adapter@D@__crt_stdio_output@@@__crt_stdio_output@@IAE_NAA_J@Z 100ea540 f i libucrtd:output.obj
 0001:000e9580       ??$extract_argument_from_va_list@E_J@?$standard_base@_WV?$stream_output_adapter@_W@__crt_stdio_output@@@__crt_stdio_output@@IAE_NAA_J@Z 100ea580 f i libucrtd:output.obj
 0001:000e95c0       ??$extract_argument_from_va_list@E_J@?$standard_base@_WV?$string_output_adapter@_W@__crt_stdio_output@@@__crt_stdio_output@@IAE_NAA_J@Z 100ea5c0 f i libucrtd:output.obj
 0001:000e9600       ??$extract_argument_from_va_list@F_J@?$positional_parameter_base@DV?$stream_output_adapter@D@__crt_stdio_output@@@__crt_stdio_output@@IAE_NAA_J@Z 100ea600 f i libucrtd:output.obj
 0001:000e9780       ??$extract_argument_from_va_list@F_J@?$positional_parameter_base@DV?$string_output_adapter@D@__crt_stdio_output@@@__crt_stdio_output@@IAE_NAA_J@Z 100ea780 f i libucrtd:output.obj
 0001:000e9900       ??$extract_argument_from_va_list@F_J@?$positional_parameter_base@_WV?$stream_output_adapter@_W@__crt_stdio_output@@@__crt_stdio_output@@IAE_NAA_J@Z 100ea900 f i libucrtd:output.obj
 0001:000e9a80       ??$extract_argument_from_va_list@F_J@?$positional_parameter_base@_WV?$string_output_adapter@_W@__crt_stdio_output@@@__crt_stdio_output@@IAE_NAA_J@Z 100eaa80 f i libucrtd:output.obj
 0001:000e9c00       ??$extract_argument_from_va_list@F_J@?$standard_base@DV?$stream_output_adapter@D@__crt_stdio_output@@@__crt_stdio_output@@IAE_NAA_J@Z 100eac00 f i libucrtd:output.obj
 0001:000e9c40       ??$extract_argument_from_va_list@F_J@?$standard_base@DV?$string_output_adapter@D@__crt_stdio_output@@@__crt_stdio_output@@IAE_NAA_J@Z 100eac40 f i libucrtd:output.obj
 0001:000e9c80       ??$extract_argument_from_va_list@F_J@?$standard_base@_WV?$stream_output_adapter@_W@__crt_stdio_output@@@__crt_stdio_output@@IAE_NAA_J@Z 100eac80 f i libucrtd:output.obj
 0001:000e9cc0       ??$extract_argument_from_va_list@F_J@?$standard_base@_WV?$string_output_adapter@_W@__crt_stdio_output@@@__crt_stdio_output@@IAE_NAA_J@Z 100eacc0 f i libucrtd:output.obj
 0001:000e9d00       ??$extract_argument_from_va_list@GD@?$positional_parameter_base@DV?$stream_output_adapter@D@__crt_stdio_output@@@__crt_stdio_output@@IAE_NAAD@Z 100ead00 f i libucrtd:output.obj
 0001:000e9e80       ??$extract_argument_from_va_list@GD@?$positional_parameter_base@DV?$string_output_adapter@D@__crt_stdio_output@@@__crt_stdio_output@@IAE_NAAD@Z 100eae80 f i libucrtd:output.obj
 0001:000ea000       ??$extract_argument_from_va_list@GD@?$standard_base@DV?$stream_output_adapter@D@__crt_stdio_output@@@__crt_stdio_output@@IAE_NAAD@Z 100eb000 f i libucrtd:output.obj
 0001:000ea030       ??$extract_argument_from_va_list@GD@?$standard_base@DV?$string_output_adapter@D@__crt_stdio_output@@@__crt_stdio_output@@IAE_NAAD@Z 100eb030 f i libucrtd:output.obj
 0001:000ea060       ??$extract_argument_from_va_list@G_J@?$positional_parameter_base@DV?$stream_output_adapter@D@__crt_stdio_output@@@__crt_stdio_output@@IAE_NAA_J@Z 100eb060 f i libucrtd:output.obj
 0001:000ea1e0       ??$extract_argument_from_va_list@G_J@?$positional_parameter_base@DV?$string_output_adapter@D@__crt_stdio_output@@@__crt_stdio_output@@IAE_NAA_J@Z 100eb1e0 f i libucrtd:output.obj
 0001:000ea360       ??$extract_argument_from_va_list@G_J@?$positional_parameter_base@_WV?$stream_output_adapter@_W@__crt_stdio_output@@@__crt_stdio_output@@IAE_NAA_J@Z 100eb360 f i libucrtd:output.obj
 0001:000ea4e0       ??$extract_argument_from_va_list@G_J@?$positional_parameter_base@_WV?$string_output_adapter@_W@__crt_stdio_output@@@__crt_stdio_output@@IAE_NAA_J@Z 100eb4e0 f i libucrtd:output.obj
 0001:000ea660       ??$extract_argument_from_va_list@G_J@?$standard_base@DV?$stream_output_adapter@D@__crt_stdio_output@@@__crt_stdio_output@@IAE_NAA_J@Z 100eb660 f i libucrtd:output.obj
 0001:000ea6a0       ??$extract_argument_from_va_list@G_J@?$standard_base@DV?$string_output_adapter@D@__crt_stdio_output@@@__crt_stdio_output@@IAE_NAA_J@Z 100eb6a0 f i libucrtd:output.obj
 0001:000ea6e0       ??$extract_argument_from_va_list@G_J@?$standard_base@_WV?$stream_output_adapter@_W@__crt_stdio_output@@@__crt_stdio_output@@IAE_NAA_J@Z 100eb6e0 f i libucrtd:output.obj
 0001:000ea720       ??$extract_argument_from_va_list@G_J@?$standard_base@_WV?$string_output_adapter@_W@__crt_stdio_output@@@__crt_stdio_output@@IAE_NAA_J@Z 100eb720 f i libucrtd:output.obj
 0001:000ea760       ??$extract_argument_from_va_list@H_J@?$positional_parameter_base@DV?$stream_output_adapter@D@__crt_stdio_output@@@__crt_stdio_output@@IAE_NAA_J@Z 100eb760 f i libucrtd:output.obj
 0001:000ea8e0       ??$extract_argument_from_va_list@H_J@?$positional_parameter_base@DV?$string_output_adapter@D@__crt_stdio_output@@@__crt_stdio_output@@IAE_NAA_J@Z 100eb8e0 f i libucrtd:output.obj
 0001:000eaa60       ??$extract_argument_from_va_list@H_J@?$positional_parameter_base@_WV?$stream_output_adapter@_W@__crt_stdio_output@@@__crt_stdio_output@@IAE_NAA_J@Z 100eba60 f i libucrtd:output.obj
 0001:000eabe0       ??$extract_argument_from_va_list@H_J@?$positional_parameter_base@_WV?$string_output_adapter@_W@__crt_stdio_output@@@__crt_stdio_output@@IAE_NAA_J@Z 100ebbe0 f i libucrtd:output.obj
 0001:000ead60       ??$extract_argument_from_va_list@H_J@?$standard_base@DV?$stream_output_adapter@D@__crt_stdio_output@@@__crt_stdio_output@@IAE_NAA_J@Z 100ebd60 f i libucrtd:output.obj
 0001:000eada0       ??$extract_argument_from_va_list@H_J@?$standard_base@DV?$string_output_adapter@D@__crt_stdio_output@@@__crt_stdio_output@@IAE_NAA_J@Z 100ebda0 f i libucrtd:output.obj
 0001:000eade0       ??$extract_argument_from_va_list@H_J@?$standard_base@_WV?$stream_output_adapter@_W@__crt_stdio_output@@@__crt_stdio_output@@IAE_NAA_J@Z 100ebde0 f i libucrtd:output.obj
 0001:000eae20       ??$extract_argument_from_va_list@H_J@?$standard_base@_WV?$string_output_adapter@_W@__crt_stdio_output@@@__crt_stdio_output@@IAE_NAA_J@Z 100ebe20 f i libucrtd:output.obj
 0001:000eae60       ??$extract_argument_from_va_list@I_J@?$positional_parameter_base@DV?$stream_output_adapter@D@__crt_stdio_output@@@__crt_stdio_output@@IAE_NAA_J@Z 100ebe60 f i libucrtd:output.obj
 0001:000eafe0       ??$extract_argument_from_va_list@I_J@?$positional_parameter_base@DV?$string_output_adapter@D@__crt_stdio_output@@@__crt_stdio_output@@IAE_NAA_J@Z 100ebfe0 f i libucrtd:output.obj
 0001:000eb160       ??$extract_argument_from_va_list@I_J@?$positional_parameter_base@_WV?$stream_output_adapter@_W@__crt_stdio_output@@@__crt_stdio_output@@IAE_NAA_J@Z 100ec160 f i libucrtd:output.obj
 0001:000eb2e0       ??$extract_argument_from_va_list@I_J@?$positional_parameter_base@_WV?$string_output_adapter@_W@__crt_stdio_output@@@__crt_stdio_output@@IAE_NAA_J@Z 100ec2e0 f i libucrtd:output.obj
 0001:000eb460       ??$extract_argument_from_va_list@I_J@?$standard_base@DV?$stream_output_adapter@D@__crt_stdio_output@@@__crt_stdio_output@@IAE_NAA_J@Z 100ec460 f i libucrtd:output.obj
 0001:000eb4a0       ??$extract_argument_from_va_list@I_J@?$standard_base@DV?$string_output_adapter@D@__crt_stdio_output@@@__crt_stdio_output@@IAE_NAA_J@Z 100ec4a0 f i libucrtd:output.obj
 0001:000eb4e0       ??$extract_argument_from_va_list@I_J@?$standard_base@_WV?$stream_output_adapter@_W@__crt_stdio_output@@@__crt_stdio_output@@IAE_NAA_J@Z 100ec4e0 f i libucrtd:output.obj
 0001:000eb520       ??$extract_argument_from_va_list@I_J@?$standard_base@_WV?$string_output_adapter@_W@__crt_stdio_output@@@__crt_stdio_output@@IAE_NAA_J@Z 100ec520 f i libucrtd:output.obj
 0001:000eb560       ??$extract_argument_from_va_list@PADPAD@?$positional_parameter_base@DV?$stream_output_adapter@D@__crt_stdio_output@@@__crt_stdio_output@@IAE_NAAPAD@Z 100ec560 f i libucrtd:output.obj
 0001:000eb6e0       ??$extract_argument_from_va_list@PADPAD@?$positional_parameter_base@DV?$string_output_adapter@D@__crt_stdio_output@@@__crt_stdio_output@@IAE_NAAPAD@Z 100ec6e0 f i libucrtd:output.obj
 0001:000eb860       ??$extract_argument_from_va_list@PADPAD@?$positional_parameter_base@_WV?$stream_output_adapter@_W@__crt_stdio_output@@@__crt_stdio_output@@IAE_NAAPAD@Z 100ec860 f i libucrtd:output.obj
 0001:000eb9e0       ??$extract_argument_from_va_list@PADPAD@?$positional_parameter_base@_WV?$string_output_adapter@_W@__crt_stdio_output@@@__crt_stdio_output@@IAE_NAAPAD@Z 100ec9e0 f i libucrtd:output.obj
 0001:000ebb60       ??$extract_argument_from_va_list@PADPAD@?$standard_base@DV?$stream_output_adapter@D@__crt_stdio_output@@@__crt_stdio_output@@IAE_NAAPAD@Z 100ecb60 f i libucrtd:output.obj
 0001:000ebb90       ??$extract_argument_from_va_list@PADPAD@?$standard_base@DV?$string_output_adapter@D@__crt_stdio_output@@@__crt_stdio_output@@IAE_NAAPAD@Z 100ecb90 f i libucrtd:output.obj
 0001:000ebbc0       ??$extract_argument_from_va_list@PADPAD@?$standard_base@_WV?$stream_output_adapter@_W@__crt_stdio_output@@@__crt_stdio_output@@IAE_NAAPAD@Z 100ecbc0 f i libucrtd:output.obj
 0001:000ebbf0       ??$extract_argument_from_va_list@PADPAD@?$standard_base@_WV?$string_output_adapter@_W@__crt_stdio_output@@@__crt_stdio_output@@IAE_NAAPAD@Z 100ecbf0 f i libucrtd:output.obj
 0001:000ec460       ??$extract_argument_from_va_list@PAXPAX@?$positional_parameter_base@DV?$stream_output_adapter@D@__crt_stdio_output@@@__crt_stdio_output@@IAE_NAAPAX@Z 100ed460 f i libucrtd:output.obj
 0001:000ec5e0       ??$extract_argument_from_va_list@PAXPAX@?$positional_parameter_base@DV?$string_output_adapter@D@__crt_stdio_output@@@__crt_stdio_output@@IAE_NAAPAX@Z 100ed5e0 f i libucrtd:output.obj
 0001:000ec760       ??$extract_argument_from_va_list@PAXPAX@?$positional_parameter_base@_WV?$stream_output_adapter@_W@__crt_stdio_output@@@__crt_stdio_output@@IAE_NAAPAX@Z 100ed760 f i libucrtd:output.obj
 0001:000ec8e0       ??$extract_argument_from_va_list@PAXPAX@?$positional_parameter_base@_WV?$string_output_adapter@_W@__crt_stdio_output@@@__crt_stdio_output@@IAE_NAAPAX@Z 100ed8e0 f i libucrtd:output.obj
 0001:000eca60       ??$extract_argument_from_va_list@PAXPAX@?$standard_base@DV?$stream_output_adapter@D@__crt_stdio_output@@@__crt_stdio_output@@IAE_NAAPAX@Z 100eda60 f i libucrtd:output.obj
 0001:000eca90       ??$extract_argument_from_va_list@PAXPAX@?$standard_base@DV?$string_output_adapter@D@__crt_stdio_output@@@__crt_stdio_output@@IAE_NAAPAX@Z 100eda90 f i libucrtd:output.obj
 0001:000ecac0       ??$extract_argument_from_va_list@PAXPAX@?$standard_base@_WV?$stream_output_adapter@_W@__crt_stdio_output@@@__crt_stdio_output@@IAE_NAAPAX@Z 100edac0 f i libucrtd:output.obj
 0001:000ecaf0       ??$extract_argument_from_va_list@PAXPAX@?$standard_base@_WV?$string_output_adapter@_W@__crt_stdio_output@@@__crt_stdio_output@@IAE_NAAPAX@Z 100edaf0 f i libucrtd:output.obj
 0001:000ecb20       ??$extract_argument_from_va_list@U_CRT_DOUBLE@@U1@@?$positional_parameter_base@DV?$stream_output_adapter@D@__crt_stdio_output@@@__crt_stdio_output@@IAE_NAAU_CRT_DOUBLE@@@Z 100edb20 f i libucrtd:output.obj
 0001:000eccd0       ??$extract_argument_from_va_list@U_CRT_DOUBLE@@U1@@?$positional_parameter_base@DV?$string_output_adapter@D@__crt_stdio_output@@@__crt_stdio_output@@IAE_NAAU_CRT_DOUBLE@@@Z 100edcd0 f i libucrtd:output.obj
 0001:000ece80       ??$extract_argument_from_va_list@U_CRT_DOUBLE@@U1@@?$positional_parameter_base@_WV?$stream_output_adapter@_W@__crt_stdio_output@@@__crt_stdio_output@@IAE_NAAU_CRT_DOUBLE@@@Z 100ede80 f i libucrtd:output.obj
 0001:000ed030       ??$extract_argument_from_va_list@U_CRT_DOUBLE@@U1@@?$positional_parameter_base@_WV?$string_output_adapter@_W@__crt_stdio_output@@@__crt_stdio_output@@IAE_NAAU_CRT_DOUBLE@@@Z 100ee030 f i libucrtd:output.obj
 0001:000ed1e0       ??$extract_argument_from_va_list@U_CRT_DOUBLE@@U1@@?$standard_base@DV?$stream_output_adapter@D@__crt_stdio_output@@@__crt_stdio_output@@IAE_NAAU_CRT_DOUBLE@@@Z 100ee1e0 f i libucrtd:output.obj
 0001:000ed240       ??$extract_argument_from_va_list@U_CRT_DOUBLE@@U1@@?$standard_base@DV?$string_output_adapter@D@__crt_stdio_output@@@__crt_stdio_output@@IAE_NAAU_CRT_DOUBLE@@@Z 100ee240 f i libucrtd:output.obj
 0001:000ed2a0       ??$extract_argument_from_va_list@U_CRT_DOUBLE@@U1@@?$standard_base@_WV?$stream_output_adapter@_W@__crt_stdio_output@@@__crt_stdio_output@@IAE_NAAU_CRT_DOUBLE@@@Z 100ee2a0 f i libucrtd:output.obj
 0001:000ed300       ??$extract_argument_from_va_list@U_CRT_DOUBLE@@U1@@?$standard_base@_WV?$string_output_adapter@_W@__crt_stdio_output@@@__crt_stdio_output@@IAE_NAAU_CRT_DOUBLE@@@Z 100ee300 f i libucrtd:output.obj
 0001:000ed360       ??$extract_argument_from_va_list@_J_J@?$positional_parameter_base@DV?$stream_output_adapter@D@__crt_stdio_output@@@__crt_stdio_output@@IAE_NAA_J@Z 100ee360 f i libucrtd:output.obj
 0001:000ed4e0       ??$extract_argument_from_va_list@_J_J@?$positional_parameter_base@DV?$string_output_adapter@D@__crt_stdio_output@@@__crt_stdio_output@@IAE_NAA_J@Z 100ee4e0 f i libucrtd:output.obj
 0001:000ed660       ??$extract_argument_from_va_list@_J_J@?$positional_parameter_base@_WV?$stream_output_adapter@_W@__crt_stdio_output@@@__crt_stdio_output@@IAE_NAA_J@Z 100ee660 f i libucrtd:output.obj
 0001:000ed7e0       ??$extract_argument_from_va_list@_J_J@?$positional_parameter_base@_WV?$string_output_adapter@_W@__crt_stdio_output@@@__crt_stdio_output@@IAE_NAA_J@Z 100ee7e0 f i libucrtd:output.obj
 0001:000ed960       ??$extract_argument_from_va_list@_J_J@?$standard_base@DV?$stream_output_adapter@D@__crt_stdio_output@@@__crt_stdio_output@@IAE_NAA_J@Z 100ee960 f i libucrtd:output.obj
 0001:000ed9a0       ??$extract_argument_from_va_list@_J_J@?$standard_base@DV?$string_output_adapter@D@__crt_stdio_output@@@__crt_stdio_output@@IAE_NAA_J@Z 100ee9a0 f i libucrtd:output.obj
 0001:000ed9e0       ??$extract_argument_from_va_list@_J_J@?$standard_base@_WV?$stream_output_adapter@_W@__crt_stdio_output@@@__crt_stdio_output@@IAE_NAA_J@Z 100ee9e0 f i libucrtd:output.obj
 0001:000eda20       ??$extract_argument_from_va_list@_J_J@?$standard_base@_WV?$string_output_adapter@_W@__crt_stdio_output@@@__crt_stdio_output@@IAE_NAA_J@Z 100eea20 f i libucrtd:output.obj
 0001:000eda60       ??$extract_argument_from_va_list@_K_J@?$positional_parameter_base@DV?$stream_output_adapter@D@__crt_stdio_output@@@__crt_stdio_output@@IAE_NAA_J@Z 100eea60 f i libucrtd:output.obj
 0001:000edbe0       ??$extract_argument_from_va_list@_K_J@?$positional_parameter_base@DV?$string_output_adapter@D@__crt_stdio_output@@@__crt_stdio_output@@IAE_NAA_J@Z 100eebe0 f i libucrtd:output.obj
 0001:000edd60       ??$extract_argument_from_va_list@_K_J@?$positional_parameter_base@_WV?$stream_output_adapter@_W@__crt_stdio_output@@@__crt_stdio_output@@IAE_NAA_J@Z 100eed60 f i libucrtd:output.obj
 0001:000edee0       ??$extract_argument_from_va_list@_K_J@?$positional_parameter_base@_WV?$string_output_adapter@_W@__crt_stdio_output@@@__crt_stdio_output@@IAE_NAA_J@Z 100eeee0 f i libucrtd:output.obj
 0001:000ee060       ??$extract_argument_from_va_list@_K_J@?$standard_base@DV?$stream_output_adapter@D@__crt_stdio_output@@@__crt_stdio_output@@IAE_NAA_J@Z 100ef060 f i libucrtd:output.obj
 0001:000ee0a0       ??$extract_argument_from_va_list@_K_J@?$standard_base@DV?$string_output_adapter@D@__crt_stdio_output@@@__crt_stdio_output@@IAE_NAA_J@Z 100ef0a0 f i libucrtd:output.obj
 0001:000ee0e0       ??$extract_argument_from_va_list@_K_J@?$standard_base@_WV?$stream_output_adapter@_W@__crt_stdio_output@@@__crt_stdio_output@@IAE_NAA_J@Z 100ef0e0 f i libucrtd:output.obj
 0001:000ee120       ??$extract_argument_from_va_list@_K_J@?$standard_base@_WV?$string_output_adapter@_W@__crt_stdio_output@@@__crt_stdio_output@@IAE_NAA_J@Z 100ef120 f i libucrtd:output.obj
 0001:000ee160       ??$extract_argument_from_va_list@_W_W@?$positional_parameter_base@DV?$stream_output_adapter@D@__crt_stdio_output@@@__crt_stdio_output@@IAE_NAA_W@Z 100ef160 f i libucrtd:output.obj
 0001:000ee2e0       ??$extract_argument_from_va_list@_W_W@?$positional_parameter_base@DV?$string_output_adapter@D@__crt_stdio_output@@@__crt_stdio_output@@IAE_NAA_W@Z 100ef2e0 f i libucrtd:output.obj
 0001:000ee460       ??$extract_argument_from_va_list@_W_W@?$positional_parameter_base@_WV?$stream_output_adapter@_W@__crt_stdio_output@@@__crt_stdio_output@@IAE_NAA_W@Z 100ef460 f i libucrtd:output.obj
 0001:000ee5e0       ??$extract_argument_from_va_list@_W_W@?$positional_parameter_base@_WV?$string_output_adapter@_W@__crt_stdio_output@@@__crt_stdio_output@@IAE_NAA_W@Z 100ef5e0 f i libucrtd:output.obj
 0001:000ee760       ??$extract_argument_from_va_list@_W_W@?$standard_base@DV?$stream_output_adapter@D@__crt_stdio_output@@@__crt_stdio_output@@IAE_NAA_W@Z 100ef760 f i libucrtd:output.obj
 0001:000ee790       ??$extract_argument_from_va_list@_W_W@?$standard_base@DV?$string_output_adapter@D@__crt_stdio_output@@@__crt_stdio_output@@IAE_NAA_W@Z 100ef790 f i libucrtd:output.obj
 0001:000ee7c0       ??$extract_argument_from_va_list@_W_W@?$standard_base@_WV?$stream_output_adapter@_W@__crt_stdio_output@@@__crt_stdio_output@@IAE_NAA_W@Z 100ef7c0 f i libucrtd:output.obj
 0001:000ee7f0       ??$extract_argument_from_va_list@_W_W@?$standard_base@_WV?$string_output_adapter@_W@__crt_stdio_output@@@__crt_stdio_output@@IAE_NAA_W@Z 100ef7f0 f i libucrtd:output.obj
 0001:000ee820       ??$get_parameter_type@D@?$positional_parameter_base@DV?$stream_output_adapter@D@__crt_stdio_output@@@__crt_stdio_output@@CA?AW4parameter_type@01@PAD@Z 100ef820 f i libucrtd:output.obj
 0001:000ee830       ??$get_parameter_type@D@?$positional_parameter_base@DV?$string_output_adapter@D@__crt_stdio_output@@@__crt_stdio_output@@CA?AW4parameter_type@01@PAD@Z 100ef830 f i libucrtd:output.obj
 0001:000ee840       ??$get_parameter_type@D@?$positional_parameter_base@_WV?$stream_output_adapter@_W@__crt_stdio_output@@@__crt_stdio_output@@CA?AW4parameter_type@01@PAD@Z 100ef840 f i libucrtd:output.obj
 0001:000ee850       ??$get_parameter_type@D@?$positional_parameter_base@_WV?$string_output_adapter@_W@__crt_stdio_output@@@__crt_stdio_output@@CA?AW4parameter_type@01@PAD@Z 100ef850 f i libucrtd:output.obj
 0001:000ee8a0       ??$get_parameter_type@X@?$positional_parameter_base@DV?$stream_output_adapter@D@__crt_stdio_output@@@__crt_stdio_output@@CA?AW4parameter_type@01@PAX@Z 100ef8a0 f i libucrtd:output.obj
 0001:000ee8b0       ??$get_parameter_type@X@?$positional_parameter_base@DV?$string_output_adapter@D@__crt_stdio_output@@@__crt_stdio_output@@CA?AW4parameter_type@01@PAX@Z 100ef8b0 f i libucrtd:output.obj
 0001:000ee8c0       ??$get_parameter_type@X@?$positional_parameter_base@_WV?$stream_output_adapter@_W@__crt_stdio_output@@@__crt_stdio_output@@CA?AW4parameter_type@01@PAX@Z 100ef8c0 f i libucrtd:output.obj
 0001:000ee8d0       ??$get_parameter_type@X@?$positional_parameter_base@_WV?$string_output_adapter@_W@__crt_stdio_output@@@__crt_stdio_output@@CA?AW4parameter_type@01@PAX@Z 100ef8d0 f i libucrtd:output.obj
 0001:000ee8e0       ??$is_character_specifier@D@?$positional_parameter_base@DV?$stream_output_adapter@D@__crt_stdio_output@@@__crt_stdio_output@@CA_ND@Z 100ef8e0 f i libucrtd:output.obj
 0001:000ee920       ??$is_character_specifier@D@?$positional_parameter_base@DV?$string_output_adapter@D@__crt_stdio_output@@@__crt_stdio_output@@CA_ND@Z 100ef920 f i libucrtd:output.obj
 0001:000ee960       ??$is_character_specifier@_W@?$positional_parameter_base@_WV?$stream_output_adapter@_W@__crt_stdio_output@@@__crt_stdio_output@@CA_N_W@Z 100ef960 f i libucrtd:output.obj
 0001:000ee9a0       ??$is_character_specifier@_W@?$positional_parameter_base@_WV?$string_output_adapter@_W@__crt_stdio_output@@@__crt_stdio_output@@CA_N_W@Z 100ef9a0 f i libucrtd:output.obj
 0001:000ee9e0       ??$is_integral_specifier@D@?$positional_parameter_base@DV?$stream_output_adapter@D@__crt_stdio_output@@@__crt_stdio_output@@CA_ND@Z 100ef9e0 f i libucrtd:output.obj
 0001:000eea60       ??$is_integral_specifier@D@?$positional_parameter_base@DV?$string_output_adapter@D@__crt_stdio_output@@@__crt_stdio_output@@CA_ND@Z 100efa60 f i libucrtd:output.obj
 0001:000eeae0       ??$is_integral_specifier@_W@?$positional_parameter_base@_WV?$stream_output_adapter@_W@__crt_stdio_output@@@__crt_stdio_output@@CA_N_W@Z 100efae0 f i libucrtd:output.obj
 0001:000eeb60       ??$is_integral_specifier@_W@?$positional_parameter_base@_WV?$string_output_adapter@_W@__crt_stdio_output@@@__crt_stdio_output@@CA_N_W@Z 100efb60 f i libucrtd:output.obj
 0001:000eebe0       ??$is_pointer_specifier@D@?$positional_parameter_base@DV?$stream_output_adapter@D@__crt_stdio_output@@@__crt_stdio_output@@CA_ND@Z 100efbe0 f i libucrtd:output.obj
 0001:000eec10       ??$is_pointer_specifier@D@?$positional_parameter_base@DV?$string_output_adapter@D@__crt_stdio_output@@@__crt_stdio_output@@CA_ND@Z 100efc10 f i libucrtd:output.obj
 0001:000eec40       ??$is_pointer_specifier@_W@?$positional_parameter_base@_WV?$stream_output_adapter@_W@__crt_stdio_output@@@__crt_stdio_output@@CA_N_W@Z 100efc40 f i libucrtd:output.obj
 0001:000eec70       ??$is_pointer_specifier@_W@?$positional_parameter_base@_WV?$string_output_adapter@_W@__crt_stdio_output@@@__crt_stdio_output@@CA_N_W@Z 100efc70 f i libucrtd:output.obj
 0001:000eeca0       ??$is_string_specifier@D@?$positional_parameter_base@DV?$stream_output_adapter@D@__crt_stdio_output@@@__crt_stdio_output@@CA_ND@Z 100efca0 f i libucrtd:output.obj
 0001:000eece0       ??$is_string_specifier@D@?$positional_parameter_base@DV?$string_output_adapter@D@__crt_stdio_output@@@__crt_stdio_output@@CA_ND@Z 100efce0 f i libucrtd:output.obj
 0001:000eed20       ??$is_string_specifier@_W@?$positional_parameter_base@_WV?$stream_output_adapter@_W@__crt_stdio_output@@@__crt_stdio_output@@CA_N_W@Z 100efd20 f i libucrtd:output.obj
 0001:000eed60       ??$is_string_specifier@_W@?$positional_parameter_base@_WV?$string_output_adapter@_W@__crt_stdio_output@@@__crt_stdio_output@@CA_N_W@Z 100efd60 f i libucrtd:output.obj
 0001:000eeda0       ??$is_wide_character_specifier@D@__crt_stdio_output@@YA_N_KDW4length_modifier@0@@Z 100efda0 f i libucrtd:output.obj
 0001:000eee40       ??$is_wide_character_specifier@_W@__crt_stdio_output@@YA_N_K_WW4length_modifier@0@@Z 100efe40 f i libucrtd:output.obj
 0001:000eef30       ??$peek_va_arg@C@__crt_stdio_output@@YACPAD@Z 100eff30 f i libucrtd:output.obj
 0001:000eef50       ??$peek_va_arg@E@__crt_stdio_output@@YAEPAD@Z 100eff50 f i libucrtd:output.obj
 0001:000eef70       ??$peek_va_arg@F@__crt_stdio_output@@YAFPAD@Z 100eff70 f i libucrtd:output.obj
 0001:000eef90       ??$peek_va_arg@G@__crt_stdio_output@@YAGPAD@Z 100eff90 f i libucrtd:output.obj
 0001:000eefb0       ??$peek_va_arg@H@__crt_stdio_output@@YAHPAD@Z 100effb0 f i libucrtd:output.obj
 0001:000eefd0       ??$peek_va_arg@I@__crt_stdio_output@@YAIPAD@Z 100effd0 f i libucrtd:output.obj
 0001:000eeff0       ??$peek_va_arg@PAD@__crt_stdio_output@@YAPADPAD@Z 100efff0 f i libucrtd:output.obj
 0001:000ef090       ??$peek_va_arg@PAX@__crt_stdio_output@@YAPAXPAD@Z 100f0090 f i libucrtd:output.obj
 0001:000ef0b0       ??$peek_va_arg@U_CRT_DOUBLE@@@__crt_stdio_output@@YA?AU_CRT_DOUBLE@@PAD@Z 100f00b0 f i libucrtd:output.obj
 0001:000ef0d0       ??$peek_va_arg@_J@__crt_stdio_output@@YA_JPAD@Z 100f00d0 f i libucrtd:output.obj
 0001:000ef0f0       ??$peek_va_arg@_K@__crt_stdio_output@@YA_KPAD@Z 100f00f0 f i libucrtd:output.obj
 0001:000ef110       ??$peek_va_arg@_W@__crt_stdio_output@@YA_WPAD@Z 100f0110 f i libucrtd:output.obj
 0001:000ef130       ??$puttc_nolock@ABDPAU_iobuf@@@?$__crt_char_traits@D@@SAHABD$$QAPAU_iobuf@@@Z 100f0130 f i libucrtd:output.obj
 0001:000ef160       ??$puttc_nolock@AB_WPAU_iobuf@@@?$__crt_char_traits@_W@@SAGAB_W$$QAPAU_iobuf@@@Z 100f0160 f i libucrtd:output.obj
 0001:000ef190       ??$read_va_arg@C@__crt_stdio_output@@YACAAPAD@Z 100f0190 f i libucrtd:output.obj
 0001:000ef1c0       ??$read_va_arg@E@__crt_stdio_output@@YAEAAPAD@Z 100f01c0 f i libucrtd:output.obj
 0001:000ef1f0       ??$read_va_arg@F@__crt_stdio_output@@YAFAAPAD@Z 100f01f0 f i libucrtd:output.obj
 0001:000ef220       ??$read_va_arg@G@__crt_stdio_output@@YAGAAPAD@Z 100f0220 f i libucrtd:output.obj
 0001:000ef250       ??$read_va_arg@H@__crt_stdio_output@@YAHAAPAD@Z 100f0250 f i libucrtd:output.obj
 0001:000ef280       ??$read_va_arg@I@__crt_stdio_output@@YAIAAPAD@Z 100f0280 f i libucrtd:output.obj
 0001:000ef2b0       ??$read_va_arg@PAD@__crt_stdio_output@@YAPADAAPAD@Z 100f02b0 f i libucrtd:output.obj
 0001:000ef520       ??$read_va_arg@PAX@__crt_stdio_output@@YAPAXAAPAD@Z 100f0520 f i libucrtd:output.obj
 0001:000ef550       ??$read_va_arg@U_CRT_DOUBLE@@@__crt_stdio_output@@YA?AU_CRT_DOUBLE@@AAPAD@Z 100f0550 f i libucrtd:output.obj
 0001:000ef580       ??$read_va_arg@_J@__crt_stdio_output@@YA_JAAPAD@Z 100f0580 f i libucrtd:output.obj
 0001:000ef5b0       ??$read_va_arg@_K@__crt_stdio_output@@YA_KAAPAD@Z 100f05b0 f i libucrtd:output.obj
 0001:000ef5e0       ??$read_va_arg@_W@__crt_stdio_output@@YA_WAAPAD@Z 100f05e0 f i libucrtd:output.obj
 0001:000ef610       ??$scratch_count@D@formatting_buffer@__crt_stdio_output@@QBEIXZ 100f0610 f i libucrtd:output.obj
 0001:000ef630       ??$scratch_data@D@formatting_buffer@__crt_stdio_output@@QAEPADXZ 100f0630 f i libucrtd:output.obj
 0001:000ef690       ??$tcstol@AAPBDPAPADH@?$__crt_char_traits@D@@SAJAAPBD$$QAPAPAD$$QAH@Z 100f0690 f i libucrtd:output.obj
 0001:000ef6c0       ??$tcstol@AAPB_WPAPA_WH@?$__crt_char_traits@_W@@SAJAAPB_W$$QAPAPA_W$$QAH@Z 100f06c0 f i libucrtd:output.obj
 0001:000ef6f0       ??$tcstol@PBDPAPADH@?$__crt_char_traits@D@@SAJ$$QAPBD$$QAPAPAD$$QAH@Z 100f06f0 f i libucrtd:output.obj
 0001:000ef720       ??$tcstol@PB_WPAPA_WH@?$__crt_char_traits@_W@@SAJ$$QAPB_W$$QAPAPA_W$$QAH@Z 100f0720 f i libucrtd:output.obj
 0001:000ef750       ??$type_case_integer_parse_into_buffer@I@?$output_processor@DV?$stream_output_adapter@D@__crt_stdio_output@@V?$format_validation_base@DV?$stream_output_adapter@D@__crt_stdio_output@@@2@@__crt_stdio_output@@AAEXII_N@Z 100f0750 f i libucrtd:output.obj
 0001:000ef860       ??$type_case_integer_parse_into_buffer@I@?$output_processor@DV?$stream_output_adapter@D@__crt_stdio_output@@V?$positional_parameter_base@DV?$stream_output_adapter@D@__crt_stdio_output@@@2@@__crt_stdio_output@@AAEXII_N@Z 100f0860 f i libucrtd:output.obj
 0001:000ef970       ??$type_case_integer_parse_into_buffer@I@?$output_processor@DV?$stream_output_adapter@D@__crt_stdio_output@@V?$standard_base@DV?$stream_output_adapter@D@__crt_stdio_output@@@2@@__crt_stdio_output@@AAEXII_N@Z 100f0970 f i libucrtd:output.obj
 0001:000efa80       ??$type_case_integer_parse_into_buffer@I@?$output_processor@DV?$string_output_adapter@D@__crt_stdio_output@@V?$format_validation_base@DV?$string_output_adapter@D@__crt_stdio_output@@@2@@__crt_stdio_output@@AAEXII_N@Z 100f0a80 f i libucrtd:output.obj
 0001:000efb90       ??$type_case_integer_parse_into_buffer@I@?$output_processor@DV?$string_output_adapter@D@__crt_stdio_output@@V?$positional_parameter_base@DV?$string_output_adapter@D@__crt_stdio_output@@@2@@__crt_stdio_output@@AAEXII_N@Z 100f0b90 f i libucrtd:output.obj
 0001:000efca0       ??$type_case_integer_parse_into_buffer@I@?$output_processor@DV?$string_output_adapter@D@__crt_stdio_output@@V?$standard_base@DV?$string_output_adapter@D@__crt_stdio_output@@@2@@__crt_stdio_output@@AAEXII_N@Z 100f0ca0 f i libucrtd:output.obj
 0001:000efdb0       ??$type_case_integer_parse_into_buffer@I@?$output_processor@_WV?$stream_output_adapter@_W@__crt_stdio_output@@V?$format_validation_base@_WV?$stream_output_adapter@_W@__crt_stdio_output@@@2@@__crt_stdio_output@@AAEXII_N@Z 100f0db0 f i libucrtd:output.obj
 0001:000efec0       ??$type_case_integer_parse_into_buffer@I@?$output_processor@_WV?$stream_output_adapter@_W@__crt_stdio_output@@V?$positional_parameter_base@_WV?$stream_output_adapter@_W@__crt_stdio_output@@@2@@__crt_stdio_output@@AAEXII_N@Z 100f0ec0 f i libucrtd:output.obj
 0001:000effd0       ??$type_case_integer_parse_into_buffer@I@?$output_processor@_WV?$stream_output_adapter@_W@__crt_stdio_output@@V?$standard_base@_WV?$stream_output_adapter@_W@__crt_stdio_output@@@2@@__crt_stdio_output@@AAEXII_N@Z 100f0fd0 f i libucrtd:output.obj
 0001:000f00e0       ??$type_case_integer_parse_into_buffer@I@?$output_processor@_WV?$string_output_adapter@_W@__crt_stdio_output@@V?$format_validation_base@_WV?$string_output_adapter@_W@__crt_stdio_output@@@2@@__crt_stdio_output@@AAEXII_N@Z 100f10e0 f i libucrtd:output.obj
 0001:000f01f0       ??$type_case_integer_parse_into_buffer@I@?$output_processor@_WV?$string_output_adapter@_W@__crt_stdio_output@@V?$positional_parameter_base@_WV?$string_output_adapter@_W@__crt_stdio_output@@@2@@__crt_stdio_output@@AAEXII_N@Z 100f11f0 f i libucrtd:output.obj
 0001:000f0300       ??$type_case_integer_parse_into_buffer@I@?$output_processor@_WV?$string_output_adapter@_W@__crt_stdio_output@@V?$standard_base@_WV?$string_output_adapter@_W@__crt_stdio_output@@@2@@__crt_stdio_output@@AAEXII_N@Z 100f1300 f i libucrtd:output.obj
 0001:000f0410       ??$type_case_integer_parse_into_buffer@_K@?$output_processor@DV?$stream_output_adapter@D@__crt_stdio_output@@V?$format_validation_base@DV?$stream_output_adapter@D@__crt_stdio_output@@@2@@__crt_stdio_output@@AAEX_KI_N@Z 100f1410 f i libucrtd:output.obj
 0001:000f0540       ??$type_case_integer_parse_into_buffer@_K@?$output_processor@DV?$stream_output_adapter@D@__crt_stdio_output@@V?$positional_parameter_base@DV?$stream_output_adapter@D@__crt_stdio_output@@@2@@__crt_stdio_output@@AAEX_KI_N@Z 100f1540 f i libucrtd:output.obj
 0001:000f0670       ??$type_case_integer_parse_into_buffer@_K@?$output_processor@DV?$stream_output_adapter@D@__crt_stdio_output@@V?$standard_base@DV?$stream_output_adapter@D@__crt_stdio_output@@@2@@__crt_stdio_output@@AAEX_KI_N@Z 100f1670 f i libucrtd:output.obj
 0001:000f07a0       ??$type_case_integer_parse_into_buffer@_K@?$output_processor@DV?$string_output_adapter@D@__crt_stdio_output@@V?$format_validation_base@DV?$string_output_adapter@D@__crt_stdio_output@@@2@@__crt_stdio_output@@AAEX_KI_N@Z 100f17a0 f i libucrtd:output.obj
 0001:000f08d0       ??$type_case_integer_parse_into_buffer@_K@?$output_processor@DV?$string_output_adapter@D@__crt_stdio_output@@V?$positional_parameter_base@DV?$string_output_adapter@D@__crt_stdio_output@@@2@@__crt_stdio_output@@AAEX_KI_N@Z 100f18d0 f i libucrtd:output.obj
 0001:000f0a00       ??$type_case_integer_parse_into_buffer@_K@?$output_processor@DV?$string_output_adapter@D@__crt_stdio_output@@V?$standard_base@DV?$string_output_adapter@D@__crt_stdio_output@@@2@@__crt_stdio_output@@AAEX_KI_N@Z 100f1a00 f i libucrtd:output.obj
 0001:000f0b30       ??$type_case_integer_parse_into_buffer@_K@?$output_processor@_WV?$stream_output_adapter@_W@__crt_stdio_output@@V?$format_validation_base@_WV?$stream_output_adapter@_W@__crt_stdio_output@@@2@@__crt_stdio_output@@AAEX_KI_N@Z 100f1b30 f i libucrtd:output.obj
 0001:000f0c70       ??$type_case_integer_parse_into_buffer@_K@?$output_processor@_WV?$stream_output_adapter@_W@__crt_stdio_output@@V?$positional_parameter_base@_WV?$stream_output_adapter@_W@__crt_stdio_output@@@2@@__crt_stdio_output@@AAEX_KI_N@Z 100f1c70 f i libucrtd:output.obj
 0001:000f0db0       ??$type_case_integer_parse_into_buffer@_K@?$output_processor@_WV?$stream_output_adapter@_W@__crt_stdio_output@@V?$standard_base@_WV?$stream_output_adapter@_W@__crt_stdio_output@@@2@@__crt_stdio_output@@AAEX_KI_N@Z 100f1db0 f i libucrtd:output.obj
 0001:000f0ef0       ??$type_case_integer_parse_into_buffer@_K@?$output_processor@_WV?$string_output_adapter@_W@__crt_stdio_output@@V?$format_validation_base@_WV?$string_output_adapter@_W@__crt_stdio_output@@@2@@__crt_stdio_output@@AAEX_KI_N@Z 100f1ef0 f i libucrtd:output.obj
 0001:000f1030       ??$type_case_integer_parse_into_buffer@_K@?$output_processor@_WV?$string_output_adapter@_W@__crt_stdio_output@@V?$positional_parameter_base@_WV?$string_output_adapter@_W@__crt_stdio_output@@@2@@__crt_stdio_output@@AAEX_KI_N@Z 100f2030 f i libucrtd:output.obj
 0001:000f1170       ??$type_case_integer_parse_into_buffer@_K@?$output_processor@_WV?$string_output_adapter@_W@__crt_stdio_output@@V?$standard_base@_WV?$string_output_adapter@_W@__crt_stdio_output@@@2@@__crt_stdio_output@@AAEX_KI_N@Z 100f2170 f i libucrtd:output.obj
 0001:000f12b0       ??$write_multiple_characters@V?$stream_output_adapter@D@__crt_stdio_output@@D@__crt_stdio_output@@YAXABV?$stream_output_adapter@D@0@DHQAH@Z 100f22b0 f i libucrtd:output.obj
 0001:000f1310       ??$write_multiple_characters@V?$stream_output_adapter@_W@__crt_stdio_output@@D@__crt_stdio_output@@YAXABV?$stream_output_adapter@_W@0@DHQAH@Z 100f2310 f i libucrtd:output.obj
 0001:000f1370       ??$write_multiple_characters@V?$string_output_adapter@D@__crt_stdio_output@@D@__crt_stdio_output@@YAXABV?$string_output_adapter@D@0@DHQAH@Z 100f2370 f i libucrtd:output.obj
 0001:000f13d0       ??$write_multiple_characters@V?$string_output_adapter@_W@__crt_stdio_output@@D@__crt_stdio_output@@YAXABV?$string_output_adapter@_W@0@DHQAH@Z 100f23d0 f i libucrtd:output.obj
 0001:000f1850       ??0?$common_data@D@__crt_stdio_output@@IAE@XZ 100f2850 f i libucrtd:output.obj
 0001:000f1920       ??0?$common_data@_W@__crt_stdio_output@@IAE@XZ 100f2920 f i libucrtd:output.obj
 0001:000f19f0       ??0?$output_adapter_data@DV?$stream_output_adapter@D@__crt_stdio_output@@@__crt_stdio_output@@IAE@ABV?$stream_output_adapter@D@1@_KQBDQAU__crt_locale_pointers@@QAD@Z 100f29f0 f i libucrtd:output.obj
 0001:000f1a60       ??0?$output_adapter_data@DV?$string_output_adapter@D@__crt_stdio_output@@@__crt_stdio_output@@IAE@ABV?$string_output_adapter@D@1@_KQBDQAU__crt_locale_pointers@@QAD@Z 100f2a60 f i libucrtd:output.obj
 0001:000f1ad0       ??0?$output_adapter_data@_WV?$stream_output_adapter@_W@__crt_stdio_output@@@__crt_stdio_output@@IAE@ABV?$stream_output_adapter@_W@1@_KQB_WQAU__crt_locale_pointers@@QAD@Z 100f2ad0 f i libucrtd:output.obj
 0001:000f1b40       ??0?$output_adapter_data@_WV?$string_output_adapter@_W@__crt_stdio_output@@@__crt_stdio_output@@IAE@ABV?$string_output_adapter@_W@1@_KQB_WQAU__crt_locale_pointers@@QAD@Z 100f2b40 f i libucrtd:output.obj
 0001:000f1bb0       ??0?$output_processor@DV?$stream_output_adapter@D@__crt_stdio_output@@V?$format_validation_base@DV?$stream_output_adapter@D@__crt_stdio_output@@@2@@__crt_stdio_output@@QAE@ABV?$stream_output_adapter@D@1@_KQBDQAU__crt_locale_pointers@@QAD@Z 100f2bb0 f i libucrtd:output.obj
 0001:000f1bf0       ??0?$output_processor@DV?$stream_output_adapter@D@__crt_stdio_output@@V?$positional_parameter_base@DV?$stream_output_adapter@D@__crt_stdio_output@@@2@@__crt_stdio_output@@QAE@ABV?$stream_output_adapter@D@1@_KQBDQAU__crt_locale_pointers@@QAD@Z 100f2bf0 f i libucrtd:output.obj
 0001:000f1c30       ??0?$output_processor@DV?$stream_output_adapter@D@__crt_stdio_output@@V?$standard_base@DV?$stream_output_adapter@D@__crt_stdio_output@@@2@@__crt_stdio_output@@QAE@ABV?$stream_output_adapter@D@1@_KQBDQAU__crt_locale_pointers@@QAD@Z 100f2c30 f i libucrtd:output.obj
 0001:000f1c70       ??0?$output_processor@DV?$string_output_adapter@D@__crt_stdio_output@@V?$format_validation_base@DV?$string_output_adapter@D@__crt_stdio_output@@@2@@__crt_stdio_output@@QAE@ABV?$string_output_adapter@D@1@_KQBDQAU__crt_locale_pointers@@QAD@Z 100f2c70 f i libucrtd:output.obj
 0001:000f1cb0       ??0?$output_processor@DV?$string_output_adapter@D@__crt_stdio_output@@V?$positional_parameter_base@DV?$string_output_adapter@D@__crt_stdio_output@@@2@@__crt_stdio_output@@QAE@ABV?$string_output_adapter@D@1@_KQBDQAU__crt_locale_pointers@@QAD@Z 100f2cb0 f i libucrtd:output.obj
 0001:000f1cf0       ??0?$output_processor@DV?$string_output_adapter@D@__crt_stdio_output@@V?$standard_base@DV?$string_output_adapter@D@__crt_stdio_output@@@2@@__crt_stdio_output@@QAE@ABV?$string_output_adapter@D@1@_KQBDQAU__crt_locale_pointers@@QAD@Z 100f2cf0 f i libucrtd:output.obj
 0001:000f1d30       ??0?$output_processor@_WV?$stream_output_adapter@_W@__crt_stdio_output@@V?$format_validation_base@_WV?$stream_output_adapter@_W@__crt_stdio_output@@@2@@__crt_stdio_output@@QAE@ABV?$stream_output_adapter@_W@1@_KQB_WQAU__crt_locale_pointers@@QAD@Z 100f2d30 f i libucrtd:output.obj
 0001:000f1d70       ??0?$output_processor@_WV?$stream_output_adapter@_W@__crt_stdio_output@@V?$positional_parameter_base@_WV?$stream_output_adapter@_W@__crt_stdio_output@@@2@@__crt_stdio_output@@QAE@ABV?$stream_output_adapter@_W@1@_KQB_WQAU__crt_locale_pointers@@QAD@Z 100f2d70 f i libucrtd:output.obj
 0001:000f1db0       ??0?$output_processor@_WV?$stream_output_adapter@_W@__crt_stdio_output@@V?$standard_base@_WV?$stream_output_adapter@_W@__crt_stdio_output@@@2@@__crt_stdio_output@@QAE@ABV?$stream_output_adapter@_W@1@_KQB_WQAU__crt_locale_pointers@@QAD@Z 100f2db0 f i libucrtd:output.obj
 0001:000f1df0       ??0?$output_processor@_WV?$string_output_adapter@_W@__crt_stdio_output@@V?$format_validation_base@_WV?$string_output_adapter@_W@__crt_stdio_output@@@2@@__crt_stdio_output@@QAE@ABV?$string_output_adapter@_W@1@_KQB_WQAU__crt_locale_pointers@@QAD@Z 100f2df0 f i libucrtd:output.obj
 0001:000f1e30       ??0?$output_processor@_WV?$string_output_adapter@_W@__crt_stdio_output@@V?$positional_parameter_base@_WV?$string_output_adapter@_W@__crt_stdio_output@@@2@@__crt_stdio_output@@QAE@ABV?$string_output_adapter@_W@1@_KQB_WQAU__crt_locale_pointers@@QAD@Z 100f2e30 f i libucrtd:output.obj
 0001:000f1e70       ??0?$output_processor@_WV?$string_output_adapter@_W@__crt_stdio_output@@V?$standard_base@_WV?$string_output_adapter@_W@__crt_stdio_output@@@2@@__crt_stdio_output@@QAE@ABV?$string_output_adapter@_W@1@_KQB_WQAU__crt_locale_pointers@@QAD@Z 100f2e70 f i libucrtd:output.obj
 0001:000f1eb0       ??0?$stream_output_adapter@D@__crt_stdio_output@@QAE@QAU_iobuf@@@Z 100f2eb0 f i libucrtd:output.obj
 0001:000f1ee0       ??0?$stream_output_adapter@_W@__crt_stdio_output@@QAE@QAU_iobuf@@@Z 100f2ee0 f i libucrtd:output.obj
 0001:000f1f10       ??0?$string_output_adapter@D@__crt_stdio_output@@QAE@QAU?$string_output_adapter_context@D@1@@Z 100f2f10 f i libucrtd:output.obj
 0001:000f1f30       ??0?$string_output_adapter@_W@__crt_stdio_output@@QAE@QAU?$string_output_adapter_context@_W@1@@Z 100f2f30 f i libucrtd:output.obj
 0001:000f1f50       ??0_LocaleUpdate@@QAE@QAU__crt_locale_pointers@@@Z 100f2f50 f i libucrtd:output.obj
 0001:000f2070       ??0__acrt_stdio_temporary_buffering_guard@@QAE@QAU_iobuf@@@Z 100f3070 f i libucrtd:output.obj
 0001:000f20b0       ??0__crt_deferred_errno_cache@@QAE@XZ 100f30b0 f i libucrtd:output.obj
 0001:000f20d0       ??0__crt_errno_guard@@QAE@QAH@Z 100f30d0 f i libucrtd:output.obj
 0001:000f2110       ??0__crt_stdio_stream@@QAE@QAU_iobuf@@@Z 100f3110 f i libucrtd:output.obj
 0001:000f2130       ??0formatting_buffer@__crt_stdio_output@@QAE@XZ 100f3130 f i libucrtd:output.obj
 0001:000f2170       ??1?$common_data@D@__crt_stdio_output@@QAE@XZ 100f3170 f i libucrtd:output.obj
 0001:000f2190       ??1?$common_data@_W@__crt_stdio_output@@QAE@XZ 100f3190 f i libucrtd:output.obj
 0001:000f21b0       ??1?$format_validation_base@DV?$stream_output_adapter@D@__crt_stdio_output@@@__crt_stdio_output@@QAE@XZ 100f31b0 f i libucrtd:output.obj
 0001:000f21d0       ??1?$format_validation_base@DV?$string_output_adapter@D@__crt_stdio_output@@@__crt_stdio_output@@QAE@XZ 100f31d0 f i libucrtd:output.obj
 0001:000f21f0       ??1?$format_validation_base@_WV?$stream_output_adapter@_W@__crt_stdio_output@@@__crt_stdio_output@@QAE@XZ 100f31f0 f i libucrtd:output.obj
 0001:000f2210       ??1?$format_validation_base@_WV?$string_output_adapter@_W@__crt_stdio_output@@@__crt_stdio_output@@QAE@XZ 100f3210 f i libucrtd:output.obj
 0001:000f2230       ??1?$output_adapter_data@DV?$stream_output_adapter@D@__crt_stdio_output@@@__crt_stdio_output@@QAE@XZ 100f3230 f i libucrtd:output.obj
 0001:000f2250       ??1?$output_adapter_data@DV?$string_output_adapter@D@__crt_stdio_output@@@__crt_stdio_output@@QAE@XZ 100f3250 f i libucrtd:output.obj
 0001:000f2270       ??1?$output_adapter_data@_WV?$stream_output_adapter@_W@__crt_stdio_output@@@__crt_stdio_output@@QAE@XZ 100f3270 f i libucrtd:output.obj
 0001:000f2290       ??1?$output_adapter_data@_WV?$string_output_adapter@_W@__crt_stdio_output@@@__crt_stdio_output@@QAE@XZ 100f3290 f i libucrtd:output.obj
 0001:000f22b0       ??1?$output_processor@DV?$stream_output_adapter@D@__crt_stdio_output@@V?$format_validation_base@DV?$stream_output_adapter@D@__crt_stdio_output@@@2@@__crt_stdio_output@@QAE@XZ 100f32b0 f i libucrtd:output.obj
 0001:000f22d0       ??1?$output_processor@DV?$stream_output_adapter@D@__crt_stdio_output@@V?$positional_parameter_base@DV?$stream_output_adapter@D@__crt_stdio_output@@@2@@__crt_stdio_output@@QAE@XZ 100f32d0 f i libucrtd:output.obj
 0001:000f22f0       ??1?$output_processor@DV?$stream_output_adapter@D@__crt_stdio_output@@V?$standard_base@DV?$stream_output_adapter@D@__crt_stdio_output@@@2@@__crt_stdio_output@@QAE@XZ 100f32f0 f i libucrtd:output.obj
 0001:000f2310       ??1?$output_processor@DV?$string_output_adapter@D@__crt_stdio_output@@V?$format_validation_base@DV?$string_output_adapter@D@__crt_stdio_output@@@2@@__crt_stdio_output@@QAE@XZ 100f3310 f i libucrtd:output.obj
 0001:000f2330       ??1?$output_processor@DV?$string_output_adapter@D@__crt_stdio_output@@V?$positional_parameter_base@DV?$string_output_adapter@D@__crt_stdio_output@@@2@@__crt_stdio_output@@QAE@XZ 100f3330 f i libucrtd:output.obj
 0001:000f2350       ??1?$output_processor@DV?$string_output_adapter@D@__crt_stdio_output@@V?$standard_base@DV?$string_output_adapter@D@__crt_stdio_output@@@2@@__crt_stdio_output@@QAE@XZ 100f3350 f i libucrtd:output.obj
 0001:000f2370       ??1?$output_processor@_WV?$stream_output_adapter@_W@__crt_stdio_output@@V?$format_validation_base@_WV?$stream_output_adapter@_W@__crt_stdio_output@@@2@@__crt_stdio_output@@QAE@XZ 100f3370 f i libucrtd:output.obj
 0001:000f2390       ??1?$output_processor@_WV?$stream_output_adapter@_W@__crt_stdio_output@@V?$positional_parameter_base@_WV?$stream_output_adapter@_W@__crt_stdio_output@@@2@@__crt_stdio_output@@QAE@XZ 100f3390 f i libucrtd:output.obj
 0001:000f23b0       ??1?$output_processor@_WV?$stream_output_adapter@_W@__crt_stdio_output@@V?$standard_base@_WV?$stream_output_adapter@_W@__crt_stdio_output@@@2@@__crt_stdio_output@@QAE@XZ 100f33b0 f i libucrtd:output.obj
 0001:000f23d0       ??1?$output_processor@_WV?$string_output_adapter@_W@__crt_stdio_output@@V?$format_validation_base@_WV?$string_output_adapter@_W@__crt_stdio_output@@@2@@__crt_stdio_output@@QAE@XZ 100f33d0 f i libucrtd:output.obj
 0001:000f23f0       ??1?$output_processor@_WV?$string_output_adapter@_W@__crt_stdio_output@@V?$positional_parameter_base@_WV?$string_output_adapter@_W@__crt_stdio_output@@@2@@__crt_stdio_output@@QAE@XZ 100f33f0 f i libucrtd:output.obj
 0001:000f2410       ??1?$output_processor@_WV?$string_output_adapter@_W@__crt_stdio_output@@V?$standard_base@_WV?$string_output_adapter@_W@__crt_stdio_output@@@2@@__crt_stdio_output@@QAE@XZ 100f3410 f i libucrtd:output.obj
 0001:000f2430       ??1?$positional_parameter_base@DV?$stream_output_adapter@D@__crt_stdio_output@@@__crt_stdio_output@@QAE@XZ 100f3430 f i libucrtd:output.obj
 0001:000f2450       ??1?$positional_parameter_base@DV?$string_output_adapter@D@__crt_stdio_output@@@__crt_stdio_output@@QAE@XZ 100f3450 f i libucrtd:output.obj
 0001:000f2470       ??1?$positional_parameter_base@_WV?$stream_output_adapter@_W@__crt_stdio_output@@@__crt_stdio_output@@QAE@XZ 100f3470 f i libucrtd:output.obj
 0001:000f2490       ??1?$positional_parameter_base@_WV?$string_output_adapter@_W@__crt_stdio_output@@@__crt_stdio_output@@QAE@XZ 100f3490 f i libucrtd:output.obj
 0001:000f24b0       ??1?$standard_base@DV?$stream_output_adapter@D@__crt_stdio_output@@@__crt_stdio_output@@QAE@XZ 100f34b0 f i libucrtd:output.obj
 0001:000f24d0       ??1?$standard_base@DV?$string_output_adapter@D@__crt_stdio_output@@@__crt_stdio_output@@QAE@XZ 100f34d0 f i libucrtd:output.obj
 0001:000f24f0       ??1?$standard_base@_WV?$stream_output_adapter@_W@__crt_stdio_output@@@__crt_stdio_output@@QAE@XZ 100f34f0 f i libucrtd:output.obj
 0001:000f2510       ??1?$standard_base@_WV?$string_output_adapter@_W@__crt_stdio_output@@@__crt_stdio_output@@QAE@XZ 100f3510 f i libucrtd:output.obj
 0001:000f2530       ??1_LocaleUpdate@@QAE@XZ   100f3530 f i libucrtd:output.obj
 0001:000f2570       ??1__acrt_stdio_temporary_buffering_guard@@QAE@XZ 100f3570 f i libucrtd:output.obj
 0001:000f25a0       ??1__crt_errno_guard@@QAE@XZ 100f35a0 f i libucrtd:output.obj
 0001:000f25e0       ??1formatting_buffer@__crt_stdio_output@@QAE@XZ 100f35e0 f i libucrtd:output.obj
 0001:000f2610       ??4?$__crt_unique_heap_ptr@DU__crt_internal_free_policy@@@@QAEAAV0@$$QAV0@@Z 100f3610 f i libucrtd:output.obj
 0001:000f2650       ??C__crt_stdio_stream@@QBEPAU__crt_stdio_stream_data@@XZ 100f3650 f i libucrtd:output.obj
 0001:000f2f70       ?GetLocaleT@_LocaleUpdate@@QAEPAU__crt_locale_pointers@@XZ 100f3f70 f i libucrtd:output.obj
 0001:000f2f90       ?adjust_hexit@?$output_processor@DV?$stream_output_adapter@D@__crt_stdio_output@@V?$format_validation_base@DV?$stream_output_adapter@D@__crt_stdio_output@@@2@@__crt_stdio_output@@CADH_N@Z 100f3f90 f i libucrtd:output.obj
 0001:000f2fe0       ?adjust_hexit@?$output_processor@DV?$stream_output_adapter@D@__crt_stdio_output@@V?$positional_parameter_base@DV?$stream_output_adapter@D@__crt_stdio_output@@@2@@__crt_stdio_output@@CADH_N@Z 100f3fe0 f i libucrtd:output.obj
 0001:000f3030       ?adjust_hexit@?$output_processor@DV?$stream_output_adapter@D@__crt_stdio_output@@V?$standard_base@DV?$stream_output_adapter@D@__crt_stdio_output@@@2@@__crt_stdio_output@@CADH_N@Z 100f4030 f i libucrtd:output.obj
 0001:000f3080       ?adjust_hexit@?$output_processor@DV?$string_output_adapter@D@__crt_stdio_output@@V?$format_validation_base@DV?$string_output_adapter@D@__crt_stdio_output@@@2@@__crt_stdio_output@@CADH_N@Z 100f4080 f i libucrtd:output.obj
 0001:000f30d0       ?adjust_hexit@?$output_processor@DV?$string_output_adapter@D@__crt_stdio_output@@V?$positional_parameter_base@DV?$string_output_adapter@D@__crt_stdio_output@@@2@@__crt_stdio_output@@CADH_N@Z 100f40d0 f i libucrtd:output.obj
 0001:000f3120       ?adjust_hexit@?$output_processor@DV?$string_output_adapter@D@__crt_stdio_output@@V?$standard_base@DV?$string_output_adapter@D@__crt_stdio_output@@@2@@__crt_stdio_output@@CADH_N@Z 100f4120 f i libucrtd:output.obj
 0001:000f3170       ?adjust_hexit@?$output_processor@_WV?$stream_output_adapter@_W@__crt_stdio_output@@V?$format_validation_base@_WV?$stream_output_adapter@_W@__crt_stdio_output@@@2@@__crt_stdio_output@@CADH_N@Z 100f4170 f i libucrtd:output.obj
 0001:000f31c0       ?adjust_hexit@?$output_processor@_WV?$stream_output_adapter@_W@__crt_stdio_output@@V?$positional_parameter_base@_WV?$stream_output_adapter@_W@__crt_stdio_output@@@2@@__crt_stdio_output@@CADH_N@Z 100f41c0 f i libucrtd:output.obj
 0001:000f3210       ?adjust_hexit@?$output_processor@_WV?$stream_output_adapter@_W@__crt_stdio_output@@V?$standard_base@_WV?$stream_output_adapter@_W@__crt_stdio_output@@@2@@__crt_stdio_output@@CADH_N@Z 100f4210 f i libucrtd:output.obj
 0001:000f3260       ?adjust_hexit@?$output_processor@_WV?$string_output_adapter@_W@__crt_stdio_output@@V?$format_validation_base@_WV?$string_output_adapter@_W@__crt_stdio_output@@@2@@__crt_stdio_output@@CADH_N@Z 100f4260 f i libucrtd:output.obj
 0001:000f32b0       ?adjust_hexit@?$output_processor@_WV?$string_output_adapter@_W@__crt_stdio_output@@V?$positional_parameter_base@_WV?$string_output_adapter@_W@__crt_stdio_output@@@2@@__crt_stdio_output@@CADH_N@Z 100f42b0 f i libucrtd:output.obj
 0001:000f3300       ?adjust_hexit@?$output_processor@_WV?$string_output_adapter@_W@__crt_stdio_output@@V?$standard_base@_WV?$string_output_adapter@_W@__crt_stdio_output@@@2@@__crt_stdio_output@@CADH_N@Z 100f4300 f i libucrtd:output.obj
 0001:000f3350       ?advance_to_next_pass@?$positional_parameter_base@DV?$stream_output_adapter@D@__crt_stdio_output@@@__crt_stdio_output@@IAE_NXZ 100f4350 f i libucrtd:output.obj
 0001:000f3410       ?advance_to_next_pass@?$positional_parameter_base@DV?$string_output_adapter@D@__crt_stdio_output@@@__crt_stdio_output@@IAE_NXZ 100f4410 f i libucrtd:output.obj
 0001:000f34d0       ?advance_to_next_pass@?$positional_parameter_base@_WV?$stream_output_adapter@_W@__crt_stdio_output@@@__crt_stdio_output@@IAE_NXZ 100f44d0 f i libucrtd:output.obj
 0001:000f3590       ?advance_to_next_pass@?$positional_parameter_base@_WV?$string_output_adapter@_W@__crt_stdio_output@@@__crt_stdio_output@@IAE_NXZ 100f4590 f i libucrtd:output.obj
 0001:000f3650       ?advance_to_next_pass@?$standard_base@DV?$stream_output_adapter@D@__crt_stdio_output@@@__crt_stdio_output@@IAE_NXZ 100f4650 f i libucrtd:output.obj
 0001:000f36b0       ?advance_to_next_pass@?$standard_base@DV?$string_output_adapter@D@__crt_stdio_output@@@__crt_stdio_output@@IAE_NXZ 100f46b0 f i libucrtd:output.obj
 0001:000f3710       ?advance_to_next_pass@?$standard_base@_WV?$stream_output_adapter@_W@__crt_stdio_output@@@__crt_stdio_output@@IAE_NXZ 100f4710 f i libucrtd:output.obj
 0001:000f3770       ?advance_to_next_pass@?$standard_base@_WV?$string_output_adapter@_W@__crt_stdio_output@@@__crt_stdio_output@@IAE_NXZ 100f4770 f i libucrtd:output.obj
 0001:000f37d0       ?crop_zeroes@__crt_stdio_output@@YAXPADQAU__crt_locale_pointers@@@Z 100f47d0 f i libucrtd:output.obj
 0001:000f3900       ?find_next_state@?$output_processor@DV?$stream_output_adapter@D@__crt_stdio_output@@V?$format_validation_base@DV?$stream_output_adapter@D@__crt_stdio_output@@@2@@__crt_stdio_output@@ABE?AW4state@2@DW432@@Z 100f4900 f i libucrtd:output.obj
 0001:000f3990       ?find_next_state@?$output_processor@DV?$stream_output_adapter@D@__crt_stdio_output@@V?$positional_parameter_base@DV?$stream_output_adapter@D@__crt_stdio_output@@@2@@__crt_stdio_output@@ABE?AW4state@2@DW432@@Z 100f4990 f i libucrtd:output.obj
 0001:000f3a20       ?find_next_state@?$output_processor@DV?$stream_output_adapter@D@__crt_stdio_output@@V?$standard_base@DV?$stream_output_adapter@D@__crt_stdio_output@@@2@@__crt_stdio_output@@ABE?AW4state@2@DW432@@Z 100f4a20 f i libucrtd:output.obj
 0001:000f3ab0       ?find_next_state@?$output_processor@DV?$string_output_adapter@D@__crt_stdio_output@@V?$format_validation_base@DV?$string_output_adapter@D@__crt_stdio_output@@@2@@__crt_stdio_output@@ABE?AW4state@2@DW432@@Z 100f4ab0 f i libucrtd:output.obj
 0001:000f3b40       ?find_next_state@?$output_processor@DV?$string_output_adapter@D@__crt_stdio_output@@V?$positional_parameter_base@DV?$string_output_adapter@D@__crt_stdio_output@@@2@@__crt_stdio_output@@ABE?AW4state@2@DW432@@Z 100f4b40 f i libucrtd:output.obj
 0001:000f3bd0       ?find_next_state@?$output_processor@DV?$string_output_adapter@D@__crt_stdio_output@@V?$standard_base@DV?$string_output_adapter@D@__crt_stdio_output@@@2@@__crt_stdio_output@@ABE?AW4state@2@DW432@@Z 100f4bd0 f i libucrtd:output.obj
 0001:000f3c60       ?find_next_state@?$output_processor@_WV?$stream_output_adapter@_W@__crt_stdio_output@@V?$format_validation_base@_WV?$stream_output_adapter@_W@__crt_stdio_output@@@2@@__crt_stdio_output@@ABE?AW4state@2@_WW432@@Z 100f4c60 f i libucrtd:output.obj
 0001:000f3cf0       ?find_next_state@?$output_processor@_WV?$stream_output_adapter@_W@__crt_stdio_output@@V?$positional_parameter_base@_WV?$stream_output_adapter@_W@__crt_stdio_output@@@2@@__crt_stdio_output@@ABE?AW4state@2@_WW432@@Z 100f4cf0 f i libucrtd:output.obj
 0001:000f3d80       ?find_next_state@?$output_processor@_WV?$stream_output_adapter@_W@__crt_stdio_output@@V?$standard_base@_WV?$stream_output_adapter@_W@__crt_stdio_output@@@2@@__crt_stdio_output@@ABE?AW4state@2@_WW432@@Z 100f4d80 f i libucrtd:output.obj
 0001:000f3e10       ?find_next_state@?$output_processor@_WV?$string_output_adapter@_W@__crt_stdio_output@@V?$format_validation_base@_WV?$string_output_adapter@_W@__crt_stdio_output@@@2@@__crt_stdio_output@@ABE?AW4state@2@_WW432@@Z 100f4e10 f i libucrtd:output.obj
 0001:000f3ea0       ?find_next_state@?$output_processor@_WV?$string_output_adapter@_W@__crt_stdio_output@@V?$positional_parameter_base@_WV?$string_output_adapter@_W@__crt_stdio_output@@@2@@__crt_stdio_output@@ABE?AW4state@2@_WW432@@Z 100f4ea0 f i libucrtd:output.obj
 0001:000f3f30       ?find_next_state@?$output_processor@_WV?$string_output_adapter@_W@__crt_stdio_output@@V?$standard_base@_WV?$string_output_adapter@_W@__crt_stdio_output@@@2@@__crt_stdio_output@@ABE?AW4state@2@_WW432@@Z 100f4f30 f i libucrtd:output.obj
 0001:000f3fc0       ?force_decimal_point@__crt_stdio_output@@YAXPADQAU__crt_locale_pointers@@@Z 100f4fc0 f i libucrtd:output.obj
 0001:000f40c0       ?get@__crt_deferred_errno_cache@@QAEAAHXZ 100f50c0 f i libucrtd:output.obj
 0001:000f40f0       ?get_flags@__crt_stdio_stream@@QBEJXZ 100f50f0 f i libucrtd:output.obj
 0001:000f4120       ?get_parameter_type@?$positional_parameter_base@DV?$stream_output_adapter@D@__crt_stdio_output@@@__crt_stdio_output@@CA?AW4parameter_type@12@F@Z 100f5120 f i libucrtd:output.obj
 0001:000f4130       ?get_parameter_type@?$positional_parameter_base@DV?$stream_output_adapter@D@__crt_stdio_output@@@__crt_stdio_output@@CA?AW4parameter_type@12@G@Z 100f5130 f i libucrtd:output.obj
 0001:000f4140       ?get_parameter_type@?$positional_parameter_base@DV?$stream_output_adapter@D@__crt_stdio_output@@@__crt_stdio_output@@CA?AW4parameter_type@12@H@Z 100f5140 f i libucrtd:output.obj
 0001:000f4150       ?get_parameter_type@?$positional_parameter_base@DV?$stream_output_adapter@D@__crt_stdio_output@@@__crt_stdio_output@@CA?AW4parameter_type@12@I@Z 100f5150 f i libucrtd:output.obj
 0001:000f4160       ?get_parameter_type@?$positional_parameter_base@DV?$stream_output_adapter@D@__crt_stdio_output@@@__crt_stdio_output@@CA?AW4parameter_type@12@U_CRT_DOUBLE@@@Z 100f5160 f i libucrtd:output.obj
 0001:000f4170       ?get_parameter_type@?$positional_parameter_base@DV?$stream_output_adapter@D@__crt_stdio_output@@@__crt_stdio_output@@CA?AW4parameter_type@12@_J@Z 100f5170 f i libucrtd:output.obj
 0001:000f4180       ?get_parameter_type@?$positional_parameter_base@DV?$stream_output_adapter@D@__crt_stdio_output@@@__crt_stdio_output@@CA?AW4parameter_type@12@_K@Z 100f5180 f i libucrtd:output.obj
 0001:000f4190       ?get_parameter_type@?$positional_parameter_base@DV?$stream_output_adapter@D@__crt_stdio_output@@@__crt_stdio_output@@CA?AW4parameter_type@12@_W@Z 100f5190 f i libucrtd:output.obj
 0001:000f41a0       ?get_parameter_type@?$positional_parameter_base@DV?$string_output_adapter@D@__crt_stdio_output@@@__crt_stdio_output@@CA?AW4parameter_type@12@F@Z 100f51a0 f i libucrtd:output.obj
 0001:000f41b0       ?get_parameter_type@?$positional_parameter_base@DV?$string_output_adapter@D@__crt_stdio_output@@@__crt_stdio_output@@CA?AW4parameter_type@12@G@Z 100f51b0 f i libucrtd:output.obj
 0001:000f41c0       ?get_parameter_type@?$positional_parameter_base@DV?$string_output_adapter@D@__crt_stdio_output@@@__crt_stdio_output@@CA?AW4parameter_type@12@H@Z 100f51c0 f i libucrtd:output.obj
 0001:000f41d0       ?get_parameter_type@?$positional_parameter_base@DV?$string_output_adapter@D@__crt_stdio_output@@@__crt_stdio_output@@CA?AW4parameter_type@12@I@Z 100f51d0 f i libucrtd:output.obj
 0001:000f41e0       ?get_parameter_type@?$positional_parameter_base@DV?$string_output_adapter@D@__crt_stdio_output@@@__crt_stdio_output@@CA?AW4parameter_type@12@U_CRT_DOUBLE@@@Z 100f51e0 f i libucrtd:output.obj
 0001:000f41f0       ?get_parameter_type@?$positional_parameter_base@DV?$string_output_adapter@D@__crt_stdio_output@@@__crt_stdio_output@@CA?AW4parameter_type@12@_J@Z 100f51f0 f i libucrtd:output.obj
 0001:000f4200       ?get_parameter_type@?$positional_parameter_base@DV?$string_output_adapter@D@__crt_stdio_output@@@__crt_stdio_output@@CA?AW4parameter_type@12@_K@Z 100f5200 f i libucrtd:output.obj
 0001:000f4210       ?get_parameter_type@?$positional_parameter_base@DV?$string_output_adapter@D@__crt_stdio_output@@@__crt_stdio_output@@CA?AW4parameter_type@12@_W@Z 100f5210 f i libucrtd:output.obj
 0001:000f4220       ?get_parameter_type@?$positional_parameter_base@_WV?$stream_output_adapter@_W@__crt_stdio_output@@@__crt_stdio_output@@CA?AW4parameter_type@12@F@Z 100f5220 f i libucrtd:output.obj
 0001:000f4230       ?get_parameter_type@?$positional_parameter_base@_WV?$stream_output_adapter@_W@__crt_stdio_output@@@__crt_stdio_output@@CA?AW4parameter_type@12@G@Z 100f5230 f i libucrtd:output.obj
 0001:000f4240       ?get_parameter_type@?$positional_parameter_base@_WV?$stream_output_adapter@_W@__crt_stdio_output@@@__crt_stdio_output@@CA?AW4parameter_type@12@H@Z 100f5240 f i libucrtd:output.obj
 0001:000f4250       ?get_parameter_type@?$positional_parameter_base@_WV?$stream_output_adapter@_W@__crt_stdio_output@@@__crt_stdio_output@@CA?AW4parameter_type@12@I@Z 100f5250 f i libucrtd:output.obj
 0001:000f4260       ?get_parameter_type@?$positional_parameter_base@_WV?$stream_output_adapter@_W@__crt_stdio_output@@@__crt_stdio_output@@CA?AW4parameter_type@12@U_CRT_DOUBLE@@@Z 100f5260 f i libucrtd:output.obj
 0001:000f4270       ?get_parameter_type@?$positional_parameter_base@_WV?$stream_output_adapter@_W@__crt_stdio_output@@@__crt_stdio_output@@CA?AW4parameter_type@12@_J@Z 100f5270 f i libucrtd:output.obj
 0001:000f4280       ?get_parameter_type@?$positional_parameter_base@_WV?$stream_output_adapter@_W@__crt_stdio_output@@@__crt_stdio_output@@CA?AW4parameter_type@12@_K@Z 100f5280 f i libucrtd:output.obj
 0001:000f4290       ?get_parameter_type@?$positional_parameter_base@_WV?$stream_output_adapter@_W@__crt_stdio_output@@@__crt_stdio_output@@CA?AW4parameter_type@12@_W@Z 100f5290 f i libucrtd:output.obj
 0001:000f42a0       ?get_parameter_type@?$positional_parameter_base@_WV?$string_output_adapter@_W@__crt_stdio_output@@@__crt_stdio_output@@CA?AW4parameter_type@12@F@Z 100f52a0 f i libucrtd:output.obj
 0001:000f42b0       ?get_parameter_type@?$positional_parameter_base@_WV?$string_output_adapter@_W@__crt_stdio_output@@@__crt_stdio_output@@CA?AW4parameter_type@12@G@Z 100f52b0 f i libucrtd:output.obj
 0001:000f42c0       ?get_parameter_type@?$positional_parameter_base@_WV?$string_output_adapter@_W@__crt_stdio_output@@@__crt_stdio_output@@CA?AW4parameter_type@12@H@Z 100f52c0 f i libucrtd:output.obj
 0001:000f42d0       ?get_parameter_type@?$positional_parameter_base@_WV?$string_output_adapter@_W@__crt_stdio_output@@@__crt_stdio_output@@CA?AW4parameter_type@12@I@Z 100f52d0 f i libucrtd:output.obj
 0001:000f42e0       ?get_parameter_type@?$positional_parameter_base@_WV?$string_output_adapter@_W@__crt_stdio_output@@@__crt_stdio_output@@CA?AW4parameter_type@12@U_CRT_DOUBLE@@@Z 100f52e0 f i libucrtd:output.obj
 0001:000f42f0       ?get_parameter_type@?$positional_parameter_base@_WV?$string_output_adapter@_W@__crt_stdio_output@@@__crt_stdio_output@@CA?AW4parameter_type@12@_J@Z 100f52f0 f i libucrtd:output.obj
 0001:000f4300       ?get_parameter_type@?$positional_parameter_base@_WV?$string_output_adapter@_W@__crt_stdio_output@@@__crt_stdio_output@@CA?AW4parameter_type@12@_K@Z 100f5300 f i libucrtd:output.obj
 0001:000f4310       ?get_parameter_type@?$positional_parameter_base@_WV?$string_output_adapter@_W@__crt_stdio_output@@@__crt_stdio_output@@CA?AW4parameter_type@12@_W@Z 100f5310 f i libucrtd:output.obj
 0001:000f4320       ?has_flag@?$output_processor@DV?$stream_output_adapter@D@__crt_stdio_output@@V?$format_validation_base@DV?$stream_output_adapter@D@__crt_stdio_output@@@2@@__crt_stdio_output@@ABE_NI@Z 100f5320 f i libucrtd:output.obj
 0001:000f4360       ?has_flag@?$output_processor@DV?$stream_output_adapter@D@__crt_stdio_output@@V?$positional_parameter_base@DV?$stream_output_adapter@D@__crt_stdio_output@@@2@@__crt_stdio_output@@ABE_NI@Z 100f5360 f i libucrtd:output.obj
 0001:000f43a0       ?has_flag@?$output_processor@DV?$stream_output_adapter@D@__crt_stdio_output@@V?$standard_base@DV?$stream_output_adapter@D@__crt_stdio_output@@@2@@__crt_stdio_output@@ABE_NI@Z 100f53a0 f i libucrtd:output.obj
 0001:000f43e0       ?has_flag@?$output_processor@DV?$string_output_adapter@D@__crt_stdio_output@@V?$format_validation_base@DV?$string_output_adapter@D@__crt_stdio_output@@@2@@__crt_stdio_output@@ABE_NI@Z 100f53e0 f i libucrtd:output.obj
 0001:000f4420       ?has_flag@?$output_processor@DV?$string_output_adapter@D@__crt_stdio_output@@V?$positional_parameter_base@DV?$string_output_adapter@D@__crt_stdio_output@@@2@@__crt_stdio_output@@ABE_NI@Z 100f5420 f i libucrtd:output.obj
 0001:000f4460       ?has_flag@?$output_processor@DV?$string_output_adapter@D@__crt_stdio_output@@V?$standard_base@DV?$string_output_adapter@D@__crt_stdio_output@@@2@@__crt_stdio_output@@ABE_NI@Z 100f5460 f i libucrtd:output.obj
 0001:000f44a0       ?has_flag@?$output_processor@_WV?$stream_output_adapter@_W@__crt_stdio_output@@V?$format_validation_base@_WV?$stream_output_adapter@_W@__crt_stdio_output@@@2@@__crt_stdio_output@@ABE_NI@Z 100f54a0 f i libucrtd:output.obj
 0001:000f44e0       ?has_flag@?$output_processor@_WV?$stream_output_adapter@_W@__crt_stdio_output@@V?$positional_parameter_base@_WV?$stream_output_adapter@_W@__crt_stdio_output@@@2@@__crt_stdio_output@@ABE_NI@Z 100f54e0 f i libucrtd:output.obj
 0001:000f4520       ?has_flag@?$output_processor@_WV?$stream_output_adapter@_W@__crt_stdio_output@@V?$standard_base@_WV?$stream_output_adapter@_W@__crt_stdio_output@@@2@@__crt_stdio_output@@ABE_NI@Z 100f5520 f i libucrtd:output.obj
 0001:000f4560       ?has_flag@?$output_processor@_WV?$string_output_adapter@_W@__crt_stdio_output@@V?$format_validation_base@_WV?$string_output_adapter@_W@__crt_stdio_output@@@2@@__crt_stdio_output@@ABE_NI@Z 100f5560 f i libucrtd:output.obj
 0001:000f45a0       ?has_flag@?$output_processor@_WV?$string_output_adapter@_W@__crt_stdio_output@@V?$positional_parameter_base@_WV?$string_output_adapter@_W@__crt_stdio_output@@@2@@__crt_stdio_output@@ABE_NI@Z 100f55a0 f i libucrtd:output.obj
 0001:000f45e0       ?has_flag@?$output_processor@_WV?$string_output_adapter@_W@__crt_stdio_output@@V?$standard_base@_WV?$string_output_adapter@_W@__crt_stdio_output@@@2@@__crt_stdio_output@@ABE_NI@Z 100f55e0 f i libucrtd:output.obj
 0001:000f4620       ?is_positional_parameter_reappearance_consistent@?$positional_parameter_base@DV?$stream_output_adapter@D@__crt_stdio_output@@@__crt_stdio_output@@AAE_NABUparameter_data@12@W4parameter_type@12@DW4length_modifier@2@@Z 100f5620 f i libucrtd:output.obj
 0001:000f48d0       ?is_positional_parameter_reappearance_consistent@?$positional_parameter_base@DV?$string_output_adapter@D@__crt_stdio_output@@@__crt_stdio_output@@AAE_NABUparameter_data@12@W4parameter_type@12@DW4length_modifier@2@@Z 100f58d0 f i libucrtd:output.obj
 0001:000f4b80       ?is_positional_parameter_reappearance_consistent@?$positional_parameter_base@_WV?$stream_output_adapter@_W@__crt_stdio_output@@@__crt_stdio_output@@AAE_NABUparameter_data@12@W4parameter_type@12@_WW4length_modifier@2@@Z 100f5b80 f i libucrtd:output.obj
 0001:000f4e30       ?is_positional_parameter_reappearance_consistent@?$positional_parameter_base@_WV?$string_output_adapter@_W@__crt_stdio_output@@@__crt_stdio_output@@AAE_NABUparameter_data@12@W4parameter_type@12@_WW4length_modifier@2@@Z 100f5e30 f i libucrtd:output.obj
 0001:000f50e0       ?is_string_backed@__crt_stdio_stream@@QBE_NXZ 100f60e0 f i libucrtd:output.obj
 0001:000f5120       ?narrow_null_string@?$output_processor@DV?$stream_output_adapter@D@__crt_stdio_output@@V?$format_validation_base@DV?$stream_output_adapter@D@__crt_stdio_output@@@2@@__crt_stdio_output@@CAPADXZ 100f6120 f i libucrtd:output.obj
 0001:000f5130       ?narrow_null_string@?$output_processor@DV?$stream_output_adapter@D@__crt_stdio_output@@V?$positional_parameter_base@DV?$stream_output_adapter@D@__crt_stdio_output@@@2@@__crt_stdio_output@@CAPADXZ 100f6130 f i libucrtd:output.obj
 0001:000f5140       ?narrow_null_string@?$output_processor@DV?$stream_output_adapter@D@__crt_stdio_output@@V?$standard_base@DV?$stream_output_adapter@D@__crt_stdio_output@@@2@@__crt_stdio_output@@CAPADXZ 100f6140 f i libucrtd:output.obj
 0001:000f5150       ?narrow_null_string@?$output_processor@DV?$string_output_adapter@D@__crt_stdio_output@@V?$format_validation_base@DV?$string_output_adapter@D@__crt_stdio_output@@@2@@__crt_stdio_output@@CAPADXZ 100f6150 f i libucrtd:output.obj
 0001:000f5160       ?narrow_null_string@?$output_processor@DV?$string_output_adapter@D@__crt_stdio_output@@V?$positional_parameter_base@DV?$string_output_adapter@D@__crt_stdio_output@@@2@@__crt_stdio_output@@CAPADXZ 100f6160 f i libucrtd:output.obj
 0001:000f5170       ?narrow_null_string@?$output_processor@DV?$string_output_adapter@D@__crt_stdio_output@@V?$standard_base@DV?$string_output_adapter@D@__crt_stdio_output@@@2@@__crt_stdio_output@@CAPADXZ 100f6170 f i libucrtd:output.obj
 0001:000f5180       ?narrow_null_string@?$output_processor@_WV?$stream_output_adapter@_W@__crt_stdio_output@@V?$format_validation_base@_WV?$stream_output_adapter@_W@__crt_stdio_output@@@2@@__crt_stdio_output@@CAPADXZ 100f6180 f i libucrtd:output.obj
 0001:000f5190       ?narrow_null_string@?$output_processor@_WV?$stream_output_adapter@_W@__crt_stdio_output@@V?$positional_parameter_base@_WV?$stream_output_adapter@_W@__crt_stdio_output@@@2@@__crt_stdio_output@@CAPADXZ 100f6190 f i libucrtd:output.obj
 0001:000f51a0       ?narrow_null_string@?$output_processor@_WV?$stream_output_adapter@_W@__crt_stdio_output@@V?$standard_base@_WV?$stream_output_adapter@_W@__crt_stdio_output@@@2@@__crt_stdio_output@@CAPADXZ 100f61a0 f i libucrtd:output.obj
 0001:000f51b0       ?narrow_null_string@?$output_processor@_WV?$string_output_adapter@_W@__crt_stdio_output@@V?$format_validation_base@_WV?$string_output_adapter@_W@__crt_stdio_output@@@2@@__crt_stdio_output@@CAPADXZ 100f61b0 f i libucrtd:output.obj
 0001:000f51c0       ?narrow_null_string@?$output_processor@_WV?$string_output_adapter@_W@__crt_stdio_output@@V?$positional_parameter_base@_WV?$string_output_adapter@_W@__crt_stdio_output@@@2@@__crt_stdio_output@@CAPADXZ 100f61c0 f i libucrtd:output.obj
 0001:000f51d0       ?narrow_null_string@?$output_processor@_WV?$string_output_adapter@_W@__crt_stdio_output@@V?$standard_base@_WV?$string_output_adapter@_W@__crt_stdio_output@@@2@@__crt_stdio_output@@CAPADXZ 100f61d0 f i libucrtd:output.obj
 0001:000f51e0       ?parse_int_from_format_string@?$output_processor@DV?$stream_output_adapter@D@__crt_stdio_output@@V?$format_validation_base@DV?$stream_output_adapter@D@__crt_stdio_output@@@2@@__crt_stdio_output@@AAE_NQAH@Z 100f61e0 f i libucrtd:output.obj
 0001:000f52c0       ?parse_int_from_format_string@?$output_processor@DV?$stream_output_adapter@D@__crt_stdio_output@@V?$positional_parameter_base@DV?$stream_output_adapter@D@__crt_stdio_output@@@2@@__crt_stdio_output@@AAE_NQAH@Z 100f62c0 f i libucrtd:output.obj
 0001:000f53a0       ?parse_int_from_format_string@?$output_processor@DV?$stream_output_adapter@D@__crt_stdio_output@@V?$standard_base@DV?$stream_output_adapter@D@__crt_stdio_output@@@2@@__crt_stdio_output@@AAE_NQAH@Z 100f63a0 f i libucrtd:output.obj
 0001:000f5480       ?parse_int_from_format_string@?$output_processor@DV?$string_output_adapter@D@__crt_stdio_output@@V?$format_validation_base@DV?$string_output_adapter@D@__crt_stdio_output@@@2@@__crt_stdio_output@@AAE_NQAH@Z 100f6480 f i libucrtd:output.obj
 0001:000f5560       ?parse_int_from_format_string@?$output_processor@DV?$string_output_adapter@D@__crt_stdio_output@@V?$positional_parameter_base@DV?$string_output_adapter@D@__crt_stdio_output@@@2@@__crt_stdio_output@@AAE_NQAH@Z 100f6560 f i libucrtd:output.obj
 0001:000f5640       ?parse_int_from_format_string@?$output_processor@DV?$string_output_adapter@D@__crt_stdio_output@@V?$standard_base@DV?$string_output_adapter@D@__crt_stdio_output@@@2@@__crt_stdio_output@@AAE_NQAH@Z 100f6640 f i libucrtd:output.obj
 0001:000f5720       ?parse_int_from_format_string@?$output_processor@_WV?$stream_output_adapter@_W@__crt_stdio_output@@V?$format_validation_base@_WV?$stream_output_adapter@_W@__crt_stdio_output@@@2@@__crt_stdio_output@@AAE_NQAH@Z 100f6720 f i libucrtd:output.obj
 0001:000f5800       ?parse_int_from_format_string@?$output_processor@_WV?$stream_output_adapter@_W@__crt_stdio_output@@V?$positional_parameter_base@_WV?$stream_output_adapter@_W@__crt_stdio_output@@@2@@__crt_stdio_output@@AAE_NQAH@Z 100f6800 f i libucrtd:output.obj
 0001:000f58e0       ?parse_int_from_format_string@?$output_processor@_WV?$stream_output_adapter@_W@__crt_stdio_output@@V?$standard_base@_WV?$stream_output_adapter@_W@__crt_stdio_output@@@2@@__crt_stdio_output@@AAE_NQAH@Z 100f68e0 f i libucrtd:output.obj
 0001:000f59c0       ?parse_int_from_format_string@?$output_processor@_WV?$string_output_adapter@_W@__crt_stdio_output@@V?$format_validation_base@_WV?$string_output_adapter@_W@__crt_stdio_output@@@2@@__crt_stdio_output@@AAE_NQAH@Z 100f69c0 f i libucrtd:output.obj
 0001:000f5aa0       ?parse_int_from_format_string@?$output_processor@_WV?$string_output_adapter@_W@__crt_stdio_output@@V?$positional_parameter_base@_WV?$string_output_adapter@_W@__crt_stdio_output@@@2@@__crt_stdio_output@@AAE_NQAH@Z 100f6aa0 f i libucrtd:output.obj
 0001:000f5b80       ?parse_int_from_format_string@?$output_processor@_WV?$string_output_adapter@_W@__crt_stdio_output@@V?$standard_base@_WV?$string_output_adapter@_W@__crt_stdio_output@@@2@@__crt_stdio_output@@AAE_NQAH@Z 100f6b80 f i libucrtd:output.obj
 0001:000f5c60       ?process@?$output_processor@DV?$stream_output_adapter@D@__crt_stdio_output@@V?$format_validation_base@DV?$stream_output_adapter@D@__crt_stdio_output@@@2@@__crt_stdio_output@@QAEHXZ 100f6c60 f i libucrtd:output.obj
 0001:000f5fb0       ?process@?$output_processor@DV?$stream_output_adapter@D@__crt_stdio_output@@V?$positional_parameter_base@DV?$stream_output_adapter@D@__crt_stdio_output@@@2@@__crt_stdio_output@@QAEHXZ 100f6fb0 f i libucrtd:output.obj
 0001:000f6300       ?process@?$output_processor@DV?$stream_output_adapter@D@__crt_stdio_output@@V?$standard_base@DV?$stream_output_adapter@D@__crt_stdio_output@@@2@@__crt_stdio_output@@QAEHXZ 100f7300 f i libucrtd:output.obj
 0001:000f6650       ?process@?$output_processor@DV?$string_output_adapter@D@__crt_stdio_output@@V?$format_validation_base@DV?$string_output_adapter@D@__crt_stdio_output@@@2@@__crt_stdio_output@@QAEHXZ 100f7650 f i libucrtd:output.obj
 0001:000f69a0       ?process@?$output_processor@DV?$string_output_adapter@D@__crt_stdio_output@@V?$positional_parameter_base@DV?$string_output_adapter@D@__crt_stdio_output@@@2@@__crt_stdio_output@@QAEHXZ 100f79a0 f i libucrtd:output.obj
 0001:000f6cf0       ?process@?$output_processor@DV?$string_output_adapter@D@__crt_stdio_output@@V?$standard_base@DV?$string_output_adapter@D@__crt_stdio_output@@@2@@__crt_stdio_output@@QAEHXZ 100f7cf0 f i libucrtd:output.obj
 0001:000f7040       ?process@?$output_processor@_WV?$stream_output_adapter@_W@__crt_stdio_output@@V?$format_validation_base@_WV?$stream_output_adapter@_W@__crt_stdio_output@@@2@@__crt_stdio_output@@QAEHXZ 100f8040 f i libucrtd:output.obj
 0001:000f7390       ?process@?$output_processor@_WV?$stream_output_adapter@_W@__crt_stdio_output@@V?$positional_parameter_base@_WV?$stream_output_adapter@_W@__crt_stdio_output@@@2@@__crt_stdio_output@@QAEHXZ 100f8390 f i libucrtd:output.obj
 0001:000f76e0       ?process@?$output_processor@_WV?$stream_output_adapter@_W@__crt_stdio_output@@V?$standard_base@_WV?$stream_output_adapter@_W@__crt_stdio_output@@@2@@__crt_stdio_output@@QAEHXZ 100f86e0 f i libucrtd:output.obj
 0001:000f7a30       ?process@?$output_processor@_WV?$string_output_adapter@_W@__crt_stdio_output@@V?$format_validation_base@_WV?$string_output_adapter@_W@__crt_stdio_output@@@2@@__crt_stdio_output@@QAEHXZ 100f8a30 f i libucrtd:output.obj
 0001:000f7d80       ?process@?$output_processor@_WV?$string_output_adapter@_W@__crt_stdio_output@@V?$positional_parameter_base@_WV?$string_output_adapter@_W@__crt_stdio_output@@@2@@__crt_stdio_output@@QAEHXZ 100f8d80 f i libucrtd:output.obj
 0001:000f80d0       ?process@?$output_processor@_WV?$string_output_adapter@_W@__crt_stdio_output@@V?$standard_base@_WV?$string_output_adapter@_W@__crt_stdio_output@@@2@@__crt_stdio_output@@QAEHXZ 100f90d0 f i libucrtd:output.obj
 0001:000f8420       ?public_stream@__crt_stdio_stream@@QBEPAU_iobuf@@XZ 100f9420 f i libucrtd:output.obj
 0001:000f8440       ?set_flag@?$output_processor@DV?$stream_output_adapter@D@__crt_stdio_output@@V?$format_validation_base@DV?$stream_output_adapter@D@__crt_stdio_output@@@2@@__crt_stdio_output@@AAEXI@Z 100f9440 f i libucrtd:output.obj
 0001:000f8470       ?set_flag@?$output_processor@DV?$stream_output_adapter@D@__crt_stdio_output@@V?$positional_parameter_base@DV?$stream_output_adapter@D@__crt_stdio_output@@@2@@__crt_stdio_output@@AAEXI@Z 100f9470 f i libucrtd:output.obj
 0001:000f84a0       ?set_flag@?$output_processor@DV?$stream_output_adapter@D@__crt_stdio_output@@V?$standard_base@DV?$stream_output_adapter@D@__crt_stdio_output@@@2@@__crt_stdio_output@@AAEXI@Z 100f94a0 f i libucrtd:output.obj
 0001:000f84d0       ?set_flag@?$output_processor@DV?$string_output_adapter@D@__crt_stdio_output@@V?$format_validation_base@DV?$string_output_adapter@D@__crt_stdio_output@@@2@@__crt_stdio_output@@AAEXI@Z 100f94d0 f i libucrtd:output.obj
 0001:000f8500       ?set_flag@?$output_processor@DV?$string_output_adapter@D@__crt_stdio_output@@V?$positional_parameter_base@DV?$string_output_adapter@D@__crt_stdio_output@@@2@@__crt_stdio_output@@AAEXI@Z 100f9500 f i libucrtd:output.obj
 0001:000f8530       ?set_flag@?$output_processor@DV?$string_output_adapter@D@__crt_stdio_output@@V?$standard_base@DV?$string_output_adapter@D@__crt_stdio_output@@@2@@__crt_stdio_output@@AAEXI@Z 100f9530 f i libucrtd:output.obj
 0001:000f8560       ?set_flag@?$output_processor@_WV?$stream_output_adapter@_W@__crt_stdio_output@@V?$format_validation_base@_WV?$stream_output_adapter@_W@__crt_stdio_output@@@2@@__crt_stdio_output@@AAEXI@Z 100f9560 f i libucrtd:output.obj
 0001:000f8590       ?set_flag@?$output_processor@_WV?$stream_output_adapter@_W@__crt_stdio_output@@V?$positional_parameter_base@_WV?$stream_output_adapter@_W@__crt_stdio_output@@@2@@__crt_stdio_output@@AAEXI@Z 100f9590 f i libucrtd:output.obj
 0001:000f85c0       ?set_flag@?$output_processor@_WV?$stream_output_adapter@_W@__crt_stdio_output@@V?$standard_base@_WV?$stream_output_adapter@_W@__crt_stdio_output@@@2@@__crt_stdio_output@@AAEXI@Z 100f95c0 f i libucrtd:output.obj
 0001:000f85f0       ?set_flag@?$output_processor@_WV?$string_output_adapter@_W@__crt_stdio_output@@V?$format_validation_base@_WV?$string_output_adapter@_W@__crt_stdio_output@@@2@@__crt_stdio_output@@AAEXI@Z 100f95f0 f i libucrtd:output.obj
 0001:000f8620       ?set_flag@?$output_processor@_WV?$string_output_adapter@_W@__crt_stdio_output@@V?$positional_parameter_base@_WV?$string_output_adapter@_W@__crt_stdio_output@@@2@@__crt_stdio_output@@AAEXI@Z 100f9620 f i libucrtd:output.obj
 0001:000f8650       ?set_flag@?$output_processor@_WV?$string_output_adapter@_W@__crt_stdio_output@@V?$standard_base@_WV?$string_output_adapter@_W@__crt_stdio_output@@@2@@__crt_stdio_output@@AAEXI@Z 100f9650 f i libucrtd:output.obj
 0001:000f8680       ?should_format@?$positional_parameter_base@DV?$stream_output_adapter@D@__crt_stdio_output@@@__crt_stdio_output@@IAE_NXZ 100f9680 f i libucrtd:output.obj
 0001:000f86d0       ?should_format@?$positional_parameter_base@DV?$string_output_adapter@D@__crt_stdio_output@@@__crt_stdio_output@@IAE_NXZ 100f96d0 f i libucrtd:output.obj
 0001:000f8720       ?should_format@?$positional_parameter_base@_WV?$stream_output_adapter@_W@__crt_stdio_output@@@__crt_stdio_output@@IAE_NXZ 100f9720 f i libucrtd:output.obj
 0001:000f8770       ?should_format@?$positional_parameter_base@_WV?$string_output_adapter@_W@__crt_stdio_output@@@__crt_stdio_output@@IAE_NXZ 100f9770 f i libucrtd:output.obj
 0001:000f87c0       ?should_format@?$standard_base@DV?$stream_output_adapter@D@__crt_stdio_output@@@__crt_stdio_output@@IAE_NXZ 100f97c0 f i libucrtd:output.obj
 0001:000f87e0       ?should_format@?$standard_base@DV?$string_output_adapter@D@__crt_stdio_output@@@__crt_stdio_output@@IAE_NXZ 100f97e0 f i libucrtd:output.obj
 0001:000f8800       ?should_format@?$standard_base@_WV?$stream_output_adapter@_W@__crt_stdio_output@@@__crt_stdio_output@@IAE_NXZ 100f9800 f i libucrtd:output.obj
 0001:000f8820       ?should_format@?$standard_base@_WV?$string_output_adapter@_W@__crt_stdio_output@@@__crt_stdio_output@@IAE_NXZ 100f9820 f i libucrtd:output.obj
 0001:000f8840       ?should_skip_normal_state_processing@?$positional_parameter_base@DV?$stream_output_adapter@D@__crt_stdio_output@@@__crt_stdio_output@@IAE_NXZ 100f9840 f i libucrtd:output.obj
 0001:000f88a0       ?should_skip_normal_state_processing@?$positional_parameter_base@DV?$string_output_adapter@D@__crt_stdio_output@@@__crt_stdio_output@@IAE_NXZ 100f98a0 f i libucrtd:output.obj
 0001:000f8900       ?should_skip_normal_state_processing@?$positional_parameter_base@_WV?$stream_output_adapter@_W@__crt_stdio_output@@@__crt_stdio_output@@IAE_NXZ 100f9900 f i libucrtd:output.obj
 0001:000f8960       ?should_skip_normal_state_processing@?$positional_parameter_base@_WV?$string_output_adapter@_W@__crt_stdio_output@@@__crt_stdio_output@@IAE_NXZ 100f9960 f i libucrtd:output.obj
 0001:000f89c0       ?should_skip_normal_state_processing@?$standard_base@DV?$stream_output_adapter@D@__crt_stdio_output@@@__crt_stdio_output@@IAE_NXZ 100f99c0 f i libucrtd:output.obj
 0001:000f89e0       ?should_skip_normal_state_processing@?$standard_base@DV?$string_output_adapter@D@__crt_stdio_output@@@__crt_stdio_output@@IAE_NXZ 100f99e0 f i libucrtd:output.obj
 0001:000f8a00       ?should_skip_normal_state_processing@?$standard_base@_WV?$stream_output_adapter@_W@__crt_stdio_output@@@__crt_stdio_output@@IAE_NXZ 100f9a00 f i libucrtd:output.obj
 0001:000f8a20       ?should_skip_normal_state_processing@?$standard_base@_WV?$string_output_adapter@_W@__crt_stdio_output@@@__crt_stdio_output@@IAE_NXZ 100f9a20 f i libucrtd:output.obj
 0001:000f8a40       ?should_skip_type_state_output@?$positional_parameter_base@DV?$stream_output_adapter@D@__crt_stdio_output@@@__crt_stdio_output@@IBE_NXZ 100f9a40 f i libucrtd:output.obj
 0001:000f8a90       ?should_skip_type_state_output@?$positional_parameter_base@DV?$string_output_adapter@D@__crt_stdio_output@@@__crt_stdio_output@@IBE_NXZ 100f9a90 f i libucrtd:output.obj
 0001:000f8ae0       ?should_skip_type_state_output@?$positional_parameter_base@_WV?$stream_output_adapter@_W@__crt_stdio_output@@@__crt_stdio_output@@IBE_NXZ 100f9ae0 f i libucrtd:output.obj
 0001:000f8b30       ?should_skip_type_state_output@?$positional_parameter_base@_WV?$string_output_adapter@_W@__crt_stdio_output@@@__crt_stdio_output@@IBE_NXZ 100f9b30 f i libucrtd:output.obj
 0001:000f8b80       ?should_skip_type_state_output@?$standard_base@DV?$stream_output_adapter@D@__crt_stdio_output@@@__crt_stdio_output@@IBE_NXZ 100f9b80 f i libucrtd:output.obj
 0001:000f8ba0       ?should_skip_type_state_output@?$standard_base@DV?$string_output_adapter@D@__crt_stdio_output@@@__crt_stdio_output@@IBE_NXZ 100f9ba0 f i libucrtd:output.obj
 0001:000f8bc0       ?should_skip_type_state_output@?$standard_base@_WV?$stream_output_adapter@_W@__crt_stdio_output@@@__crt_stdio_output@@IBE_NXZ 100f9bc0 f i libucrtd:output.obj
 0001:000f8be0       ?should_skip_type_state_output@?$standard_base@_WV?$string_output_adapter@_W@__crt_stdio_output@@@__crt_stdio_output@@IBE_NXZ 100f9be0 f i libucrtd:output.obj
 0001:000f8c00       ?state_case_dot@?$output_processor@DV?$stream_output_adapter@D@__crt_stdio_output@@V?$format_validation_base@DV?$stream_output_adapter@D@__crt_stdio_output@@@2@@__crt_stdio_output@@AAE_NXZ 100f9c00 f i libucrtd:output.obj
 0001:000f8c20       ?state_case_dot@?$output_processor@DV?$stream_output_adapter@D@__crt_stdio_output@@V?$positional_parameter_base@DV?$stream_output_adapter@D@__crt_stdio_output@@@2@@__crt_stdio_output@@AAE_NXZ 100f9c20 f i libucrtd:output.obj
 0001:000f8c40       ?state_case_dot@?$output_processor@DV?$stream_output_adapter@D@__crt_stdio_output@@V?$standard_base@DV?$stream_output_adapter@D@__crt_stdio_output@@@2@@__crt_stdio_output@@AAE_NXZ 100f9c40 f i libucrtd:output.obj
 0001:000f8c60       ?state_case_dot@?$output_processor@DV?$string_output_adapter@D@__crt_stdio_output@@V?$format_validation_base@DV?$string_output_adapter@D@__crt_stdio_output@@@2@@__crt_stdio_output@@AAE_NXZ 100f9c60 f i libucrtd:output.obj
 0001:000f8c80       ?state_case_dot@?$output_processor@DV?$string_output_adapter@D@__crt_stdio_output@@V?$positional_parameter_base@DV?$string_output_adapter@D@__crt_stdio_output@@@2@@__crt_stdio_output@@AAE_NXZ 100f9c80 f i libucrtd:output.obj
 0001:000f8ca0       ?state_case_dot@?$output_processor@DV?$string_output_adapter@D@__crt_stdio_output@@V?$standard_base@DV?$string_output_adapter@D@__crt_stdio_output@@@2@@__crt_stdio_output@@AAE_NXZ 100f9ca0 f i libucrtd:output.obj
 0001:000f8cc0       ?state_case_dot@?$output_processor@_WV?$stream_output_adapter@_W@__crt_stdio_output@@V?$format_validation_base@_WV?$stream_output_adapter@_W@__crt_stdio_output@@@2@@__crt_stdio_output@@AAE_NXZ 100f9cc0 f i libucrtd:output.obj
 0001:000f8ce0       ?state_case_dot@?$output_processor@_WV?$stream_output_adapter@_W@__crt_stdio_output@@V?$positional_parameter_base@_WV?$stream_output_adapter@_W@__crt_stdio_output@@@2@@__crt_stdio_output@@AAE_NXZ 100f9ce0 f i libucrtd:output.obj
 0001:000f8d00       ?state_case_dot@?$output_processor@_WV?$stream_output_adapter@_W@__crt_stdio_output@@V?$standard_base@_WV?$stream_output_adapter@_W@__crt_stdio_output@@@2@@__crt_stdio_output@@AAE_NXZ 100f9d00 f i libucrtd:output.obj
 0001:000f8d20       ?state_case_dot@?$output_processor@_WV?$string_output_adapter@_W@__crt_stdio_output@@V?$format_validation_base@_WV?$string_output_adapter@_W@__crt_stdio_output@@@2@@__crt_stdio_output@@AAE_NXZ 100f9d20 f i libucrtd:output.obj
 0001:000f8d40       ?state_case_dot@?$output_processor@_WV?$string_output_adapter@_W@__crt_stdio_output@@V?$positional_parameter_base@_WV?$string_output_adapter@_W@__crt_stdio_output@@@2@@__crt_stdio_output@@AAE_NXZ 100f9d40 f i libucrtd:output.obj
 0001:000f8d60       ?state_case_dot@?$output_processor@_WV?$string_output_adapter@_W@__crt_stdio_output@@V?$standard_base@_WV?$string_output_adapter@_W@__crt_stdio_output@@@2@@__crt_stdio_output@@AAE_NXZ 100f9d60 f i libucrtd:output.obj
 0001:000f8d80       ?state_case_flag@?$output_processor@DV?$stream_output_adapter@D@__crt_stdio_output@@V?$format_validation_base@DV?$stream_output_adapter@D@__crt_stdio_output@@@2@@__crt_stdio_output@@AAE_NXZ 100f9d80 f i libucrtd:output.obj
 0001:000f8e50       ?state_case_flag@?$output_processor@DV?$stream_output_adapter@D@__crt_stdio_output@@V?$positional_parameter_base@DV?$stream_output_adapter@D@__crt_stdio_output@@@2@@__crt_stdio_output@@AAE_NXZ 100f9e50 f i libucrtd:output.obj
 0001:000f8f20       ?state_case_flag@?$output_processor@DV?$stream_output_adapter@D@__crt_stdio_output@@V?$standard_base@DV?$stream_output_adapter@D@__crt_stdio_output@@@2@@__crt_stdio_output@@AAE_NXZ 100f9f20 f i libucrtd:output.obj
 0001:000f8ff0       ?state_case_flag@?$output_processor@DV?$string_output_adapter@D@__crt_stdio_output@@V?$format_validation_base@DV?$string_output_adapter@D@__crt_stdio_output@@@2@@__crt_stdio_output@@AAE_NXZ 100f9ff0 f i libucrtd:output.obj
 0001:000f90c0       ?state_case_flag@?$output_processor@DV?$string_output_adapter@D@__crt_stdio_output@@V?$positional_parameter_base@DV?$string_output_adapter@D@__crt_stdio_output@@@2@@__crt_stdio_output@@AAE_NXZ 100fa0c0 f i libucrtd:output.obj
 0001:000f9190       ?state_case_flag@?$output_processor@DV?$string_output_adapter@D@__crt_stdio_output@@V?$standard_base@DV?$string_output_adapter@D@__crt_stdio_output@@@2@@__crt_stdio_output@@AAE_NXZ 100fa190 f i libucrtd:output.obj
 0001:000f9260       ?state_case_flag@?$output_processor@_WV?$stream_output_adapter@_W@__crt_stdio_output@@V?$format_validation_base@_WV?$stream_output_adapter@_W@__crt_stdio_output@@@2@@__crt_stdio_output@@AAE_NXZ 100fa260 f i libucrtd:output.obj
 0001:000f9330       ?state_case_flag@?$output_processor@_WV?$stream_output_adapter@_W@__crt_stdio_output@@V?$positional_parameter_base@_WV?$stream_output_adapter@_W@__crt_stdio_output@@@2@@__crt_stdio_output@@AAE_NXZ 100fa330 f i libucrtd:output.obj
 0001:000f9400       ?state_case_flag@?$output_processor@_WV?$stream_output_adapter@_W@__crt_stdio_output@@V?$standard_base@_WV?$stream_output_adapter@_W@__crt_stdio_output@@@2@@__crt_stdio_output@@AAE_NXZ 100fa400 f i libucrtd:output.obj
 0001:000f94d0       ?state_case_flag@?$output_processor@_WV?$string_output_adapter@_W@__crt_stdio_output@@V?$format_validation_base@_WV?$string_output_adapter@_W@__crt_stdio_output@@@2@@__crt_stdio_output@@AAE_NXZ 100fa4d0 f i libucrtd:output.obj
 0001:000f95a0       ?state_case_flag@?$output_processor@_WV?$string_output_adapter@_W@__crt_stdio_output@@V?$positional_parameter_base@_WV?$string_output_adapter@_W@__crt_stdio_output@@@2@@__crt_stdio_output@@AAE_NXZ 100fa5a0 f i libucrtd:output.obj
 0001:000f9670       ?state_case_flag@?$output_processor@_WV?$string_output_adapter@_W@__crt_stdio_output@@V?$standard_base@_WV?$string_output_adapter@_W@__crt_stdio_output@@@2@@__crt_stdio_output@@AAE_NXZ 100fa670 f i libucrtd:output.obj
 0001:000f9740       ?state_case_normal@?$output_processor@DV?$stream_output_adapter@D@__crt_stdio_output@@V?$format_validation_base@DV?$stream_output_adapter@D@__crt_stdio_output@@@2@@__crt_stdio_output@@AAE_NXZ 100fa740 f i libucrtd:output.obj
 0001:000f9820       ?state_case_normal@?$output_processor@DV?$stream_output_adapter@D@__crt_stdio_output@@V?$positional_parameter_base@DV?$stream_output_adapter@D@__crt_stdio_output@@@2@@__crt_stdio_output@@AAE_NXZ 100fa820 f i libucrtd:output.obj
 0001:000f9900       ?state_case_normal@?$output_processor@DV?$stream_output_adapter@D@__crt_stdio_output@@V?$standard_base@DV?$stream_output_adapter@D@__crt_stdio_output@@@2@@__crt_stdio_output@@AAE_NXZ 100fa900 f i libucrtd:output.obj
 0001:000f99e0       ?state_case_normal@?$output_processor@DV?$string_output_adapter@D@__crt_stdio_output@@V?$format_validation_base@DV?$string_output_adapter@D@__crt_stdio_output@@@2@@__crt_stdio_output@@AAE_NXZ 100fa9e0 f i libucrtd:output.obj
 0001:000f9ac0       ?state_case_normal@?$output_processor@DV?$string_output_adapter@D@__crt_stdio_output@@V?$positional_parameter_base@DV?$string_output_adapter@D@__crt_stdio_output@@@2@@__crt_stdio_output@@AAE_NXZ 100faac0 f i libucrtd:output.obj
 0001:000f9ba0       ?state_case_normal@?$output_processor@DV?$string_output_adapter@D@__crt_stdio_output@@V?$standard_base@DV?$string_output_adapter@D@__crt_stdio_output@@@2@@__crt_stdio_output@@AAE_NXZ 100faba0 f i libucrtd:output.obj
 0001:000f9c80       ?state_case_normal@?$output_processor@_WV?$stream_output_adapter@_W@__crt_stdio_output@@V?$format_validation_base@_WV?$stream_output_adapter@_W@__crt_stdio_output@@@2@@__crt_stdio_output@@AAE_NXZ 100fac80 f i libucrtd:output.obj
 0001:000f9d60       ?state_case_normal@?$output_processor@_WV?$stream_output_adapter@_W@__crt_stdio_output@@V?$positional_parameter_base@_WV?$stream_output_adapter@_W@__crt_stdio_output@@@2@@__crt_stdio_output@@AAE_NXZ 100fad60 f i libucrtd:output.obj
 0001:000f9e40       ?state_case_normal@?$output_processor@_WV?$stream_output_adapter@_W@__crt_stdio_output@@V?$standard_base@_WV?$stream_output_adapter@_W@__crt_stdio_output@@@2@@__crt_stdio_output@@AAE_NXZ 100fae40 f i libucrtd:output.obj
 0001:000f9f20       ?state_case_normal@?$output_processor@_WV?$string_output_adapter@_W@__crt_stdio_output@@V?$format_validation_base@_WV?$string_output_adapter@_W@__crt_stdio_output@@@2@@__crt_stdio_output@@AAE_NXZ 100faf20 f i libucrtd:output.obj
 0001:000fa000       ?state_case_normal@?$output_processor@_WV?$string_output_adapter@_W@__crt_stdio_output@@V?$positional_parameter_base@_WV?$string_output_adapter@_W@__crt_stdio_output@@@2@@__crt_stdio_output@@AAE_NXZ 100fb000 f i libucrtd:output.obj
 0001:000fa0e0       ?state_case_normal@?$output_processor@_WV?$string_output_adapter@_W@__crt_stdio_output@@V?$standard_base@_WV?$string_output_adapter@_W@__crt_stdio_output@@@2@@__crt_stdio_output@@AAE_NXZ 100fb0e0 f i libucrtd:output.obj
 0001:000fa1c0       ?state_case_normal_common@?$output_processor@DV?$stream_output_adapter@D@__crt_stdio_output@@V?$format_validation_base@DV?$stream_output_adapter@D@__crt_stdio_output@@@2@@__crt_stdio_output@@AAE_NXZ 100fb1c0 f i libucrtd:output.obj
 0001:000fa220       ?state_case_normal_common@?$output_processor@DV?$stream_output_adapter@D@__crt_stdio_output@@V?$positional_parameter_base@DV?$stream_output_adapter@D@__crt_stdio_output@@@2@@__crt_stdio_output@@AAE_NXZ 100fb220 f i libucrtd:output.obj
 0001:000fa280       ?state_case_normal_common@?$output_processor@DV?$stream_output_adapter@D@__crt_stdio_output@@V?$standard_base@DV?$stream_output_adapter@D@__crt_stdio_output@@@2@@__crt_stdio_output@@AAE_NXZ 100fb280 f i libucrtd:output.obj
 0001:000fa2e0       ?state_case_normal_common@?$output_processor@DV?$string_output_adapter@D@__crt_stdio_output@@V?$format_validation_base@DV?$string_output_adapter@D@__crt_stdio_output@@@2@@__crt_stdio_output@@AAE_NXZ 100fb2e0 f i libucrtd:output.obj
 0001:000fa340       ?state_case_normal_common@?$output_processor@DV?$string_output_adapter@D@__crt_stdio_output@@V?$positional_parameter_base@DV?$string_output_adapter@D@__crt_stdio_output@@@2@@__crt_stdio_output@@AAE_NXZ 100fb340 f i libucrtd:output.obj
 0001:000fa3a0       ?state_case_normal_common@?$output_processor@DV?$string_output_adapter@D@__crt_stdio_output@@V?$standard_base@DV?$string_output_adapter@D@__crt_stdio_output@@@2@@__crt_stdio_output@@AAE_NXZ 100fb3a0 f i libucrtd:output.obj
 0001:000fa400       ?state_case_normal_common@?$output_processor@_WV?$stream_output_adapter@_W@__crt_stdio_output@@V?$format_validation_base@_WV?$stream_output_adapter@_W@__crt_stdio_output@@@2@@__crt_stdio_output@@AAE_NXZ 100fb400 f i libucrtd:output.obj
 0001:000fa460       ?state_case_normal_common@?$output_processor@_WV?$stream_output_adapter@_W@__crt_stdio_output@@V?$positional_parameter_base@_WV?$stream_output_adapter@_W@__crt_stdio_output@@@2@@__crt_stdio_output@@AAE_NXZ 100fb460 f i libucrtd:output.obj
 0001:000fa4c0       ?state_case_normal_common@?$output_processor@_WV?$stream_output_adapter@_W@__crt_stdio_output@@V?$standard_base@_WV?$stream_output_adapter@_W@__crt_stdio_output@@@2@@__crt_stdio_output@@AAE_NXZ 100fb4c0 f i libucrtd:output.obj
 0001:000fa520       ?state_case_normal_common@?$output_processor@_WV?$string_output_adapter@_W@__crt_stdio_output@@V?$format_validation_base@_WV?$string_output_adapter@_W@__crt_stdio_output@@@2@@__crt_stdio_output@@AAE_NXZ 100fb520 f i libucrtd:output.obj
 0001:000fa580       ?state_case_normal_common@?$output_processor@_WV?$string_output_adapter@_W@__crt_stdio_output@@V?$positional_parameter_base@_WV?$string_output_adapter@_W@__crt_stdio_output@@@2@@__crt_stdio_output@@AAE_NXZ 100fb580 f i libucrtd:output.obj
 0001:000fa5e0       ?state_case_normal_common@?$output_processor@_WV?$string_output_adapter@_W@__crt_stdio_output@@V?$standard_base@_WV?$string_output_adapter@_W@__crt_stdio_output@@@2@@__crt_stdio_output@@AAE_NXZ 100fb5e0 f i libucrtd:output.obj
 0001:000fa640       ?state_case_normal_tchar@?$output_processor@DV?$stream_output_adapter@D@__crt_stdio_output@@V?$format_validation_base@DV?$stream_output_adapter@D@__crt_stdio_output@@@2@@__crt_stdio_output@@AAE_ND@Z 100fb640 f i libucrtd:output.obj
 0001:000fa770       ?state_case_normal_tchar@?$output_processor@DV?$stream_output_adapter@D@__crt_stdio_output@@V?$positional_parameter_base@DV?$stream_output_adapter@D@__crt_stdio_output@@@2@@__crt_stdio_output@@AAE_ND@Z 100fb770 f i libucrtd:output.obj
 0001:000fa8a0       ?state_case_normal_tchar@?$output_processor@DV?$stream_output_adapter@D@__crt_stdio_output@@V?$standard_base@DV?$stream_output_adapter@D@__crt_stdio_output@@@2@@__crt_stdio_output@@AAE_ND@Z 100fb8a0 f i libucrtd:output.obj
 0001:000fa9d0       ?state_case_normal_tchar@?$output_processor@DV?$string_output_adapter@D@__crt_stdio_output@@V?$format_validation_base@DV?$string_output_adapter@D@__crt_stdio_output@@@2@@__crt_stdio_output@@AAE_ND@Z 100fb9d0 f i libucrtd:output.obj
 0001:000fab00       ?state_case_normal_tchar@?$output_processor@DV?$string_output_adapter@D@__crt_stdio_output@@V?$positional_parameter_base@DV?$string_output_adapter@D@__crt_stdio_output@@@2@@__crt_stdio_output@@AAE_ND@Z 100fbb00 f i libucrtd:output.obj
 0001:000fac30       ?state_case_normal_tchar@?$output_processor@DV?$string_output_adapter@D@__crt_stdio_output@@V?$standard_base@DV?$string_output_adapter@D@__crt_stdio_output@@@2@@__crt_stdio_output@@AAE_ND@Z 100fbc30 f i libucrtd:output.obj
 0001:000fad60       ?state_case_normal_tchar@?$output_processor@_WV?$stream_output_adapter@_W@__crt_stdio_output@@V?$format_validation_base@_WV?$stream_output_adapter@_W@__crt_stdio_output@@@2@@__crt_stdio_output@@AAE_N_W@Z 100fbd60 f i libucrtd:output.obj
 0001:000fad80       ?state_case_normal_tchar@?$output_processor@_WV?$stream_output_adapter@_W@__crt_stdio_output@@V?$positional_parameter_base@_WV?$stream_output_adapter@_W@__crt_stdio_output@@@2@@__crt_stdio_output@@AAE_N_W@Z 100fbd80 f i libucrtd:output.obj
 0001:000fada0       ?state_case_normal_tchar@?$output_processor@_WV?$stream_output_adapter@_W@__crt_stdio_output@@V?$standard_base@_WV?$stream_output_adapter@_W@__crt_stdio_output@@@2@@__crt_stdio_output@@AAE_N_W@Z 100fbda0 f i libucrtd:output.obj
 0001:000fadc0       ?state_case_normal_tchar@?$output_processor@_WV?$string_output_adapter@_W@__crt_stdio_output@@V?$format_validation_base@_WV?$string_output_adapter@_W@__crt_stdio_output@@@2@@__crt_stdio_output@@AAE_N_W@Z 100fbdc0 f i libucrtd:output.obj
 0001:000fade0       ?state_case_normal_tchar@?$output_processor@_WV?$string_output_adapter@_W@__crt_stdio_output@@V?$positional_parameter_base@_WV?$string_output_adapter@_W@__crt_stdio_output@@@2@@__crt_stdio_output@@AAE_N_W@Z 100fbde0 f i libucrtd:output.obj
 0001:000fae00       ?state_case_normal_tchar@?$output_processor@_WV?$string_output_adapter@_W@__crt_stdio_output@@V?$standard_base@_WV?$string_output_adapter@_W@__crt_stdio_output@@@2@@__crt_stdio_output@@AAE_N_W@Z 100fbe00 f i libucrtd:output.obj
 0001:000fae20       ?state_case_percent@?$output_processor@DV?$stream_output_adapter@D@__crt_stdio_output@@V?$format_validation_base@DV?$stream_output_adapter@D@__crt_stdio_output@@@2@@__crt_stdio_output@@AAE_NXZ 100fbe20 f i libucrtd:output.obj
 0001:000fae80       ?state_case_percent@?$output_processor@DV?$stream_output_adapter@D@__crt_stdio_output@@V?$positional_parameter_base@DV?$stream_output_adapter@D@__crt_stdio_output@@@2@@__crt_stdio_output@@AAE_NXZ 100fbe80 f i libucrtd:output.obj
 0001:000faee0       ?state_case_percent@?$output_processor@DV?$stream_output_adapter@D@__crt_stdio_output@@V?$standard_base@DV?$stream_output_adapter@D@__crt_stdio_output@@@2@@__crt_stdio_output@@AAE_NXZ 100fbee0 f i libucrtd:output.obj
 0001:000faf40       ?state_case_percent@?$output_processor@DV?$string_output_adapter@D@__crt_stdio_output@@V?$format_validation_base@DV?$string_output_adapter@D@__crt_stdio_output@@@2@@__crt_stdio_output@@AAE_NXZ 100fbf40 f i libucrtd:output.obj
 0001:000fafa0       ?state_case_percent@?$output_processor@DV?$string_output_adapter@D@__crt_stdio_output@@V?$positional_parameter_base@DV?$string_output_adapter@D@__crt_stdio_output@@@2@@__crt_stdio_output@@AAE_NXZ 100fbfa0 f i libucrtd:output.obj
 0001:000fb000       ?state_case_percent@?$output_processor@DV?$string_output_adapter@D@__crt_stdio_output@@V?$standard_base@DV?$string_output_adapter@D@__crt_stdio_output@@@2@@__crt_stdio_output@@AAE_NXZ 100fc000 f i libucrtd:output.obj
 0001:000fb060       ?state_case_percent@?$output_processor@_WV?$stream_output_adapter@_W@__crt_stdio_output@@V?$format_validation_base@_WV?$stream_output_adapter@_W@__crt_stdio_output@@@2@@__crt_stdio_output@@AAE_NXZ 100fc060 f i libucrtd:output.obj
 0001:000fb0c0       ?state_case_percent@?$output_processor@_WV?$stream_output_adapter@_W@__crt_stdio_output@@V?$positional_parameter_base@_WV?$stream_output_adapter@_W@__crt_stdio_output@@@2@@__crt_stdio_output@@AAE_NXZ 100fc0c0 f i libucrtd:output.obj
 0001:000fb120       ?state_case_percent@?$output_processor@_WV?$stream_output_adapter@_W@__crt_stdio_output@@V?$standard_base@_WV?$stream_output_adapter@_W@__crt_stdio_output@@@2@@__crt_stdio_output@@AAE_NXZ 100fc120 f i libucrtd:output.obj
 0001:000fb180       ?state_case_percent@?$output_processor@_WV?$string_output_adapter@_W@__crt_stdio_output@@V?$format_validation_base@_WV?$string_output_adapter@_W@__crt_stdio_output@@@2@@__crt_stdio_output@@AAE_NXZ 100fc180 f i libucrtd:output.obj
 0001:000fb1e0       ?state_case_percent@?$output_processor@_WV?$string_output_adapter@_W@__crt_stdio_output@@V?$positional_parameter_base@_WV?$string_output_adapter@_W@__crt_stdio_output@@@2@@__crt_stdio_output@@AAE_NXZ 100fc1e0 f i libucrtd:output.obj
 0001:000fb240       ?state_case_percent@?$output_processor@_WV?$string_output_adapter@_W@__crt_stdio_output@@V?$standard_base@_WV?$string_output_adapter@_W@__crt_stdio_output@@@2@@__crt_stdio_output@@AAE_NXZ 100fc240 f i libucrtd:output.obj
 0001:000fb2a0       ?state_case_precision@?$output_processor@DV?$stream_output_adapter@D@__crt_stdio_output@@V?$format_validation_base@DV?$stream_output_adapter@D@__crt_stdio_output@@@2@@__crt_stdio_output@@AAE_NXZ 100fc2a0 f i libucrtd:output.obj
 0001:000fb320       ?state_case_precision@?$output_processor@DV?$stream_output_adapter@D@__crt_stdio_output@@V?$positional_parameter_base@DV?$stream_output_adapter@D@__crt_stdio_output@@@2@@__crt_stdio_output@@AAE_NXZ 100fc320 f i libucrtd:output.obj
 0001:000fb3a0       ?state_case_precision@?$output_processor@DV?$stream_output_adapter@D@__crt_stdio_output@@V?$standard_base@DV?$stream_output_adapter@D@__crt_stdio_output@@@2@@__crt_stdio_output@@AAE_NXZ 100fc3a0 f i libucrtd:output.obj
 0001:000fb420       ?state_case_precision@?$output_processor@DV?$string_output_adapter@D@__crt_stdio_output@@V?$format_validation_base@DV?$string_output_adapter@D@__crt_stdio_output@@@2@@__crt_stdio_output@@AAE_NXZ 100fc420 f i libucrtd:output.obj
 0001:000fb4a0       ?state_case_precision@?$output_processor@DV?$string_output_adapter@D@__crt_stdio_output@@V?$positional_parameter_base@DV?$string_output_adapter@D@__crt_stdio_output@@@2@@__crt_stdio_output@@AAE_NXZ 100fc4a0 f i libucrtd:output.obj
 0001:000fb520       ?state_case_precision@?$output_processor@DV?$string_output_adapter@D@__crt_stdio_output@@V?$standard_base@DV?$string_output_adapter@D@__crt_stdio_output@@@2@@__crt_stdio_output@@AAE_NXZ 100fc520 f i libucrtd:output.obj
 0001:000fb5a0       ?state_case_precision@?$output_processor@_WV?$stream_output_adapter@_W@__crt_stdio_output@@V?$format_validation_base@_WV?$stream_output_adapter@_W@__crt_stdio_output@@@2@@__crt_stdio_output@@AAE_NXZ 100fc5a0 f i libucrtd:output.obj
 0001:000fb620       ?state_case_precision@?$output_processor@_WV?$stream_output_adapter@_W@__crt_stdio_output@@V?$positional_parameter_base@_WV?$stream_output_adapter@_W@__crt_stdio_output@@@2@@__crt_stdio_output@@AAE_NXZ 100fc620 f i libucrtd:output.obj
 0001:000fb6a0       ?state_case_precision@?$output_processor@_WV?$stream_output_adapter@_W@__crt_stdio_output@@V?$standard_base@_WV?$stream_output_adapter@_W@__crt_stdio_output@@@2@@__crt_stdio_output@@AAE_NXZ 100fc6a0 f i libucrtd:output.obj
 0001:000fb720       ?state_case_precision@?$output_processor@_WV?$string_output_adapter@_W@__crt_stdio_output@@V?$format_validation_base@_WV?$string_output_adapter@_W@__crt_stdio_output@@@2@@__crt_stdio_output@@AAE_NXZ 100fc720 f i libucrtd:output.obj
 0001:000fb7a0       ?state_case_precision@?$output_processor@_WV?$string_output_adapter@_W@__crt_stdio_output@@V?$positional_parameter_base@_WV?$string_output_adapter@_W@__crt_stdio_output@@@2@@__crt_stdio_output@@AAE_NXZ 100fc7a0 f i libucrtd:output.obj
 0001:000fb820       ?state_case_precision@?$output_processor@_WV?$string_output_adapter@_W@__crt_stdio_output@@V?$standard_base@_WV?$string_output_adapter@_W@__crt_stdio_output@@@2@@__crt_stdio_output@@AAE_NXZ 100fc820 f i libucrtd:output.obj
 0001:000fb8a0       ?state_case_size@?$output_processor@DV?$stream_output_adapter@D@__crt_stdio_output@@V?$format_validation_base@DV?$stream_output_adapter@D@__crt_stdio_output@@@2@@__crt_stdio_output@@AAE_NXZ 100fc8a0 f i libucrtd:output.obj
 0001:000fbd60       ?state_case_size@?$output_processor@DV?$stream_output_adapter@D@__crt_stdio_output@@V?$positional_parameter_base@DV?$stream_output_adapter@D@__crt_stdio_output@@@2@@__crt_stdio_output@@AAE_NXZ 100fcd60 f i libucrtd:output.obj
 0001:000fc220       ?state_case_size@?$output_processor@DV?$stream_output_adapter@D@__crt_stdio_output@@V?$standard_base@DV?$stream_output_adapter@D@__crt_stdio_output@@@2@@__crt_stdio_output@@AAE_NXZ 100fd220 f i libucrtd:output.obj
 0001:000fc6e0       ?state_case_size@?$output_processor@DV?$string_output_adapter@D@__crt_stdio_output@@V?$format_validation_base@DV?$string_output_adapter@D@__crt_stdio_output@@@2@@__crt_stdio_output@@AAE_NXZ 100fd6e0 f i libucrtd:output.obj
 0001:000fcba0       ?state_case_size@?$output_processor@DV?$string_output_adapter@D@__crt_stdio_output@@V?$positional_parameter_base@DV?$string_output_adapter@D@__crt_stdio_output@@@2@@__crt_stdio_output@@AAE_NXZ 100fdba0 f i libucrtd:output.obj
 0001:000fd060       ?state_case_size@?$output_processor@DV?$string_output_adapter@D@__crt_stdio_output@@V?$standard_base@DV?$string_output_adapter@D@__crt_stdio_output@@@2@@__crt_stdio_output@@AAE_NXZ 100fe060 f i libucrtd:output.obj
 0001:000fd520       ?state_case_size@?$output_processor@_WV?$stream_output_adapter@_W@__crt_stdio_output@@V?$format_validation_base@_WV?$stream_output_adapter@_W@__crt_stdio_output@@@2@@__crt_stdio_output@@AAE_NXZ 100fe520 f i libucrtd:output.obj
 0001:000fd9e0       ?state_case_size@?$output_processor@_WV?$stream_output_adapter@_W@__crt_stdio_output@@V?$positional_parameter_base@_WV?$stream_output_adapter@_W@__crt_stdio_output@@@2@@__crt_stdio_output@@AAE_NXZ 100fe9e0 f i libucrtd:output.obj
 0001:000fdea0       ?state_case_size@?$output_processor@_WV?$stream_output_adapter@_W@__crt_stdio_output@@V?$standard_base@_WV?$stream_output_adapter@_W@__crt_stdio_output@@@2@@__crt_stdio_output@@AAE_NXZ 100feea0 f i libucrtd:output.obj
 0001:000fe360       ?state_case_size@?$output_processor@_WV?$string_output_adapter@_W@__crt_stdio_output@@V?$format_validation_base@_WV?$string_output_adapter@_W@__crt_stdio_output@@@2@@__crt_stdio_output@@AAE_NXZ 100ff360 f i libucrtd:output.obj
 0001:000fe820       ?state_case_size@?$output_processor@_WV?$string_output_adapter@_W@__crt_stdio_output@@V?$positional_parameter_base@_WV?$string_output_adapter@_W@__crt_stdio_output@@@2@@__crt_stdio_output@@AAE_NXZ 100ff820 f i libucrtd:output.obj
 0001:000fece0       ?state_case_size@?$output_processor@_WV?$string_output_adapter@_W@__crt_stdio_output@@V?$standard_base@_WV?$string_output_adapter@_W@__crt_stdio_output@@@2@@__crt_stdio_output@@AAE_NXZ 100ffce0 f i libucrtd:output.obj
 0001:000ff1a0       ?state_case_type@?$output_processor@DV?$stream_output_adapter@D@__crt_stdio_output@@V?$format_validation_base@DV?$stream_output_adapter@D@__crt_stdio_output@@@2@@__crt_stdio_output@@AAE_NXZ 101001a0 f i libucrtd:output.obj
 0001:000ff640       ?state_case_type@?$output_processor@DV?$stream_output_adapter@D@__crt_stdio_output@@V?$positional_parameter_base@DV?$stream_output_adapter@D@__crt_stdio_output@@@2@@__crt_stdio_output@@AAE_NXZ 10100640 f i libucrtd:output.obj
 0001:000ffae0       ?state_case_type@?$output_processor@DV?$stream_output_adapter@D@__crt_stdio_output@@V?$standard_base@DV?$stream_output_adapter@D@__crt_stdio_output@@@2@@__crt_stdio_output@@AAE_NXZ 10100ae0 f i libucrtd:output.obj
 0001:000fff80       ?state_case_type@?$output_processor@DV?$string_output_adapter@D@__crt_stdio_output@@V?$format_validation_base@DV?$string_output_adapter@D@__crt_stdio_output@@@2@@__crt_stdio_output@@AAE_NXZ 10100f80 f i libucrtd:output.obj
 0001:00100420       ?state_case_type@?$output_processor@DV?$string_output_adapter@D@__crt_stdio_output@@V?$positional_parameter_base@DV?$string_output_adapter@D@__crt_stdio_output@@@2@@__crt_stdio_output@@AAE_NXZ 10101420 f i libucrtd:output.obj
 0001:001008c0       ?state_case_type@?$output_processor@DV?$string_output_adapter@D@__crt_stdio_output@@V?$standard_base@DV?$string_output_adapter@D@__crt_stdio_output@@@2@@__crt_stdio_output@@AAE_NXZ 101018c0 f i libucrtd:output.obj
 0001:00100d60       ?state_case_type@?$output_processor@_WV?$stream_output_adapter@_W@__crt_stdio_output@@V?$format_validation_base@_WV?$stream_output_adapter@_W@__crt_stdio_output@@@2@@__crt_stdio_output@@AAE_NXZ 10101d60 f i libucrtd:output.obj
 0001:00101230       ?state_case_type@?$output_processor@_WV?$stream_output_adapter@_W@__crt_stdio_output@@V?$positional_parameter_base@_WV?$stream_output_adapter@_W@__crt_stdio_output@@@2@@__crt_stdio_output@@AAE_NXZ 10102230 f i libucrtd:output.obj
 0001:00101700       ?state_case_type@?$output_processor@_WV?$stream_output_adapter@_W@__crt_stdio_output@@V?$standard_base@_WV?$stream_output_adapter@_W@__crt_stdio_output@@@2@@__crt_stdio_output@@AAE_NXZ 10102700 f i libucrtd:output.obj
 0001:00101bd0       ?state_case_type@?$output_processor@_WV?$string_output_adapter@_W@__crt_stdio_output@@V?$format_validation_base@_WV?$string_output_adapter@_W@__crt_stdio_output@@@2@@__crt_stdio_output@@AAE_NXZ 10102bd0 f i libucrtd:output.obj
 0001:001020a0       ?state_case_type@?$output_processor@_WV?$string_output_adapter@_W@__crt_stdio_output@@V?$positional_parameter_base@_WV?$string_output_adapter@_W@__crt_stdio_output@@@2@@__crt_stdio_output@@AAE_NXZ 101030a0 f i libucrtd:output.obj
 0001:00102570       ?state_case_type@?$output_processor@_WV?$string_output_adapter@_W@__crt_stdio_output@@V?$standard_base@_WV?$string_output_adapter@_W@__crt_stdio_output@@@2@@__crt_stdio_output@@AAE_NXZ 10103570 f i libucrtd:output.obj
 0001:00102a40       ?state_case_width@?$output_processor@DV?$stream_output_adapter@D@__crt_stdio_output@@V?$format_validation_base@DV?$stream_output_adapter@D@__crt_stdio_output@@@2@@__crt_stdio_output@@AAE_NXZ 10103a40 f i libucrtd:output.obj
 0001:00102ad0       ?state_case_width@?$output_processor@DV?$stream_output_adapter@D@__crt_stdio_output@@V?$positional_parameter_base@DV?$stream_output_adapter@D@__crt_stdio_output@@@2@@__crt_stdio_output@@AAE_NXZ 10103ad0 f i libucrtd:output.obj
 0001:00102b60       ?state_case_width@?$output_processor@DV?$stream_output_adapter@D@__crt_stdio_output@@V?$standard_base@DV?$stream_output_adapter@D@__crt_stdio_output@@@2@@__crt_stdio_output@@AAE_NXZ 10103b60 f i libucrtd:output.obj
 0001:00102bf0       ?state_case_width@?$output_processor@DV?$string_output_adapter@D@__crt_stdio_output@@V?$format_validation_base@DV?$string_output_adapter@D@__crt_stdio_output@@@2@@__crt_stdio_output@@AAE_NXZ 10103bf0 f i libucrtd:output.obj
 0001:00102c80       ?state_case_width@?$output_processor@DV?$string_output_adapter@D@__crt_stdio_output@@V?$positional_parameter_base@DV?$string_output_adapter@D@__crt_stdio_output@@@2@@__crt_stdio_output@@AAE_NXZ 10103c80 f i libucrtd:output.obj
 0001:00102d10       ?state_case_width@?$output_processor@DV?$string_output_adapter@D@__crt_stdio_output@@V?$standard_base@DV?$string_output_adapter@D@__crt_stdio_output@@@2@@__crt_stdio_output@@AAE_NXZ 10103d10 f i libucrtd:output.obj
 0001:00102da0       ?state_case_width@?$output_processor@_WV?$stream_output_adapter@_W@__crt_stdio_output@@V?$format_validation_base@_WV?$stream_output_adapter@_W@__crt_stdio_output@@@2@@__crt_stdio_output@@AAE_NXZ 10103da0 f i libucrtd:output.obj
 0001:00102e30       ?state_case_width@?$output_processor@_WV?$stream_output_adapter@_W@__crt_stdio_output@@V?$positional_parameter_base@_WV?$stream_output_adapter@_W@__crt_stdio_output@@@2@@__crt_stdio_output@@AAE_NXZ 10103e30 f i libucrtd:output.obj
 0001:00102ec0       ?state_case_width@?$output_processor@_WV?$stream_output_adapter@_W@__crt_stdio_output@@V?$standard_base@_WV?$stream_output_adapter@_W@__crt_stdio_output@@@2@@__crt_stdio_output@@AAE_NXZ 10103ec0 f i libucrtd:output.obj
 0001:00102f50       ?state_case_width@?$output_processor@_WV?$string_output_adapter@_W@__crt_stdio_output@@V?$format_validation_base@_WV?$string_output_adapter@_W@__crt_stdio_output@@@2@@__crt_stdio_output@@AAE_NXZ 10103f50 f i libucrtd:output.obj
 0001:00102fe0       ?state_case_width@?$output_processor@_WV?$string_output_adapter@_W@__crt_stdio_output@@V?$positional_parameter_base@_WV?$string_output_adapter@_W@__crt_stdio_output@@@2@@__crt_stdio_output@@AAE_NXZ 10103fe0 f i libucrtd:output.obj
 0001:00103070       ?state_case_width@?$output_processor@_WV?$string_output_adapter@_W@__crt_stdio_output@@V?$standard_base@_WV?$string_output_adapter@_W@__crt_stdio_output@@@2@@__crt_stdio_output@@AAE_NXZ 10104070 f i libucrtd:output.obj
 0001:00103100       ?state_count@?$format_validation_base@DV?$stream_output_adapter@D@__crt_stdio_output@@@__crt_stdio_output@@KAIXZ 10104100 f i libucrtd:output.obj
 0001:00103110       ?state_count@?$format_validation_base@DV?$string_output_adapter@D@__crt_stdio_output@@@__crt_stdio_output@@KAIXZ 10104110 f i libucrtd:output.obj
 0001:00103120       ?state_count@?$format_validation_base@_WV?$stream_output_adapter@_W@__crt_stdio_output@@@__crt_stdio_output@@KAIXZ 10104120 f i libucrtd:output.obj
 0001:00103130       ?state_count@?$format_validation_base@_WV?$string_output_adapter@_W@__crt_stdio_output@@@__crt_stdio_output@@KAIXZ 10104130 f i libucrtd:output.obj
 0001:00103140       ?state_count@?$standard_base@DV?$stream_output_adapter@D@__crt_stdio_output@@@__crt_stdio_output@@KAIXZ 10104140 f i libucrtd:output.obj
 0001:00103150       ?state_count@?$standard_base@DV?$string_output_adapter@D@__crt_stdio_output@@@__crt_stdio_output@@KAIXZ 10104150 f i libucrtd:output.obj
 0001:00103160       ?state_count@?$standard_base@_WV?$stream_output_adapter@_W@__crt_stdio_output@@@__crt_stdio_output@@KAIXZ 10104160 f i libucrtd:output.obj
 0001:00103170       ?state_count@?$standard_base@_WV?$string_output_adapter@_W@__crt_stdio_output@@@__crt_stdio_output@@KAIXZ 10104170 f i libucrtd:output.obj
 0001:00103180       ?state_transition_table@?$format_validation_base@DV?$stream_output_adapter@D@__crt_stdio_output@@@__crt_stdio_output@@KAPBEXZ 10104180 f i libucrtd:output.obj
 0001:00103190       ?state_transition_table@?$format_validation_base@DV?$string_output_adapter@D@__crt_stdio_output@@@__crt_stdio_output@@KAPBEXZ 10104190 f i libucrtd:output.obj
 0001:001031a0       ?state_transition_table@?$format_validation_base@_WV?$stream_output_adapter@_W@__crt_stdio_output@@@__crt_stdio_output@@KAPBEXZ 101041a0 f i libucrtd:output.obj
 0001:001031b0       ?state_transition_table@?$format_validation_base@_WV?$string_output_adapter@_W@__crt_stdio_output@@@__crt_stdio_output@@KAPBEXZ 101041b0 f i libucrtd:output.obj
 0001:001031c0       ?state_transition_table@?$standard_base@DV?$stream_output_adapter@D@__crt_stdio_output@@@__crt_stdio_output@@KAPBEXZ 101041c0 f i libucrtd:output.obj
 0001:001031d0       ?state_transition_table@?$standard_base@DV?$string_output_adapter@D@__crt_stdio_output@@@__crt_stdio_output@@KAPBEXZ 101041d0 f i libucrtd:output.obj
 0001:001031e0       ?state_transition_table@?$standard_base@_WV?$stream_output_adapter@_W@__crt_stdio_output@@@__crt_stdio_output@@KAPBEXZ 101041e0 f i libucrtd:output.obj
 0001:001031f0       ?state_transition_table@?$standard_base@_WV?$string_output_adapter@_W@__crt_stdio_output@@@__crt_stdio_output@@KAPBEXZ 101041f0 f i libucrtd:output.obj
 0001:00103200       ?tchar_string@?$common_data@D@__crt_stdio_output@@IAEAAPADD@Z 10104200 f i libucrtd:output.obj
 0001:00103220       ?tchar_string@?$common_data@D@__crt_stdio_output@@IAEAAPADXZ 10104220 f i libucrtd:output.obj
 0001:00103240       ?tchar_string@?$common_data@_W@__crt_stdio_output@@IAEAAPA_WXZ 10104240 f i libucrtd:output.obj
 0001:00103260       ?tchar_string@?$common_data@_W@__crt_stdio_output@@IAEAAPA_W_W@Z 10104260 f i libucrtd:output.obj
 0001:00103280       ?to_integer_size@__crt_stdio_output@@YAIW4length_modifier@1@@Z 10104280 f i libucrtd:output.obj
 0001:00103350       ?type_case_X@?$output_processor@DV?$stream_output_adapter@D@__crt_stdio_output@@V?$format_validation_base@DV?$stream_output_adapter@D@__crt_stdio_output@@@2@@__crt_stdio_output@@AAE_NXZ 10104350 f i libucrtd:output.obj
 0001:00103370       ?type_case_X@?$output_processor@DV?$stream_output_adapter@D@__crt_stdio_output@@V?$positional_parameter_base@DV?$stream_output_adapter@D@__crt_stdio_output@@@2@@__crt_stdio_output@@AAE_NXZ 10104370 f i libucrtd:output.obj
 0001:00103390       ?type_case_X@?$output_processor@DV?$stream_output_adapter@D@__crt_stdio_output@@V?$standard_base@DV?$stream_output_adapter@D@__crt_stdio_output@@@2@@__crt_stdio_output@@AAE_NXZ 10104390 f i libucrtd:output.obj
 0001:001033b0       ?type_case_X@?$output_processor@DV?$string_output_adapter@D@__crt_stdio_output@@V?$format_validation_base@DV?$string_output_adapter@D@__crt_stdio_output@@@2@@__crt_stdio_output@@AAE_NXZ 101043b0 f i libucrtd:output.obj
 0001:001033d0       ?type_case_X@?$output_processor@DV?$string_output_adapter@D@__crt_stdio_output@@V?$positional_parameter_base@DV?$string_output_adapter@D@__crt_stdio_output@@@2@@__crt_stdio_output@@AAE_NXZ 101043d0 f i libucrtd:output.obj
 0001:001033f0       ?type_case_X@?$output_processor@DV?$string_output_adapter@D@__crt_stdio_output@@V?$standard_base@DV?$string_output_adapter@D@__crt_stdio_output@@@2@@__crt_stdio_output@@AAE_NXZ 101043f0 f i libucrtd:output.obj
 0001:00103410       ?type_case_X@?$output_processor@_WV?$stream_output_adapter@_W@__crt_stdio_output@@V?$format_validation_base@_WV?$stream_output_adapter@_W@__crt_stdio_output@@@2@@__crt_stdio_output@@AAE_NXZ 10104410 f i libucrtd:output.obj
 0001:00103430       ?type_case_X@?$output_processor@_WV?$stream_output_adapter@_W@__crt_stdio_output@@V?$positional_parameter_base@_WV?$stream_output_adapter@_W@__crt_stdio_output@@@2@@__crt_stdio_output@@AAE_NXZ 10104430 f i libucrtd:output.obj
 0001:00103450       ?type_case_X@?$output_processor@_WV?$stream_output_adapter@_W@__crt_stdio_output@@V?$standard_base@_WV?$stream_output_adapter@_W@__crt_stdio_output@@@2@@__crt_stdio_output@@AAE_NXZ 10104450 f i libucrtd:output.obj
 0001:00103470       ?type_case_X@?$output_processor@_WV?$string_output_adapter@_W@__crt_stdio_output@@V?$format_validation_base@_WV?$string_output_adapter@_W@__crt_stdio_output@@@2@@__crt_stdio_output@@AAE_NXZ 10104470 f i libucrtd:output.obj
 0001:00103490       ?type_case_X@?$output_processor@_WV?$string_output_adapter@_W@__crt_stdio_output@@V?$positional_parameter_base@_WV?$string_output_adapter@_W@__crt_stdio_output@@@2@@__crt_stdio_output@@AAE_NXZ 10104490 f i libucrtd:output.obj
 0001:001034b0       ?type_case_X@?$output_processor@_WV?$string_output_adapter@_W@__crt_stdio_output@@V?$standard_base@_WV?$string_output_adapter@_W@__crt_stdio_output@@@2@@__crt_stdio_output@@AAE_NXZ 101044b0 f i libucrtd:output.obj
 0001:001034d0       ?type_case_Z@?$output_processor@DV?$stream_output_adapter@D@__crt_stdio_output@@V?$format_validation_base@DV?$stream_output_adapter@D@__crt_stdio_output@@@2@@__crt_stdio_output@@AAE_NXZ 101044d0 f i libucrtd:output.obj
 0001:00103600       ?type_case_Z@?$output_processor@DV?$stream_output_adapter@D@__crt_stdio_output@@V?$positional_parameter_base@DV?$stream_output_adapter@D@__crt_stdio_output@@@2@@__crt_stdio_output@@AAE_NXZ 10104600 f i libucrtd:output.obj
 0001:00103730       ?type_case_Z@?$output_processor@DV?$stream_output_adapter@D@__crt_stdio_output@@V?$standard_base@DV?$stream_output_adapter@D@__crt_stdio_output@@@2@@__crt_stdio_output@@AAE_NXZ 10104730 f i libucrtd:output.obj
 0001:00103860       ?type_case_Z@?$output_processor@DV?$string_output_adapter@D@__crt_stdio_output@@V?$format_validation_base@DV?$string_output_adapter@D@__crt_stdio_output@@@2@@__crt_stdio_output@@AAE_NXZ 10104860 f i libucrtd:output.obj
 0001:00103990       ?type_case_Z@?$output_processor@DV?$string_output_adapter@D@__crt_stdio_output@@V?$positional_parameter_base@DV?$string_output_adapter@D@__crt_stdio_output@@@2@@__crt_stdio_output@@AAE_NXZ 10104990 f i libucrtd:output.obj
 0001:00103ac0       ?type_case_Z@?$output_processor@DV?$string_output_adapter@D@__crt_stdio_output@@V?$standard_base@DV?$string_output_adapter@D@__crt_stdio_output@@@2@@__crt_stdio_output@@AAE_NXZ 10104ac0 f i libucrtd:output.obj
 0001:00103bf0       ?type_case_Z@?$output_processor@_WV?$stream_output_adapter@_W@__crt_stdio_output@@V?$format_validation_base@_WV?$stream_output_adapter@_W@__crt_stdio_output@@@2@@__crt_stdio_output@@AAE_NXZ 10104bf0 f i libucrtd:output.obj
 0001:00103d20       ?type_case_Z@?$output_processor@_WV?$stream_output_adapter@_W@__crt_stdio_output@@V?$positional_parameter_base@_WV?$stream_output_adapter@_W@__crt_stdio_output@@@2@@__crt_stdio_output@@AAE_NXZ 10104d20 f i libucrtd:output.obj
 0001:00103e50       ?type_case_Z@?$output_processor@_WV?$stream_output_adapter@_W@__crt_stdio_output@@V?$standard_base@_WV?$stream_output_adapter@_W@__crt_stdio_output@@@2@@__crt_stdio_output@@AAE_NXZ 10104e50 f i libucrtd:output.obj
 0001:00103f80       ?type_case_Z@?$output_processor@_WV?$string_output_adapter@_W@__crt_stdio_output@@V?$format_validation_base@_WV?$string_output_adapter@_W@__crt_stdio_output@@@2@@__crt_stdio_output@@AAE_NXZ 10104f80 f i libucrtd:output.obj
 0001:001040b0       ?type_case_Z@?$output_processor@_WV?$string_output_adapter@_W@__crt_stdio_output@@V?$positional_parameter_base@_WV?$string_output_adapter@_W@__crt_stdio_output@@@2@@__crt_stdio_output@@AAE_NXZ 101050b0 f i libucrtd:output.obj
 0001:001041e0       ?type_case_Z@?$output_processor@_WV?$string_output_adapter@_W@__crt_stdio_output@@V?$standard_base@_WV?$string_output_adapter@_W@__crt_stdio_output@@@2@@__crt_stdio_output@@AAE_NXZ 101051e0 f i libucrtd:output.obj
 0001:00104310       ?type_case_a@?$output_processor@DV?$stream_output_adapter@D@__crt_stdio_output@@V?$format_validation_base@DV?$stream_output_adapter@D@__crt_stdio_output@@@2@@__crt_stdio_output@@AAE_NXZ 10105310 f i libucrtd:output.obj
 0001:00104610       ?type_case_a@?$output_processor@DV?$stream_output_adapter@D@__crt_stdio_output@@V?$positional_parameter_base@DV?$stream_output_adapter@D@__crt_stdio_output@@@2@@__crt_stdio_output@@AAE_NXZ 10105610 f i libucrtd:output.obj
 0001:00104910       ?type_case_a@?$output_processor@DV?$stream_output_adapter@D@__crt_stdio_output@@V?$standard_base@DV?$stream_output_adapter@D@__crt_stdio_output@@@2@@__crt_stdio_output@@AAE_NXZ 10105910 f i libucrtd:output.obj
 0001:00104c10       ?type_case_a@?$output_processor@DV?$string_output_adapter@D@__crt_stdio_output@@V?$format_validation_base@DV?$string_output_adapter@D@__crt_stdio_output@@@2@@__crt_stdio_output@@AAE_NXZ 10105c10 f i libucrtd:output.obj
 0001:00104f10       ?type_case_a@?$output_processor@DV?$string_output_adapter@D@__crt_stdio_output@@V?$positional_parameter_base@DV?$string_output_adapter@D@__crt_stdio_output@@@2@@__crt_stdio_output@@AAE_NXZ 10105f10 f i libucrtd:output.obj
 0001:00105210       ?type_case_a@?$output_processor@DV?$string_output_adapter@D@__crt_stdio_output@@V?$standard_base@DV?$string_output_adapter@D@__crt_stdio_output@@@2@@__crt_stdio_output@@AAE_NXZ 10106210 f i libucrtd:output.obj
 0001:00105510       ?type_case_a@?$output_processor@_WV?$stream_output_adapter@_W@__crt_stdio_output@@V?$format_validation_base@_WV?$stream_output_adapter@_W@__crt_stdio_output@@@2@@__crt_stdio_output@@AAE_NXZ 10106510 f i libucrtd:output.obj
 0001:00105820       ?type_case_a@?$output_processor@_WV?$stream_output_adapter@_W@__crt_stdio_output@@V?$positional_parameter_base@_WV?$stream_output_adapter@_W@__crt_stdio_output@@@2@@__crt_stdio_output@@AAE_NXZ 10106820 f i libucrtd:output.obj
 0001:00105b30       ?type_case_a@?$output_processor@_WV?$stream_output_adapter@_W@__crt_stdio_output@@V?$standard_base@_WV?$stream_output_adapter@_W@__crt_stdio_output@@@2@@__crt_stdio_output@@AAE_NXZ 10106b30 f i libucrtd:output.obj
 0001:00105e40       ?type_case_a@?$output_processor@_WV?$string_output_adapter@_W@__crt_stdio_output@@V?$format_validation_base@_WV?$string_output_adapter@_W@__crt_stdio_output@@@2@@__crt_stdio_output@@AAE_NXZ 10106e40 f i libucrtd:output.obj
 0001:00106150       ?type_case_a@?$output_processor@_WV?$string_output_adapter@_W@__crt_stdio_output@@V?$positional_parameter_base@_WV?$string_output_adapter@_W@__crt_stdio_output@@@2@@__crt_stdio_output@@AAE_NXZ 10107150 f i libucrtd:output.obj
 0001:00106460       ?type_case_a@?$output_processor@_WV?$string_output_adapter@_W@__crt_stdio_output@@V?$standard_base@_WV?$string_output_adapter@_W@__crt_stdio_output@@@2@@__crt_stdio_output@@AAE_NXZ 10107460 f i libucrtd:output.obj
 0001:00106770       ?type_case_c@?$output_processor@DV?$stream_output_adapter@D@__crt_stdio_output@@V?$format_validation_base@DV?$stream_output_adapter@D@__crt_stdio_output@@@2@@__crt_stdio_output@@AAE_NXZ 10107770 f i libucrtd:output.obj
 0001:00106790       ?type_case_c@?$output_processor@DV?$stream_output_adapter@D@__crt_stdio_output@@V?$positional_parameter_base@DV?$stream_output_adapter@D@__crt_stdio_output@@@2@@__crt_stdio_output@@AAE_NXZ 10107790 f i libucrtd:output.obj
 0001:001067b0       ?type_case_c@?$output_processor@DV?$stream_output_adapter@D@__crt_stdio_output@@V?$standard_base@DV?$stream_output_adapter@D@__crt_stdio_output@@@2@@__crt_stdio_output@@AAE_NXZ 101077b0 f i libucrtd:output.obj
 0001:001067d0       ?type_case_c@?$output_processor@DV?$string_output_adapter@D@__crt_stdio_output@@V?$format_validation_base@DV?$string_output_adapter@D@__crt_stdio_output@@@2@@__crt_stdio_output@@AAE_NXZ 101077d0 f i libucrtd:output.obj
 0001:001067f0       ?type_case_c@?$output_processor@DV?$string_output_adapter@D@__crt_stdio_output@@V?$positional_parameter_base@DV?$string_output_adapter@D@__crt_stdio_output@@@2@@__crt_stdio_output@@AAE_NXZ 101077f0 f i libucrtd:output.obj
 0001:00106810       ?type_case_c@?$output_processor@DV?$string_output_adapter@D@__crt_stdio_output@@V?$standard_base@DV?$string_output_adapter@D@__crt_stdio_output@@@2@@__crt_stdio_output@@AAE_NXZ 10107810 f i libucrtd:output.obj
 0001:00106830       ?type_case_c@?$output_processor@_WV?$stream_output_adapter@_W@__crt_stdio_output@@V?$format_validation_base@_WV?$stream_output_adapter@_W@__crt_stdio_output@@@2@@__crt_stdio_output@@AAE_NXZ 10107830 f i libucrtd:output.obj
 0001:00106850       ?type_case_c@?$output_processor@_WV?$stream_output_adapter@_W@__crt_stdio_output@@V?$positional_parameter_base@_WV?$stream_output_adapter@_W@__crt_stdio_output@@@2@@__crt_stdio_output@@AAE_NXZ 10107850 f i libucrtd:output.obj
 0001:00106870       ?type_case_c@?$output_processor@_WV?$stream_output_adapter@_W@__crt_stdio_output@@V?$standard_base@_WV?$stream_output_adapter@_W@__crt_stdio_output@@@2@@__crt_stdio_output@@AAE_NXZ 10107870 f i libucrtd:output.obj
 0001:00106890       ?type_case_c@?$output_processor@_WV?$string_output_adapter@_W@__crt_stdio_output@@V?$format_validation_base@_WV?$string_output_adapter@_W@__crt_stdio_output@@@2@@__crt_stdio_output@@AAE_NXZ 10107890 f i libucrtd:output.obj
 0001:001068b0       ?type_case_c@?$output_processor@_WV?$string_output_adapter@_W@__crt_stdio_output@@V?$positional_parameter_base@_WV?$string_output_adapter@_W@__crt_stdio_output@@@2@@__crt_stdio_output@@AAE_NXZ 101078b0 f i libucrtd:output.obj
 0001:001068d0       ?type_case_c@?$output_processor@_WV?$string_output_adapter@_W@__crt_stdio_output@@V?$standard_base@_WV?$string_output_adapter@_W@__crt_stdio_output@@@2@@__crt_stdio_output@@AAE_NXZ 101078d0 f i libucrtd:output.obj
 0001:001068f0       ?type_case_c_tchar@?$output_processor@DV?$stream_output_adapter@D@__crt_stdio_output@@V?$format_validation_base@DV?$stream_output_adapter@D@__crt_stdio_output@@@2@@__crt_stdio_output@@AAE_ND@Z 101078f0 f i libucrtd:output.obj
 0001:00106a40       ?type_case_c_tchar@?$output_processor@DV?$stream_output_adapter@D@__crt_stdio_output@@V?$positional_parameter_base@DV?$stream_output_adapter@D@__crt_stdio_output@@@2@@__crt_stdio_output@@AAE_ND@Z 10107a40 f i libucrtd:output.obj
 0001:00106b90       ?type_case_c_tchar@?$output_processor@DV?$stream_output_adapter@D@__crt_stdio_output@@V?$standard_base@DV?$stream_output_adapter@D@__crt_stdio_output@@@2@@__crt_stdio_output@@AAE_ND@Z 10107b90 f i libucrtd:output.obj
 0001:00106ce0       ?type_case_c_tchar@?$output_processor@DV?$string_output_adapter@D@__crt_stdio_output@@V?$format_validation_base@DV?$string_output_adapter@D@__crt_stdio_output@@@2@@__crt_stdio_output@@AAE_ND@Z 10107ce0 f i libucrtd:output.obj
 0001:00106e30       ?type_case_c_tchar@?$output_processor@DV?$string_output_adapter@D@__crt_stdio_output@@V?$positional_parameter_base@DV?$string_output_adapter@D@__crt_stdio_output@@@2@@__crt_stdio_output@@AAE_ND@Z 10107e30 f i libucrtd:output.obj
 0001:00106f80       ?type_case_c_tchar@?$output_processor@DV?$string_output_adapter@D@__crt_stdio_output@@V?$standard_base@DV?$string_output_adapter@D@__crt_stdio_output@@@2@@__crt_stdio_output@@AAE_ND@Z 10107f80 f i libucrtd:output.obj
 0001:001070d0       ?type_case_c_tchar@?$output_processor@_WV?$stream_output_adapter@_W@__crt_stdio_output@@V?$format_validation_base@_WV?$stream_output_adapter@_W@__crt_stdio_output@@@2@@__crt_stdio_output@@AAE_N_W@Z 101080d0 f i libucrtd:output.obj
 0001:00107210       ?type_case_c_tchar@?$output_processor@_WV?$stream_output_adapter@_W@__crt_stdio_output@@V?$positional_parameter_base@_WV?$stream_output_adapter@_W@__crt_stdio_output@@@2@@__crt_stdio_output@@AAE_N_W@Z 10108210 f i libucrtd:output.obj
 0001:00107350       ?type_case_c_tchar@?$output_processor@_WV?$stream_output_adapter@_W@__crt_stdio_output@@V?$standard_base@_WV?$stream_output_adapter@_W@__crt_stdio_output@@@2@@__crt_stdio_output@@AAE_N_W@Z 10108350 f i libucrtd:output.obj
 0001:00107490       ?type_case_c_tchar@?$output_processor@_WV?$string_output_adapter@_W@__crt_stdio_output@@V?$format_validation_base@_WV?$string_output_adapter@_W@__crt_stdio_output@@@2@@__crt_stdio_output@@AAE_N_W@Z 10108490 f i libucrtd:output.obj
 0001:001075d0       ?type_case_c_tchar@?$output_processor@_WV?$string_output_adapter@_W@__crt_stdio_output@@V?$positional_parameter_base@_WV?$string_output_adapter@_W@__crt_stdio_output@@@2@@__crt_stdio_output@@AAE_N_W@Z 101085d0 f i libucrtd:output.obj
 0001:00107710       ?type_case_c_tchar@?$output_processor@_WV?$string_output_adapter@_W@__crt_stdio_output@@V?$standard_base@_WV?$string_output_adapter@_W@__crt_stdio_output@@@2@@__crt_stdio_output@@AAE_N_W@Z 10108710 f i libucrtd:output.obj
 0001:00107850       ?type_case_d@?$output_processor@DV?$stream_output_adapter@D@__crt_stdio_output@@V?$format_validation_base@DV?$stream_output_adapter@D@__crt_stdio_output@@@2@@__crt_stdio_output@@AAE_NXZ 10108850 f i libucrtd:output.obj
 0001:00107880       ?type_case_d@?$output_processor@DV?$stream_output_adapter@D@__crt_stdio_output@@V?$positional_parameter_base@DV?$stream_output_adapter@D@__crt_stdio_output@@@2@@__crt_stdio_output@@AAE_NXZ 10108880 f i libucrtd:output.obj
 0001:001078b0       ?type_case_d@?$output_processor@DV?$stream_output_adapter@D@__crt_stdio_output@@V?$standard_base@DV?$stream_output_adapter@D@__crt_stdio_output@@@2@@__crt_stdio_output@@AAE_NXZ 101088b0 f i libucrtd:output.obj
 0001:001078e0       ?type_case_d@?$output_processor@DV?$string_output_adapter@D@__crt_stdio_output@@V?$format_validation_base@DV?$string_output_adapter@D@__crt_stdio_output@@@2@@__crt_stdio_output@@AAE_NXZ 101088e0 f i libucrtd:output.obj
 0001:00107910       ?type_case_d@?$output_processor@DV?$string_output_adapter@D@__crt_stdio_output@@V?$positional_parameter_base@DV?$string_output_adapter@D@__crt_stdio_output@@@2@@__crt_stdio_output@@AAE_NXZ 10108910 f i libucrtd:output.obj
 0001:00107940       ?type_case_d@?$output_processor@DV?$string_output_adapter@D@__crt_stdio_output@@V?$standard_base@DV?$string_output_adapter@D@__crt_stdio_output@@@2@@__crt_stdio_output@@AAE_NXZ 10108940 f i libucrtd:output.obj
 0001:00107970       ?type_case_d@?$output_processor@_WV?$stream_output_adapter@_W@__crt_stdio_output@@V?$format_validation_base@_WV?$stream_output_adapter@_W@__crt_stdio_output@@@2@@__crt_stdio_output@@AAE_NXZ 10108970 f i libucrtd:output.obj
 0001:001079a0       ?type_case_d@?$output_processor@_WV?$stream_output_adapter@_W@__crt_stdio_output@@V?$positional_parameter_base@_WV?$stream_output_adapter@_W@__crt_stdio_output@@@2@@__crt_stdio_output@@AAE_NXZ 101089a0 f i libucrtd:output.obj
 0001:001079d0       ?type_case_d@?$output_processor@_WV?$stream_output_adapter@_W@__crt_stdio_output@@V?$standard_base@_WV?$stream_output_adapter@_W@__crt_stdio_output@@@2@@__crt_stdio_output@@AAE_NXZ 101089d0 f i libucrtd:output.obj
 0001:00107a00       ?type_case_d@?$output_processor@_WV?$string_output_adapter@_W@__crt_stdio_output@@V?$format_validation_base@_WV?$string_output_adapter@_W@__crt_stdio_output@@@2@@__crt_stdio_output@@AAE_NXZ 10108a00 f i libucrtd:output.obj
 0001:00107a30       ?type_case_d@?$output_processor@_WV?$string_output_adapter@_W@__crt_stdio_output@@V?$positional_parameter_base@_WV?$string_output_adapter@_W@__crt_stdio_output@@@2@@__crt_stdio_output@@AAE_NXZ 10108a30 f i libucrtd:output.obj
 0001:00107a60       ?type_case_d@?$output_processor@_WV?$string_output_adapter@_W@__crt_stdio_output@@V?$standard_base@_WV?$string_output_adapter@_W@__crt_stdio_output@@@2@@__crt_stdio_output@@AAE_NXZ 10108a60 f i libucrtd:output.obj
 0001:00107a90       ?type_case_integer@?$output_processor@DV?$stream_output_adapter@D@__crt_stdio_output@@V?$format_validation_base@DV?$stream_output_adapter@D@__crt_stdio_output@@@2@@__crt_stdio_output@@AAE_NI_N@Z 10108a90 f i libucrtd:output.obj
 0001:00107eb0       ?type_case_integer@?$output_processor@DV?$stream_output_adapter@D@__crt_stdio_output@@V?$positional_parameter_base@DV?$stream_output_adapter@D@__crt_stdio_output@@@2@@__crt_stdio_output@@AAE_NI_N@Z 10108eb0 f i libucrtd:output.obj
 0001:001082d0       ?type_case_integer@?$output_processor@DV?$stream_output_adapter@D@__crt_stdio_output@@V?$standard_base@DV?$stream_output_adapter@D@__crt_stdio_output@@@2@@__crt_stdio_output@@AAE_NI_N@Z 101092d0 f i libucrtd:output.obj
 0001:001086f0       ?type_case_integer@?$output_processor@DV?$string_output_adapter@D@__crt_stdio_output@@V?$format_validation_base@DV?$string_output_adapter@D@__crt_stdio_output@@@2@@__crt_stdio_output@@AAE_NI_N@Z 101096f0 f i libucrtd:output.obj
 0001:00108b10       ?type_case_integer@?$output_processor@DV?$string_output_adapter@D@__crt_stdio_output@@V?$positional_parameter_base@DV?$string_output_adapter@D@__crt_stdio_output@@@2@@__crt_stdio_output@@AAE_NI_N@Z 10109b10 f i libucrtd:output.obj
 0001:00108f30       ?type_case_integer@?$output_processor@DV?$string_output_adapter@D@__crt_stdio_output@@V?$standard_base@DV?$string_output_adapter@D@__crt_stdio_output@@@2@@__crt_stdio_output@@AAE_NI_N@Z 10109f30 f i libucrtd:output.obj
 0001:00109350       ?type_case_integer@?$output_processor@_WV?$stream_output_adapter@_W@__crt_stdio_output@@V?$format_validation_base@_WV?$stream_output_adapter@_W@__crt_stdio_output@@@2@@__crt_stdio_output@@AAE_NI_N@Z 1010a350 f i libucrtd:output.obj
 0001:00109770       ?type_case_integer@?$output_processor@_WV?$stream_output_adapter@_W@__crt_stdio_output@@V?$positional_parameter_base@_WV?$stream_output_adapter@_W@__crt_stdio_output@@@2@@__crt_stdio_output@@AAE_NI_N@Z 1010a770 f i libucrtd:output.obj
 0001:00109b90       ?type_case_integer@?$output_processor@_WV?$stream_output_adapter@_W@__crt_stdio_output@@V?$standard_base@_WV?$stream_output_adapter@_W@__crt_stdio_output@@@2@@__crt_stdio_output@@AAE_NI_N@Z 1010ab90 f i libucrtd:output.obj
 0001:00109fb0       ?type_case_integer@?$output_processor@_WV?$string_output_adapter@_W@__crt_stdio_output@@V?$format_validation_base@_WV?$string_output_adapter@_W@__crt_stdio_output@@@2@@__crt_stdio_output@@AAE_NI_N@Z 1010afb0 f i libucrtd:output.obj
 0001:0010a3d0       ?type_case_integer@?$output_processor@_WV?$string_output_adapter@_W@__crt_stdio_output@@V?$positional_parameter_base@_WV?$string_output_adapter@_W@__crt_stdio_output@@@2@@__crt_stdio_output@@AAE_NI_N@Z 1010b3d0 f i libucrtd:output.obj
 0001:0010a7f0       ?type_case_integer@?$output_processor@_WV?$string_output_adapter@_W@__crt_stdio_output@@V?$standard_base@_WV?$string_output_adapter@_W@__crt_stdio_output@@@2@@__crt_stdio_output@@AAE_NI_N@Z 1010b7f0 f i libucrtd:output.obj
 0001:0010ac10       ?type_case_n@?$output_processor@DV?$stream_output_adapter@D@__crt_stdio_output@@V?$format_validation_base@DV?$stream_output_adapter@D@__crt_stdio_output@@@2@@__crt_stdio_output@@AAE_NXZ 1010bc10 f i libucrtd:output.obj
 0001:0010ae80       ?type_case_n@?$output_processor@DV?$stream_output_adapter@D@__crt_stdio_output@@V?$positional_parameter_base@DV?$stream_output_adapter@D@__crt_stdio_output@@@2@@__crt_stdio_output@@AAE_NXZ 1010be80 f i libucrtd:output.obj
 0001:0010b0f0       ?type_case_n@?$output_processor@DV?$stream_output_adapter@D@__crt_stdio_output@@V?$standard_base@DV?$stream_output_adapter@D@__crt_stdio_output@@@2@@__crt_stdio_output@@AAE_NXZ 1010c0f0 f i libucrtd:output.obj
 0001:0010b360       ?type_case_n@?$output_processor@DV?$string_output_adapter@D@__crt_stdio_output@@V?$format_validation_base@DV?$string_output_adapter@D@__crt_stdio_output@@@2@@__crt_stdio_output@@AAE_NXZ 1010c360 f i libucrtd:output.obj
 0001:0010b5d0       ?type_case_n@?$output_processor@DV?$string_output_adapter@D@__crt_stdio_output@@V?$positional_parameter_base@DV?$string_output_adapter@D@__crt_stdio_output@@@2@@__crt_stdio_output@@AAE_NXZ 1010c5d0 f i libucrtd:output.obj
 0001:0010b840       ?type_case_n@?$output_processor@DV?$string_output_adapter@D@__crt_stdio_output@@V?$standard_base@DV?$string_output_adapter@D@__crt_stdio_output@@@2@@__crt_stdio_output@@AAE_NXZ 1010c840 f i libucrtd:output.obj
 0001:0010bab0       ?type_case_n@?$output_processor@_WV?$stream_output_adapter@_W@__crt_stdio_output@@V?$format_validation_base@_WV?$stream_output_adapter@_W@__crt_stdio_output@@@2@@__crt_stdio_output@@AAE_NXZ 1010cab0 f i libucrtd:output.obj
 0001:0010bd20       ?type_case_n@?$output_processor@_WV?$stream_output_adapter@_W@__crt_stdio_output@@V?$positional_parameter_base@_WV?$stream_output_adapter@_W@__crt_stdio_output@@@2@@__crt_stdio_output@@AAE_NXZ 1010cd20 f i libucrtd:output.obj
 0001:0010bf90       ?type_case_n@?$output_processor@_WV?$stream_output_adapter@_W@__crt_stdio_output@@V?$standard_base@_WV?$stream_output_adapter@_W@__crt_stdio_output@@@2@@__crt_stdio_output@@AAE_NXZ 1010cf90 f i libucrtd:output.obj
 0001:0010c200       ?type_case_n@?$output_processor@_WV?$string_output_adapter@_W@__crt_stdio_output@@V?$format_validation_base@_WV?$string_output_adapter@_W@__crt_stdio_output@@@2@@__crt_stdio_output@@AAE_NXZ 1010d200 f i libucrtd:output.obj
 0001:0010c470       ?type_case_n@?$output_processor@_WV?$string_output_adapter@_W@__crt_stdio_output@@V?$positional_parameter_base@_WV?$string_output_adapter@_W@__crt_stdio_output@@@2@@__crt_stdio_output@@AAE_NXZ 1010d470 f i libucrtd:output.obj
 0001:0010c6e0       ?type_case_n@?$output_processor@_WV?$string_output_adapter@_W@__crt_stdio_output@@V?$standard_base@_WV?$string_output_adapter@_W@__crt_stdio_output@@@2@@__crt_stdio_output@@AAE_NXZ 1010d6e0 f i libucrtd:output.obj
 0001:0010c950       ?type_case_o@?$output_processor@DV?$stream_output_adapter@D@__crt_stdio_output@@V?$format_validation_base@DV?$stream_output_adapter@D@__crt_stdio_output@@@2@@__crt_stdio_output@@AAE_NXZ 1010d950 f i libucrtd:output.obj
 0001:0010c9a0       ?type_case_o@?$output_processor@DV?$stream_output_adapter@D@__crt_stdio_output@@V?$positional_parameter_base@DV?$stream_output_adapter@D@__crt_stdio_output@@@2@@__crt_stdio_output@@AAE_NXZ 1010d9a0 f i libucrtd:output.obj
 0001:0010c9f0       ?type_case_o@?$output_processor@DV?$stream_output_adapter@D@__crt_stdio_output@@V?$standard_base@DV?$stream_output_adapter@D@__crt_stdio_output@@@2@@__crt_stdio_output@@AAE_NXZ 1010d9f0 f i libucrtd:output.obj
 0001:0010ca40       ?type_case_o@?$output_processor@DV?$string_output_adapter@D@__crt_stdio_output@@V?$format_validation_base@DV?$string_output_adapter@D@__crt_stdio_output@@@2@@__crt_stdio_output@@AAE_NXZ 1010da40 f i libucrtd:output.obj
 0001:0010ca90       ?type_case_o@?$output_processor@DV?$string_output_adapter@D@__crt_stdio_output@@V?$positional_parameter_base@DV?$string_output_adapter@D@__crt_stdio_output@@@2@@__crt_stdio_output@@AAE_NXZ 1010da90 f i libucrtd:output.obj
 0001:0010cae0       ?type_case_o@?$output_processor@DV?$string_output_adapter@D@__crt_stdio_output@@V?$standard_base@DV?$string_output_adapter@D@__crt_stdio_output@@@2@@__crt_stdio_output@@AAE_NXZ 1010dae0 f i libucrtd:output.obj
 0001:0010cb30       ?type_case_o@?$output_processor@_WV?$stream_output_adapter@_W@__crt_stdio_output@@V?$format_validation_base@_WV?$stream_output_adapter@_W@__crt_stdio_output@@@2@@__crt_stdio_output@@AAE_NXZ 1010db30 f i libucrtd:output.obj
 0001:0010cb80       ?type_case_o@?$output_processor@_WV?$stream_output_adapter@_W@__crt_stdio_output@@V?$positional_parameter_base@_WV?$stream_output_adapter@_W@__crt_stdio_output@@@2@@__crt_stdio_output@@AAE_NXZ 1010db80 f i libucrtd:output.obj
 0001:0010cbd0       ?type_case_o@?$output_processor@_WV?$stream_output_adapter@_W@__crt_stdio_output@@V?$standard_base@_WV?$stream_output_adapter@_W@__crt_stdio_output@@@2@@__crt_stdio_output@@AAE_NXZ 1010dbd0 f i libucrtd:output.obj
 0001:0010cc20       ?type_case_o@?$output_processor@_WV?$string_output_adapter@_W@__crt_stdio_output@@V?$format_validation_base@_WV?$string_output_adapter@_W@__crt_stdio_output@@@2@@__crt_stdio_output@@AAE_NXZ 1010dc20 f i libucrtd:output.obj
 0001:0010cc70       ?type_case_o@?$output_processor@_WV?$string_output_adapter@_W@__crt_stdio_output@@V?$positional_parameter_base@_WV?$string_output_adapter@_W@__crt_stdio_output@@@2@@__crt_stdio_output@@AAE_NXZ 1010dc70 f i libucrtd:output.obj
 0001:0010ccc0       ?type_case_o@?$output_processor@_WV?$string_output_adapter@_W@__crt_stdio_output@@V?$standard_base@_WV?$string_output_adapter@_W@__crt_stdio_output@@@2@@__crt_stdio_output@@AAE_NXZ 1010dcc0 f i libucrtd:output.obj
 0001:0010cd10       ?type_case_p@?$output_processor@DV?$stream_output_adapter@D@__crt_stdio_output@@V?$format_validation_base@DV?$stream_output_adapter@D@__crt_stdio_output@@@2@@__crt_stdio_output@@AAE_NXZ 1010dd10 f i libucrtd:output.obj
 0001:0010cd50       ?type_case_p@?$output_processor@DV?$stream_output_adapter@D@__crt_stdio_output@@V?$positional_parameter_base@DV?$stream_output_adapter@D@__crt_stdio_output@@@2@@__crt_stdio_output@@AAE_NXZ 1010dd50 f i libucrtd:output.obj
 0001:0010cd90       ?type_case_p@?$output_processor@DV?$stream_output_adapter@D@__crt_stdio_output@@V?$standard_base@DV?$stream_output_adapter@D@__crt_stdio_output@@@2@@__crt_stdio_output@@AAE_NXZ 1010dd90 f i libucrtd:output.obj
 0001:0010cdd0       ?type_case_p@?$output_processor@DV?$string_output_adapter@D@__crt_stdio_output@@V?$format_validation_base@DV?$string_output_adapter@D@__crt_stdio_output@@@2@@__crt_stdio_output@@AAE_NXZ 1010ddd0 f i libucrtd:output.obj
 0001:0010ce10       ?type_case_p@?$output_processor@DV?$string_output_adapter@D@__crt_stdio_output@@V?$positional_parameter_base@DV?$string_output_adapter@D@__crt_stdio_output@@@2@@__crt_stdio_output@@AAE_NXZ 1010de10 f i libucrtd:output.obj
 0001:0010ce50       ?type_case_p@?$output_processor@DV?$string_output_adapter@D@__crt_stdio_output@@V?$standard_base@DV?$string_output_adapter@D@__crt_stdio_output@@@2@@__crt_stdio_output@@AAE_NXZ 1010de50 f i libucrtd:output.obj
 0001:0010ce90       ?type_case_p@?$output_processor@_WV?$stream_output_adapter@_W@__crt_stdio_output@@V?$format_validation_base@_WV?$stream_output_adapter@_W@__crt_stdio_output@@@2@@__crt_stdio_output@@AAE_NXZ 1010de90 f i libucrtd:output.obj
 0001:0010ced0       ?type_case_p@?$output_processor@_WV?$stream_output_adapter@_W@__crt_stdio_output@@V?$positional_parameter_base@_WV?$stream_output_adapter@_W@__crt_stdio_output@@@2@@__crt_stdio_output@@AAE_NXZ 1010ded0 f i libucrtd:output.obj
 0001:0010cf10       ?type_case_p@?$output_processor@_WV?$stream_output_adapter@_W@__crt_stdio_output@@V?$standard_base@_WV?$stream_output_adapter@_W@__crt_stdio_output@@@2@@__crt_stdio_output@@AAE_NXZ 1010df10 f i libucrtd:output.obj
 0001:0010cf50       ?type_case_p@?$output_processor@_WV?$string_output_adapter@_W@__crt_stdio_output@@V?$format_validation_base@_WV?$string_output_adapter@_W@__crt_stdio_output@@@2@@__crt_stdio_output@@AAE_NXZ 1010df50 f i libucrtd:output.obj
 0001:0010cf90       ?type_case_p@?$output_processor@_WV?$string_output_adapter@_W@__crt_stdio_output@@V?$positional_parameter_base@_WV?$string_output_adapter@_W@__crt_stdio_output@@@2@@__crt_stdio_output@@AAE_NXZ 1010df90 f i libucrtd:output.obj
 0001:0010cfd0       ?type_case_p@?$output_processor@_WV?$string_output_adapter@_W@__crt_stdio_output@@V?$standard_base@_WV?$string_output_adapter@_W@__crt_stdio_output@@@2@@__crt_stdio_output@@AAE_NXZ 1010dfd0 f i libucrtd:output.obj
 0001:0010d010       ?type_case_s@?$output_processor@DV?$stream_output_adapter@D@__crt_stdio_output@@V?$format_validation_base@DV?$stream_output_adapter@D@__crt_stdio_output@@@2@@__crt_stdio_output@@AAE_NXZ 1010e010 f i libucrtd:output.obj
 0001:0010d140       ?type_case_s@?$output_processor@DV?$stream_output_adapter@D@__crt_stdio_output@@V?$positional_parameter_base@DV?$stream_output_adapter@D@__crt_stdio_output@@@2@@__crt_stdio_output@@AAE_NXZ 1010e140 f i libucrtd:output.obj
 0001:0010d270       ?type_case_s@?$output_processor@DV?$stream_output_adapter@D@__crt_stdio_output@@V?$standard_base@DV?$stream_output_adapter@D@__crt_stdio_output@@@2@@__crt_stdio_output@@AAE_NXZ 1010e270 f i libucrtd:output.obj
 0001:0010d3a0       ?type_case_s@?$output_processor@DV?$string_output_adapter@D@__crt_stdio_output@@V?$format_validation_base@DV?$string_output_adapter@D@__crt_stdio_output@@@2@@__crt_stdio_output@@AAE_NXZ 1010e3a0 f i libucrtd:output.obj
 0001:0010d4d0       ?type_case_s@?$output_processor@DV?$string_output_adapter@D@__crt_stdio_output@@V?$positional_parameter_base@DV?$string_output_adapter@D@__crt_stdio_output@@@2@@__crt_stdio_output@@AAE_NXZ 1010e4d0 f i libucrtd:output.obj
 0001:0010d600       ?type_case_s@?$output_processor@DV?$string_output_adapter@D@__crt_stdio_output@@V?$standard_base@DV?$string_output_adapter@D@__crt_stdio_output@@@2@@__crt_stdio_output@@AAE_NXZ 1010e600 f i libucrtd:output.obj
 0001:0010d730       ?type_case_s@?$output_processor@_WV?$stream_output_adapter@_W@__crt_stdio_output@@V?$format_validation_base@_WV?$stream_output_adapter@_W@__crt_stdio_output@@@2@@__crt_stdio_output@@AAE_NXZ 1010e730 f i libucrtd:output.obj
 0001:0010d860       ?type_case_s@?$output_processor@_WV?$stream_output_adapter@_W@__crt_stdio_output@@V?$positional_parameter_base@_WV?$stream_output_adapter@_W@__crt_stdio_output@@@2@@__crt_stdio_output@@AAE_NXZ 1010e860 f i libucrtd:output.obj
 0001:0010d990       ?type_case_s@?$output_processor@_WV?$stream_output_adapter@_W@__crt_stdio_output@@V?$standard_base@_WV?$stream_output_adapter@_W@__crt_stdio_output@@@2@@__crt_stdio_output@@AAE_NXZ 1010e990 f i libucrtd:output.obj
 0001:0010dac0       ?type_case_s@?$output_processor@_WV?$string_output_adapter@_W@__crt_stdio_output@@V?$format_validation_base@_WV?$string_output_adapter@_W@__crt_stdio_output@@@2@@__crt_stdio_output@@AAE_NXZ 1010eac0 f i libucrtd:output.obj
 0001:0010dbf0       ?type_case_s@?$output_processor@_WV?$string_output_adapter@_W@__crt_stdio_output@@V?$positional_parameter_base@_WV?$string_output_adapter@_W@__crt_stdio_output@@@2@@__crt_stdio_output@@AAE_NXZ 1010ebf0 f i libucrtd:output.obj
 0001:0010dd20       ?type_case_s@?$output_processor@_WV?$string_output_adapter@_W@__crt_stdio_output@@V?$standard_base@_WV?$string_output_adapter@_W@__crt_stdio_output@@@2@@__crt_stdio_output@@AAE_NXZ 1010ed20 f i libucrtd:output.obj
 0001:0010de50       ?type_case_s_compute_narrow_string_length@?$output_processor@DV?$stream_output_adapter@D@__crt_stdio_output@@V?$format_validation_base@DV?$stream_output_adapter@D@__crt_stdio_output@@@2@@__crt_stdio_output@@ABEHHD@Z 1010ee50 f i libucrtd:output.obj
 0001:0010de80       ?type_case_s_compute_narrow_string_length@?$output_processor@DV?$stream_output_adapter@D@__crt_stdio_output@@V?$positional_parameter_base@DV?$stream_output_adapter@D@__crt_stdio_output@@@2@@__crt_stdio_output@@ABEHHD@Z 1010ee80 f i libucrtd:output.obj
 0001:0010deb0       ?type_case_s_compute_narrow_string_length@?$output_processor@DV?$stream_output_adapter@D@__crt_stdio_output@@V?$standard_base@DV?$stream_output_adapter@D@__crt_stdio_output@@@2@@__crt_stdio_output@@ABEHHD@Z 1010eeb0 f i libucrtd:output.obj
 0001:0010dee0       ?type_case_s_compute_narrow_string_length@?$output_processor@DV?$string_output_adapter@D@__crt_stdio_output@@V?$format_validation_base@DV?$string_output_adapter@D@__crt_stdio_output@@@2@@__crt_stdio_output@@ABEHHD@Z 1010eee0 f i libucrtd:output.obj
 0001:0010df10       ?type_case_s_compute_narrow_string_length@?$output_processor@DV?$string_output_adapter@D@__crt_stdio_output@@V?$positional_parameter_base@DV?$string_output_adapter@D@__crt_stdio_output@@@2@@__crt_stdio_output@@ABEHHD@Z 1010ef10 f i libucrtd:output.obj
 0001:0010df40       ?type_case_s_compute_narrow_string_length@?$output_processor@DV?$string_output_adapter@D@__crt_stdio_output@@V?$standard_base@DV?$string_output_adapter@D@__crt_stdio_output@@@2@@__crt_stdio_output@@ABEHHD@Z 1010ef40 f i libucrtd:output.obj
 0001:0010df70       ?type_case_s_compute_narrow_string_length@?$output_processor@_WV?$stream_output_adapter@_W@__crt_stdio_output@@V?$format_validation_base@_WV?$stream_output_adapter@_W@__crt_stdio_output@@@2@@__crt_stdio_output@@ABEHH_W@Z 1010ef70 f i libucrtd:output.obj
 0001:0010e000       ?type_case_s_compute_narrow_string_length@?$output_processor@_WV?$stream_output_adapter@_W@__crt_stdio_output@@V?$positional_parameter_base@_WV?$stream_output_adapter@_W@__crt_stdio_output@@@2@@__crt_stdio_output@@ABEHH_W@Z 1010f000 f i libucrtd:output.obj
 0001:0010e090       ?type_case_s_compute_narrow_string_length@?$output_processor@_WV?$stream_output_adapter@_W@__crt_stdio_output@@V?$standard_base@_WV?$stream_output_adapter@_W@__crt_stdio_output@@@2@@__crt_stdio_output@@ABEHH_W@Z 1010f090 f i libucrtd:output.obj
 0001:0010e120       ?type_case_s_compute_narrow_string_length@?$output_processor@_WV?$string_output_adapter@_W@__crt_stdio_output@@V?$format_validation_base@_WV?$string_output_adapter@_W@__crt_stdio_output@@@2@@__crt_stdio_output@@ABEHH_W@Z 1010f120 f i libucrtd:output.obj
 0001:0010e1b0       ?type_case_s_compute_narrow_string_length@?$output_processor@_WV?$string_output_adapter@_W@__crt_stdio_output@@V?$positional_parameter_base@_WV?$string_output_adapter@_W@__crt_stdio_output@@@2@@__crt_stdio_output@@ABEHH_W@Z 1010f1b0 f i libucrtd:output.obj
 0001:0010e240       ?type_case_s_compute_narrow_string_length@?$output_processor@_WV?$string_output_adapter@_W@__crt_stdio_output@@V?$standard_base@_WV?$string_output_adapter@_W@__crt_stdio_output@@@2@@__crt_stdio_output@@ABEHH_W@Z 1010f240 f i libucrtd:output.obj
 0001:0010e2d0       ?type_case_u@?$output_processor@DV?$stream_output_adapter@D@__crt_stdio_output@@V?$format_validation_base@DV?$stream_output_adapter@D@__crt_stdio_output@@@2@@__crt_stdio_output@@AAE_NXZ 1010f2d0 f i libucrtd:output.obj
 0001:0010e2f0       ?type_case_u@?$output_processor@DV?$stream_output_adapter@D@__crt_stdio_output@@V?$positional_parameter_base@DV?$stream_output_adapter@D@__crt_stdio_output@@@2@@__crt_stdio_output@@AAE_NXZ 1010f2f0 f i libucrtd:output.obj
 0001:0010e310       ?type_case_u@?$output_processor@DV?$stream_output_adapter@D@__crt_stdio_output@@V?$standard_base@DV?$stream_output_adapter@D@__crt_stdio_output@@@2@@__crt_stdio_output@@AAE_NXZ 1010f310 f i libucrtd:output.obj
 0001:0010e330       ?type_case_u@?$output_processor@DV?$string_output_adapter@D@__crt_stdio_output@@V?$format_validation_base@DV?$string_output_adapter@D@__crt_stdio_output@@@2@@__crt_stdio_output@@AAE_NXZ 1010f330 f i libucrtd:output.obj
 0001:0010e350       ?type_case_u@?$output_processor@DV?$string_output_adapter@D@__crt_stdio_output@@V?$positional_parameter_base@DV?$string_output_adapter@D@__crt_stdio_output@@@2@@__crt_stdio_output@@AAE_NXZ 1010f350 f i libucrtd:output.obj
 0001:0010e370       ?type_case_u@?$output_processor@DV?$string_output_adapter@D@__crt_stdio_output@@V?$standard_base@DV?$string_output_adapter@D@__crt_stdio_output@@@2@@__crt_stdio_output@@AAE_NXZ 1010f370 f i libucrtd:output.obj
 0001:0010e390       ?type_case_u@?$output_processor@_WV?$stream_output_adapter@_W@__crt_stdio_output@@V?$format_validation_base@_WV?$stream_output_adapter@_W@__crt_stdio_output@@@2@@__crt_stdio_output@@AAE_NXZ 1010f390 f i libucrtd:output.obj
 0001:0010e3b0       ?type_case_u@?$output_processor@_WV?$stream_output_adapter@_W@__crt_stdio_output@@V?$positional_parameter_base@_WV?$stream_output_adapter@_W@__crt_stdio_output@@@2@@__crt_stdio_output@@AAE_NXZ 1010f3b0 f i libucrtd:output.obj
 0001:0010e3d0       ?type_case_u@?$output_processor@_WV?$stream_output_adapter@_W@__crt_stdio_output@@V?$standard_base@_WV?$stream_output_adapter@_W@__crt_stdio_output@@@2@@__crt_stdio_output@@AAE_NXZ 1010f3d0 f i libucrtd:output.obj
 0001:0010e3f0       ?type_case_u@?$output_processor@_WV?$string_output_adapter@_W@__crt_stdio_output@@V?$format_validation_base@_WV?$string_output_adapter@_W@__crt_stdio_output@@@2@@__crt_stdio_output@@AAE_NXZ 1010f3f0 f i libucrtd:output.obj
 0001:0010e410       ?type_case_u@?$output_processor@_WV?$string_output_adapter@_W@__crt_stdio_output@@V?$positional_parameter_base@_WV?$string_output_adapter@_W@__crt_stdio_output@@@2@@__crt_stdio_output@@AAE_NXZ 1010f410 f i libucrtd:output.obj
 0001:0010e430       ?type_case_u@?$output_processor@_WV?$string_output_adapter@_W@__crt_stdio_output@@V?$standard_base@_WV?$string_output_adapter@_W@__crt_stdio_output@@@2@@__crt_stdio_output@@AAE_NXZ 1010f430 f i libucrtd:output.obj
 0001:0010e450       ?type_case_x@?$output_processor@DV?$stream_output_adapter@D@__crt_stdio_output@@V?$format_validation_base@DV?$stream_output_adapter@D@__crt_stdio_output@@@2@@__crt_stdio_output@@AAE_NXZ 1010f450 f i libucrtd:output.obj
 0001:0010e470       ?type_case_x@?$output_processor@DV?$stream_output_adapter@D@__crt_stdio_output@@V?$positional_parameter_base@DV?$stream_output_adapter@D@__crt_stdio_output@@@2@@__crt_stdio_output@@AAE_NXZ 1010f470 f i libucrtd:output.obj
 0001:0010e490       ?type_case_x@?$output_processor@DV?$stream_output_adapter@D@__crt_stdio_output@@V?$standard_base@DV?$stream_output_adapter@D@__crt_stdio_output@@@2@@__crt_stdio_output@@AAE_NXZ 1010f490 f i libucrtd:output.obj
 0001:0010e4b0       ?type_case_x@?$output_processor@DV?$string_output_adapter@D@__crt_stdio_output@@V?$format_validation_base@DV?$string_output_adapter@D@__crt_stdio_output@@@2@@__crt_stdio_output@@AAE_NXZ 1010f4b0 f i libucrtd:output.obj
 0001:0010e4d0       ?type_case_x@?$output_processor@DV?$string_output_adapter@D@__crt_stdio_output@@V?$positional_parameter_base@DV?$string_output_adapter@D@__crt_stdio_output@@@2@@__crt_stdio_output@@AAE_NXZ 1010f4d0 f i libucrtd:output.obj
 0001:0010e4f0       ?type_case_x@?$output_processor@DV?$string_output_adapter@D@__crt_stdio_output@@V?$standard_base@DV?$string_output_adapter@D@__crt_stdio_output@@@2@@__crt_stdio_output@@AAE_NXZ 1010f4f0 f i libucrtd:output.obj
 0001:0010e510       ?type_case_x@?$output_processor@_WV?$stream_output_adapter@_W@__crt_stdio_output@@V?$format_validation_base@_WV?$stream_output_adapter@_W@__crt_stdio_output@@@2@@__crt_stdio_output@@AAE_NXZ 1010f510 f i libucrtd:output.obj
 0001:0010e530       ?type_case_x@?$output_processor@_WV?$stream_output_adapter@_W@__crt_stdio_output@@V?$positional_parameter_base@_WV?$stream_output_adapter@_W@__crt_stdio_output@@@2@@__crt_stdio_output@@AAE_NXZ 1010f530 f i libucrtd:output.obj
 0001:0010e550       ?type_case_x@?$output_processor@_WV?$stream_output_adapter@_W@__crt_stdio_output@@V?$standard_base@_WV?$stream_output_adapter@_W@__crt_stdio_output@@@2@@__crt_stdio_output@@AAE_NXZ 1010f550 f i libucrtd:output.obj
 0001:0010e570       ?type_case_x@?$output_processor@_WV?$string_output_adapter@_W@__crt_stdio_output@@V?$format_validation_base@_WV?$string_output_adapter@_W@__crt_stdio_output@@@2@@__crt_stdio_output@@AAE_NXZ 1010f570 f i libucrtd:output.obj
 0001:0010e590       ?type_case_x@?$output_processor@_WV?$string_output_adapter@_W@__crt_stdio_output@@V?$positional_parameter_base@_WV?$string_output_adapter@_W@__crt_stdio_output@@@2@@__crt_stdio_output@@AAE_NXZ 1010f590 f i libucrtd:output.obj
 0001:0010e5b0       ?type_case_x@?$output_processor@_WV?$string_output_adapter@_W@__crt_stdio_output@@V?$standard_base@_WV?$string_output_adapter@_W@__crt_stdio_output@@@2@@__crt_stdio_output@@AAE_NXZ 1010f5b0 f i libucrtd:output.obj
 0001:0010e5d0       ?unset_flag@?$output_processor@DV?$stream_output_adapter@D@__crt_stdio_output@@V?$format_validation_base@DV?$stream_output_adapter@D@__crt_stdio_output@@@2@@__crt_stdio_output@@AAEXI@Z 1010f5d0 f i libucrtd:output.obj
 0001:0010e600       ?unset_flag@?$output_processor@DV?$stream_output_adapter@D@__crt_stdio_output@@V?$positional_parameter_base@DV?$stream_output_adapter@D@__crt_stdio_output@@@2@@__crt_stdio_output@@AAEXI@Z 1010f600 f i libucrtd:output.obj
 0001:0010e630       ?unset_flag@?$output_processor@DV?$stream_output_adapter@D@__crt_stdio_output@@V?$standard_base@DV?$stream_output_adapter@D@__crt_stdio_output@@@2@@__crt_stdio_output@@AAEXI@Z 1010f630 f i libucrtd:output.obj
 0001:0010e660       ?unset_flag@?$output_processor@DV?$string_output_adapter@D@__crt_stdio_output@@V?$format_validation_base@DV?$string_output_adapter@D@__crt_stdio_output@@@2@@__crt_stdio_output@@AAEXI@Z 1010f660 f i libucrtd:output.obj
 0001:0010e690       ?unset_flag@?$output_processor@DV?$string_output_adapter@D@__crt_stdio_output@@V?$positional_parameter_base@DV?$string_output_adapter@D@__crt_stdio_output@@@2@@__crt_stdio_output@@AAEXI@Z 1010f690 f i libucrtd:output.obj
 0001:0010e6c0       ?unset_flag@?$output_processor@DV?$string_output_adapter@D@__crt_stdio_output@@V?$standard_base@DV?$string_output_adapter@D@__crt_stdio_output@@@2@@__crt_stdio_output@@AAEXI@Z 1010f6c0 f i libucrtd:output.obj
 0001:0010e6f0       ?unset_flag@?$output_processor@_WV?$stream_output_adapter@_W@__crt_stdio_output@@V?$format_validation_base@_WV?$stream_output_adapter@_W@__crt_stdio_output@@@2@@__crt_stdio_output@@AAEXI@Z 1010f6f0 f i libucrtd:output.obj
 0001:0010e720       ?unset_flag@?$output_processor@_WV?$stream_output_adapter@_W@__crt_stdio_output@@V?$positional_parameter_base@_WV?$stream_output_adapter@_W@__crt_stdio_output@@@2@@__crt_stdio_output@@AAEXI@Z 1010f720 f i libucrtd:output.obj
 0001:0010e750       ?unset_flag@?$output_processor@_WV?$stream_output_adapter@_W@__crt_stdio_output@@V?$standard_base@_WV?$stream_output_adapter@_W@__crt_stdio_output@@@2@@__crt_stdio_output@@AAEXI@Z 1010f750 f i libucrtd:output.obj
 0001:0010e780       ?unset_flag@?$output_processor@_WV?$string_output_adapter@_W@__crt_stdio_output@@V?$format_validation_base@_WV?$string_output_adapter@_W@__crt_stdio_output@@@2@@__crt_stdio_output@@AAEXI@Z 1010f780 f i libucrtd:output.obj
 0001:0010e7b0       ?unset_flag@?$output_processor@_WV?$string_output_adapter@_W@__crt_stdio_output@@V?$positional_parameter_base@_WV?$string_output_adapter@_W@__crt_stdio_output@@@2@@__crt_stdio_output@@AAEXI@Z 1010f7b0 f i libucrtd:output.obj
 0001:0010e7e0       ?unset_flag@?$output_processor@_WV?$string_output_adapter@_W@__crt_stdio_output@@V?$standard_base@_WV?$string_output_adapter@_W@__crt_stdio_output@@@2@@__crt_stdio_output@@AAEXI@Z 1010f7e0 f i libucrtd:output.obj
 0001:0010e810       ?update_field_width@?$positional_parameter_base@DV?$stream_output_adapter@D@__crt_stdio_output@@@__crt_stdio_output@@IAE_NXZ 1010f810 f i libucrtd:output.obj
 0001:0010e9f0       ?update_field_width@?$positional_parameter_base@DV?$string_output_adapter@D@__crt_stdio_output@@@__crt_stdio_output@@IAE_NXZ 1010f9f0 f i libucrtd:output.obj
 0001:0010ebd0       ?update_field_width@?$positional_parameter_base@_WV?$stream_output_adapter@_W@__crt_stdio_output@@@__crt_stdio_output@@IAE_NXZ 1010fbd0 f i libucrtd:output.obj
 0001:0010edb0       ?update_field_width@?$positional_parameter_base@_WV?$string_output_adapter@_W@__crt_stdio_output@@@__crt_stdio_output@@IAE_NXZ 1010fdb0 f i libucrtd:output.obj
 0001:0010ef90       ?update_field_width@?$standard_base@DV?$stream_output_adapter@D@__crt_stdio_output@@@__crt_stdio_output@@IAE_NXZ 1010ff90 f i libucrtd:output.obj
 0001:0010efc0       ?update_field_width@?$standard_base@DV?$string_output_adapter@D@__crt_stdio_output@@@__crt_stdio_output@@IAE_NXZ 1010ffc0 f i libucrtd:output.obj
 0001:0010eff0       ?update_field_width@?$standard_base@_WV?$stream_output_adapter@_W@__crt_stdio_output@@@__crt_stdio_output@@IAE_NXZ 1010fff0 f i libucrtd:output.obj
 0001:0010f020       ?update_field_width@?$standard_base@_WV?$string_output_adapter@_W@__crt_stdio_output@@@__crt_stdio_output@@IAE_NXZ 10110020 f i libucrtd:output.obj
 0001:0010f050       ?update_precision@?$positional_parameter_base@DV?$stream_output_adapter@D@__crt_stdio_output@@@__crt_stdio_output@@IAE_NXZ 10110050 f i libucrtd:output.obj
 0001:0010f230       ?update_precision@?$positional_parameter_base@DV?$string_output_adapter@D@__crt_stdio_output@@@__crt_stdio_output@@IAE_NXZ 10110230 f i libucrtd:output.obj
 0001:0010f410       ?update_precision@?$positional_parameter_base@_WV?$stream_output_adapter@_W@__crt_stdio_output@@@__crt_stdio_output@@IAE_NXZ 10110410 f i libucrtd:output.obj
 0001:0010f5f0       ?update_precision@?$positional_parameter_base@_WV?$string_output_adapter@_W@__crt_stdio_output@@@__crt_stdio_output@@IAE_NXZ 101105f0 f i libucrtd:output.obj
 0001:0010f7d0       ?update_precision@?$standard_base@DV?$stream_output_adapter@D@__crt_stdio_output@@@__crt_stdio_output@@IAE_NXZ 101107d0 f i libucrtd:output.obj
 0001:0010f800       ?update_precision@?$standard_base@DV?$string_output_adapter@D@__crt_stdio_output@@@__crt_stdio_output@@IAE_NXZ 10110800 f i libucrtd:output.obj
 0001:0010f830       ?update_precision@?$standard_base@_WV?$stream_output_adapter@_W@__crt_stdio_output@@@__crt_stdio_output@@IAE_NXZ 10110830 f i libucrtd:output.obj
 0001:0010f860       ?update_precision@?$standard_base@_WV?$string_output_adapter@_W@__crt_stdio_output@@@__crt_stdio_output@@IAE_NXZ 10110860 f i libucrtd:output.obj
 0001:0010f890       ?valid@__crt_stdio_stream@@QBE_NXZ 10110890 f i libucrtd:output.obj
 0001:0010f8d0       ?validate@?$stream_output_adapter@D@__crt_stdio_output@@QBE_NXZ 101108d0 f i libucrtd:output.obj
 0001:0010f9a0       ?validate@?$stream_output_adapter@_W@__crt_stdio_output@@QBE_NXZ 101109a0 f i libucrtd:output.obj
 0001:0010fa70       ?validate@?$string_output_adapter@D@__crt_stdio_output@@QBE_NXZ 10110a70 f i libucrtd:output.obj
 0001:0010fb30       ?validate@?$string_output_adapter@_W@__crt_stdio_output@@QBE_NXZ 10110b30 f i libucrtd:output.obj
 0001:0010fbf0       ?validate_and_store_parameter_data@?$positional_parameter_base@DV?$stream_output_adapter@D@__crt_stdio_output@@@__crt_stdio_output@@AAE_NAAUparameter_data@12@W4parameter_type@12@DW4length_modifier@2@@Z 10110bf0 f i libucrtd:output.obj
 0001:0010fd00       ?validate_and_store_parameter_data@?$positional_parameter_base@DV?$string_output_adapter@D@__crt_stdio_output@@@__crt_stdio_output@@AAE_NAAUparameter_data@12@W4parameter_type@12@DW4length_modifier@2@@Z 10110d00 f i libucrtd:output.obj
 0001:0010fe10       ?validate_and_store_parameter_data@?$positional_parameter_base@_WV?$stream_output_adapter@_W@__crt_stdio_output@@@__crt_stdio_output@@AAE_NAAUparameter_data@12@W4parameter_type@12@_WW4length_modifier@2@@Z 10110e10 f i libucrtd:output.obj
 0001:0010ff20       ?validate_and_store_parameter_data@?$positional_parameter_base@_WV?$string_output_adapter@_W@__crt_stdio_output@@@__crt_stdio_output@@AAE_NAAUparameter_data@12@W4parameter_type@12@_WW4length_modifier@2@@Z 10110f20 f i libucrtd:output.obj
 0001:00110030       ?validate_and_update_state_at_beginning_of_format_character@?$positional_parameter_base@DV?$stream_output_adapter@D@__crt_stdio_output@@@__crt_stdio_output@@IAE_NXZ 10111030 f i libucrtd:output.obj
 0001:001102e0       ?validate_and_update_state_at_beginning_of_format_character@?$positional_parameter_base@DV?$string_output_adapter@D@__crt_stdio_output@@@__crt_stdio_output@@IAE_NXZ 101112e0 f i libucrtd:output.obj
 0001:00110590       ?validate_and_update_state_at_beginning_of_format_character@?$positional_parameter_base@_WV?$stream_output_adapter@_W@__crt_stdio_output@@@__crt_stdio_output@@IAE_NXZ 10111590 f i libucrtd:output.obj
 0001:00110840       ?validate_and_update_state_at_beginning_of_format_character@?$positional_parameter_base@_WV?$string_output_adapter@_W@__crt_stdio_output@@@__crt_stdio_output@@IAE_NXZ 10111840 f i libucrtd:output.obj
 0001:00110af0       ?validate_and_update_state_at_beginning_of_format_character@?$standard_base@DV?$stream_output_adapter@D@__crt_stdio_output@@@__crt_stdio_output@@IAE_NXZ 10111af0 f i libucrtd:output.obj
 0001:00110b10       ?validate_and_update_state_at_beginning_of_format_character@?$standard_base@DV?$string_output_adapter@D@__crt_stdio_output@@@__crt_stdio_output@@IAE_NXZ 10111b10 f i libucrtd:output.obj
 0001:00110b30       ?validate_and_update_state_at_beginning_of_format_character@?$standard_base@_WV?$stream_output_adapter@_W@__crt_stdio_output@@@__crt_stdio_output@@IAE_NXZ 10111b30 f i libucrtd:output.obj
 0001:00110b50       ?validate_and_update_state_at_beginning_of_format_character@?$standard_base@_WV?$string_output_adapter@_W@__crt_stdio_output@@@__crt_stdio_output@@IAE_NXZ 10111b50 f i libucrtd:output.obj
 0001:00110b70       ?validate_and_update_state_at_end_of_format_string@?$format_validation_base@DV?$stream_output_adapter@D@__crt_stdio_output@@@__crt_stdio_output@@IBE_NXZ 10111b70 f i libucrtd:output.obj
 0001:00110c30       ?validate_and_update_state_at_end_of_format_string@?$format_validation_base@DV?$string_output_adapter@D@__crt_stdio_output@@@__crt_stdio_output@@IBE_NXZ 10111c30 f i libucrtd:output.obj
 0001:00110cf0       ?validate_and_update_state_at_end_of_format_string@?$format_validation_base@_WV?$stream_output_adapter@_W@__crt_stdio_output@@@__crt_stdio_output@@IBE_NXZ 10111cf0 f i libucrtd:output.obj
 0001:00110db0       ?validate_and_update_state_at_end_of_format_string@?$format_validation_base@_WV?$string_output_adapter@_W@__crt_stdio_output@@@__crt_stdio_output@@IBE_NXZ 10111db0 f i libucrtd:output.obj
 0001:00110e70       ?validate_and_update_state_at_end_of_format_string@?$positional_parameter_base@DV?$stream_output_adapter@D@__crt_stdio_output@@@__crt_stdio_output@@IAE_NXZ 10111e70 f i libucrtd:output.obj
 0001:00111070       ?validate_and_update_state_at_end_of_format_string@?$positional_parameter_base@DV?$string_output_adapter@D@__crt_stdio_output@@@__crt_stdio_output@@IAE_NXZ 10112070 f i libucrtd:output.obj
 0001:00111270       ?validate_and_update_state_at_end_of_format_string@?$positional_parameter_base@_WV?$stream_output_adapter@_W@__crt_stdio_output@@@__crt_stdio_output@@IAE_NXZ 10112270 f i libucrtd:output.obj
 0001:00111470       ?validate_and_update_state_at_end_of_format_string@?$positional_parameter_base@_WV?$string_output_adapter@_W@__crt_stdio_output@@@__crt_stdio_output@@IAE_NXZ 10112470 f i libucrtd:output.obj
 0001:00111670       ?validate_and_update_state_at_end_of_format_string@?$standard_base@DV?$stream_output_adapter@D@__crt_stdio_output@@@__crt_stdio_output@@IBE_NXZ 10112670 f i libucrtd:output.obj
 0001:00111690       ?validate_and_update_state_at_end_of_format_string@?$standard_base@DV?$string_output_adapter@D@__crt_stdio_output@@@__crt_stdio_output@@IBE_NXZ 10112690 f i libucrtd:output.obj
 0001:001116b0       ?validate_and_update_state_at_end_of_format_string@?$standard_base@_WV?$stream_output_adapter@_W@__crt_stdio_output@@@__crt_stdio_output@@IBE_NXZ 101126b0 f i libucrtd:output.obj
 0001:001116d0       ?validate_and_update_state_at_end_of_format_string@?$standard_base@_WV?$string_output_adapter@_W@__crt_stdio_output@@@__crt_stdio_output@@IBE_NXZ 101126d0 f i libucrtd:output.obj
 0001:001116f0       ?validate_state_for_type_case_a@?$positional_parameter_base@DV?$stream_output_adapter@D@__crt_stdio_output@@@__crt_stdio_output@@IAE_NXZ 101126f0 f i libucrtd:output.obj
 0001:00111820       ?validate_state_for_type_case_a@?$positional_parameter_base@DV?$string_output_adapter@D@__crt_stdio_output@@@__crt_stdio_output@@IAE_NXZ 10112820 f i libucrtd:output.obj
 0001:00111950       ?validate_state_for_type_case_a@?$positional_parameter_base@_WV?$stream_output_adapter@_W@__crt_stdio_output@@@__crt_stdio_output@@IAE_NXZ 10112950 f i libucrtd:output.obj
 0001:00111a80       ?validate_state_for_type_case_a@?$positional_parameter_base@_WV?$string_output_adapter@_W@__crt_stdio_output@@@__crt_stdio_output@@IAE_NXZ 10112a80 f i libucrtd:output.obj
 0001:00111bb0       ?validate_state_for_type_case_a@?$standard_base@DV?$stream_output_adapter@D@__crt_stdio_output@@@__crt_stdio_output@@IBE_NXZ 10112bb0 f i libucrtd:output.obj
 0001:00111bd0       ?validate_state_for_type_case_a@?$standard_base@DV?$string_output_adapter@D@__crt_stdio_output@@@__crt_stdio_output@@IBE_NXZ 10112bd0 f i libucrtd:output.obj
 0001:00111bf0       ?validate_state_for_type_case_a@?$standard_base@_WV?$stream_output_adapter@_W@__crt_stdio_output@@@__crt_stdio_output@@IBE_NXZ 10112bf0 f i libucrtd:output.obj
 0001:00111c10       ?validate_state_for_type_case_a@?$standard_base@_WV?$string_output_adapter@_W@__crt_stdio_output@@@__crt_stdio_output@@IBE_NXZ 10112c10 f i libucrtd:output.obj
 0001:00111c30       ?validate_stream_is_ansi_if_required@?$__acrt_stdio_char_traits@D@@SA_NQAU_iobuf@@@Z 10112c30 f i libucrtd:output.obj
 0001:00111db0       ?validate_stream_is_ansi_if_required@?$__acrt_stdio_char_traits@_W@@SA_NQAU_iobuf@@@Z 10112db0 f i libucrtd:output.obj
 0001:00111dc0       ?wide_null_string@?$output_processor@DV?$stream_output_adapter@D@__crt_stdio_output@@V?$format_validation_base@DV?$stream_output_adapter@D@__crt_stdio_output@@@2@@__crt_stdio_output@@CAPA_WXZ 10112dc0 f i libucrtd:output.obj
 0001:00111dd0       ?wide_null_string@?$output_processor@DV?$stream_output_adapter@D@__crt_stdio_output@@V?$positional_parameter_base@DV?$stream_output_adapter@D@__crt_stdio_output@@@2@@__crt_stdio_output@@CAPA_WXZ 10112dd0 f i libucrtd:output.obj
 0001:00111de0       ?wide_null_string@?$output_processor@DV?$stream_output_adapter@D@__crt_stdio_output@@V?$standard_base@DV?$stream_output_adapter@D@__crt_stdio_output@@@2@@__crt_stdio_output@@CAPA_WXZ 10112de0 f i libucrtd:output.obj
 0001:00111df0       ?wide_null_string@?$output_processor@DV?$string_output_adapter@D@__crt_stdio_output@@V?$format_validation_base@DV?$string_output_adapter@D@__crt_stdio_output@@@2@@__crt_stdio_output@@CAPA_WXZ 10112df0 f i libucrtd:output.obj
 0001:00111e00       ?wide_null_string@?$output_processor@DV?$string_output_adapter@D@__crt_stdio_output@@V?$positional_parameter_base@DV?$string_output_adapter@D@__crt_stdio_output@@@2@@__crt_stdio_output@@CAPA_WXZ 10112e00 f i libucrtd:output.obj
 0001:00111e10       ?wide_null_string@?$output_processor@DV?$string_output_adapter@D@__crt_stdio_output@@V?$standard_base@DV?$string_output_adapter@D@__crt_stdio_output@@@2@@__crt_stdio_output@@CAPA_WXZ 10112e10 f i libucrtd:output.obj
 0001:00111e20       ?wide_null_string@?$output_processor@_WV?$stream_output_adapter@_W@__crt_stdio_output@@V?$format_validation_base@_WV?$stream_output_adapter@_W@__crt_stdio_output@@@2@@__crt_stdio_output@@CAPA_WXZ 10112e20 f i libucrtd:output.obj
 0001:00111e30       ?wide_null_string@?$output_processor@_WV?$stream_output_adapter@_W@__crt_stdio_output@@V?$positional_parameter_base@_WV?$stream_output_adapter@_W@__crt_stdio_output@@@2@@__crt_stdio_output@@CAPA_WXZ 10112e30 f i libucrtd:output.obj
 0001:00111e40       ?wide_null_string@?$output_processor@_WV?$stream_output_adapter@_W@__crt_stdio_output@@V?$standard_base@_WV?$stream_output_adapter@_W@__crt_stdio_output@@@2@@__crt_stdio_output@@CAPA_WXZ 10112e40 f i libucrtd:output.obj
 0001:00111e50       ?wide_null_string@?$output_processor@_WV?$string_output_adapter@_W@__crt_stdio_output@@V?$format_validation_base@_WV?$string_output_adapter@_W@__crt_stdio_output@@@2@@__crt_stdio_output@@CAPA_WXZ 10112e50 f i libucrtd:output.obj
 0001:00111e60       ?wide_null_string@?$output_processor@_WV?$string_output_adapter@_W@__crt_stdio_output@@V?$positional_parameter_base@_WV?$string_output_adapter@_W@__crt_stdio_output@@@2@@__crt_stdio_output@@CAPA_WXZ 10112e60 f i libucrtd:output.obj
 0001:00111e70       ?wide_null_string@?$output_processor@_WV?$string_output_adapter@_W@__crt_stdio_output@@V?$standard_base@_WV?$string_output_adapter@_W@__crt_stdio_output@@@2@@__crt_stdio_output@@CAPA_WXZ 10112e70 f i libucrtd:output.obj
 0001:00111e80       ?write_character@?$output_adapter_common@DV?$stream_output_adapter@D@__crt_stdio_output@@@__crt_stdio_output@@QBEXDQAH@Z 10112e80 f i libucrtd:output.obj
 0001:00111ed0       ?write_character@?$output_adapter_common@_WV?$stream_output_adapter@_W@__crt_stdio_output@@@__crt_stdio_output@@QBEX_WQAH@Z 10112ed0 f i libucrtd:output.obj
 0001:00111f20       ?write_character@?$string_output_adapter@D@__crt_stdio_output@@QBE_NDQAH@Z 10112f20 f i libucrtd:output.obj
 0001:00111fe0       ?write_character@?$string_output_adapter@_W@__crt_stdio_output@@QBE_N_WQAH@Z 10112fe0 f i libucrtd:output.obj
 0001:001120a0       ?write_character_without_count_update@?$stream_output_adapter@D@__crt_stdio_output@@QBE_ND@Z 101130a0 f i libucrtd:output.obj
 0001:00112120       ?write_character_without_count_update@?$stream_output_adapter@_W@__crt_stdio_output@@QBE_N_W@Z 10113120 f i libucrtd:output.obj
 0001:001121b0       ?write_stored_string_tchar@?$output_processor@DV?$stream_output_adapter@D@__crt_stdio_output@@V?$format_validation_base@DV?$stream_output_adapter@D@__crt_stdio_output@@@2@@__crt_stdio_output@@AAE_ND@Z 101131b0 f i libucrtd:output.obj
 0001:00112300       ?write_stored_string_tchar@?$output_processor@DV?$stream_output_adapter@D@__crt_stdio_output@@V?$positional_parameter_base@DV?$stream_output_adapter@D@__crt_stdio_output@@@2@@__crt_stdio_output@@AAE_ND@Z 10113300 f i libucrtd:output.obj
 0001:00112450       ?write_stored_string_tchar@?$output_processor@DV?$stream_output_adapter@D@__crt_stdio_output@@V?$standard_base@DV?$stream_output_adapter@D@__crt_stdio_output@@@2@@__crt_stdio_output@@AAE_ND@Z 10113450 f i libucrtd:output.obj
 0001:001125a0       ?write_stored_string_tchar@?$output_processor@DV?$string_output_adapter@D@__crt_stdio_output@@V?$format_validation_base@DV?$string_output_adapter@D@__crt_stdio_output@@@2@@__crt_stdio_output@@AAE_ND@Z 101135a0 f i libucrtd:output.obj
 0001:001126f0       ?write_stored_string_tchar@?$output_processor@DV?$string_output_adapter@D@__crt_stdio_output@@V?$positional_parameter_base@DV?$string_output_adapter@D@__crt_stdio_output@@@2@@__crt_stdio_output@@AAE_ND@Z 101136f0 f i libucrtd:output.obj
 0001:00112840       ?write_stored_string_tchar@?$output_processor@DV?$string_output_adapter@D@__crt_stdio_output@@V?$standard_base@DV?$string_output_adapter@D@__crt_stdio_output@@@2@@__crt_stdio_output@@AAE_ND@Z 10113840 f i libucrtd:output.obj
 0001:00112990       ?write_stored_string_tchar@?$output_processor@_WV?$stream_output_adapter@_W@__crt_stdio_output@@V?$format_validation_base@_WV?$stream_output_adapter@_W@__crt_stdio_output@@@2@@__crt_stdio_output@@AAE_N_W@Z 10113990 f i libucrtd:output.obj
 0001:00112ab0       ?write_stored_string_tchar@?$output_processor@_WV?$stream_output_adapter@_W@__crt_stdio_output@@V?$positional_parameter_base@_WV?$stream_output_adapter@_W@__crt_stdio_output@@@2@@__crt_stdio_output@@AAE_N_W@Z 10113ab0 f i libucrtd:output.obj
 0001:00112bd0       ?write_stored_string_tchar@?$output_processor@_WV?$stream_output_adapter@_W@__crt_stdio_output@@V?$standard_base@_WV?$stream_output_adapter@_W@__crt_stdio_output@@@2@@__crt_stdio_output@@AAE_N_W@Z 10113bd0 f i libucrtd:output.obj
 0001:00112cf0       ?write_stored_string_tchar@?$output_processor@_WV?$string_output_adapter@_W@__crt_stdio_output@@V?$format_validation_base@_WV?$string_output_adapter@_W@__crt_stdio_output@@@2@@__crt_stdio_output@@AAE_N_W@Z 10113cf0 f i libucrtd:output.obj
 0001:00112e10       ?write_stored_string_tchar@?$output_processor@_WV?$string_output_adapter@_W@__crt_stdio_output@@V?$positional_parameter_base@_WV?$string_output_adapter@_W@__crt_stdio_output@@@2@@__crt_stdio_output@@AAE_N_W@Z 10113e10 f i libucrtd:output.obj
 0001:00112f30       ?write_stored_string_tchar@?$output_processor@_WV?$string_output_adapter@_W@__crt_stdio_output@@V?$standard_base@_WV?$string_output_adapter@_W@__crt_stdio_output@@@2@@__crt_stdio_output@@AAE_N_W@Z 10113f30 f i libucrtd:output.obj
 0001:00113050       ?write_string@?$stream_output_adapter@D@__crt_stdio_output@@QBEXQBDHQAHAAV__crt_deferred_errno_cache@@@Z 10114050 f i libucrtd:output.obj
 0001:001130c0       ?write_string@?$stream_output_adapter@_W@__crt_stdio_output@@QBEXQB_WHQAHAAV__crt_deferred_errno_cache@@@Z 101140c0 f i libucrtd:output.obj
 0001:00113130       ?write_string@?$string_output_adapter@D@__crt_stdio_output@@QBEXQBDHQAHAAV__crt_deferred_errno_cache@@@Z 10114130 f i libucrtd:output.obj
 0001:00113270       ?write_string@?$string_output_adapter@_W@__crt_stdio_output@@QBEXQB_WHQAHAAV__crt_deferred_errno_cache@@@Z 10114270 f i libucrtd:output.obj
 0001:001133c0       ?write_string_impl@?$output_adapter_common@DV?$stream_output_adapter@D@__crt_stdio_output@@@__crt_stdio_output@@IBEXQBDHQAHAAV__crt_deferred_errno_cache@@@Z 101143c0 f i libucrtd:output.obj
 0001:00113480       ?write_string_impl@?$output_adapter_common@_WV?$stream_output_adapter@_W@__crt_stdio_output@@@__crt_stdio_output@@IBEXQB_WHQAHAAV__crt_deferred_errno_cache@@@Z 10114480 f i libucrtd:output.obj
 0001:00113550       ___acrt_isleadbyte_l_noupdate 10114550 f i libucrtd:output.obj
 0001:00113580       ___acrt_locale_changed     10114580 f i libucrtd:output.obj
 0001:001135b0       ___acrt_locale_get_ctype_array_value 101145b0 f i libucrtd:output.obj
 0001:001135e0       ___stdio_common_vfprintf   101145e0 f   libucrtd:output.obj
 0001:00113610       ___stdio_common_vfprintf_p 10114610 f   libucrtd:output.obj
 0001:00113640       ___stdio_common_vfprintf_s 10114640 f   libucrtd:output.obj
 0001:00113670       ___stdio_common_vfwprintf  10114670 f   libucrtd:output.obj
 0001:001136a0       ___stdio_common_vfwprintf_p 101146a0 f   libucrtd:output.obj
 0001:001136d0       ___stdio_common_vfwprintf_s 101146d0 f   libucrtd:output.obj
 0001:00113700       ___stdio_common_vsnprintf_s 10114700 f   libucrtd:output.obj
 0001:00113740       ___stdio_common_vsnwprintf_s 10114740 f   libucrtd:output.obj
 0001:00113780       ___stdio_common_vsprintf   10114780 f   libucrtd:output.obj
 0001:001137c0       ___stdio_common_vsprintf_p 101147c0 f   libucrtd:output.obj
 0001:00113800       ___stdio_common_vsprintf_s 10114800 f   libucrtd:output.obj
 0001:00113840       ___stdio_common_vswprintf  10114840 f   libucrtd:output.obj
 0001:00113880       ___stdio_common_vswprintf_p 10114880 f   libucrtd:output.obj
 0001:001138c0       ___stdio_common_vswprintf_s 101148c0 f   libucrtd:output.obj
 0001:00113900       __ctype_fast_check_internal 10114900 f i libucrtd:output.obj
 0001:00113920       __isdigit_fast_internal    10114920 f i libucrtd:output.obj
 0001:00113940       __tolower_fast_internal    10114940 f i libucrtd:output.obj
 0001:00113960       ??$?RE@__crt_internal_free_policy@@QBEXQBE@Z 10114960 f i libucrtd:input.obj
 0001:00113b70       ??$assemble_floating_point_ind@M@__crt_strtox@@YAXAAM@Z 10114b70 f i libucrtd:input.obj
 0001:00113bd0       ??$assemble_floating_point_ind@N@__crt_strtox@@YAXAAN@Z 10114bd0 f i libucrtd:input.obj
 0001:00113c40       ??$assemble_floating_point_infinity@M@__crt_strtox@@YAX_NAAM@Z 10114c40 f i libucrtd:input.obj
 0001:00113cc0       ??$assemble_floating_point_infinity@N@__crt_strtox@@YAX_NAAN@Z 10114cc0 f i libucrtd:input.obj
 0001:00113d70       ??$assemble_floating_point_qnan@M@__crt_strtox@@YAX_NAAM@Z 10114d70 f i libucrtd:input.obj
 0001:00113df0       ??$assemble_floating_point_qnan@N@__crt_strtox@@YAX_NAAN@Z 10114df0 f i libucrtd:input.obj
 0001:00113ea0       ??$assemble_floating_point_snan@M@__crt_strtox@@YAX_NAAM@Z 10114ea0 f i libucrtd:input.obj
 0001:00113f30       ??$assemble_floating_point_snan@N@__crt_strtox@@YAX_NAAN@Z 10114f30 f i libucrtd:input.obj
 0001:00113fe0       ??$assemble_floating_point_value_t@M@__crt_strtox@@YA?AW4SLD_STATUS@@_NH_KAAM@Z 10114fe0 f i libucrtd:input.obj
 0001:00114070       ??$assemble_floating_point_value_t@N@__crt_strtox@@YA?AW4SLD_STATUS@@_NH_KAAN@Z 10115070 f i libucrtd:input.obj
 0001:00114140       ??$assemble_floating_point_zero@M@__crt_strtox@@YAX_NAAM@Z 10115140 f i libucrtd:input.obj
 0001:001141c0       ??$assemble_floating_point_zero@N@__crt_strtox@@YAX_NAAN@Z 101151c0 f i libucrtd:input.obj
 0001:00114950       ??$convert_decimal_string_to_floating_type@M@__crt_strtox@@YA?AW4SLD_STATUS@@ABUfloating_point_string@0@AAM@Z 10115950 f i libucrtd:input.obj
 0001:00114980       ??$convert_decimal_string_to_floating_type@N@__crt_strtox@@YA?AW4SLD_STATUS@@ABUfloating_point_string@0@AAN@Z 10115980 f i libucrtd:input.obj
 0001:001149b0       ??$convert_hexadecimal_string_to_floating_type@M@__crt_strtox@@YA?AW4SLD_STATUS@@ABUfloating_point_string@0@AAM@Z 101159b0 f i libucrtd:input.obj
 0001:001149e0       ??$convert_hexadecimal_string_to_floating_type@N@__crt_strtox@@YA?AW4SLD_STATUS@@ABUfloating_point_string@0@AAN@Z 101159e0 f i libucrtd:input.obj
 0001:00114a10       ??$fill_buffer@D@?$input_processor@DV?$stream_input_adapter@D@__crt_stdio_input@@@__crt_stdio_input@@CAXQADII@Z 10115a10 f i libucrtd:input.obj
 0001:00114ab0       ??$fill_buffer@D@?$input_processor@DV?$string_input_adapter@D@__crt_stdio_input@@@__crt_stdio_input@@CAXQADII@Z 10115ab0 f i libucrtd:input.obj
 0001:00114b50       ??$fill_buffer@D@?$input_processor@_WV?$stream_input_adapter@_W@__crt_stdio_input@@@__crt_stdio_input@@CAXQADII@Z 10115b50 f i libucrtd:input.obj
 0001:00114bf0       ??$fill_buffer@D@?$input_processor@_WV?$string_input_adapter@_W@__crt_stdio_input@@@__crt_stdio_input@@CAXQADII@Z 10115bf0 f i libucrtd:input.obj
 0001:00114c90       ??$fill_buffer@_W@?$input_processor@DV?$stream_input_adapter@D@__crt_stdio_input@@@__crt_stdio_input@@CAXQA_WII@Z 10115c90 f i libucrtd:input.obj
 0001:00114d30       ??$fill_buffer@_W@?$input_processor@DV?$string_input_adapter@D@__crt_stdio_input@@@__crt_stdio_input@@CAXQA_WII@Z 10115d30 f i libucrtd:input.obj
 0001:00114dd0       ??$fill_buffer@_W@?$input_processor@_WV?$stream_input_adapter@_W@__crt_stdio_input@@@__crt_stdio_input@@CAXQA_WII@Z 10115dd0 f i libucrtd:input.obj
 0001:00114e70       ??$fill_buffer@_W@?$input_processor@_WV?$string_input_adapter@_W@__crt_stdio_input@@@__crt_stdio_input@@CAXQA_WII@Z 10115e70 f i libucrtd:input.obj
 0001:00114f10       ??$getc_nolock@PAU_iobuf@@@?$__crt_char_traits@D@@SAH$$QAPAU_iobuf@@@Z 10115f10 f i libucrtd:input.obj
 0001:00114f30       ??$getc_nolock@PAU_iobuf@@@?$__crt_char_traits@_W@@SAG$$QAPAU_iobuf@@@Z 10115f30 f i libucrtd:input.obj
 0001:00114f50       ??$is_overflow_condition@_K@__crt_strtox@@YA_NI_K@Z 10115f50 f i libucrtd:input.obj
 0001:00115000       ??$istspace@ABE@?$__crt_char_traits@D@@SAHABE@Z 10116000 f i libucrtd:input.obj
 0001:00115020       ??$istspace@AB_W@?$__crt_char_traits@_W@@SAHAB_W@Z 10116020 f i libucrtd:input.obj
 0001:00115040       ??$make_input_adapter_character_source@V?$stream_input_adapter@D@__crt_stdio_input@@@__crt_strtox@@YA?AV?$input_adapter_character_source@V?$stream_input_adapter@D@__crt_stdio_input@@@0@QAV?$stream_input_adapter@D@__crt_stdio_input@@_KQA_N@Z 10116040 f i libucrtd:input.obj
 0001:00115070       ??$make_input_adapter_character_source@V?$stream_input_adapter@_W@__crt_stdio_input@@@__crt_strtox@@YA?AV?$input_adapter_character_source@V?$stream_input_adapter@_W@__crt_stdio_input@@@0@QAV?$stream_input_adapter@_W@__crt_stdio_input@@_KQA_N@Z 10116070 f i libucrtd:input.obj
 0001:001150a0       ??$make_input_adapter_character_source@V?$string_input_adapter@D@__crt_stdio_input@@@__crt_strtox@@YA?AV?$input_adapter_character_source@V?$string_input_adapter@D@__crt_stdio_input@@@0@QAV?$string_input_adapter@D@__crt_stdio_input@@_KQA_N@Z 101160a0 f i libucrtd:input.obj
 0001:001150d0       ??$make_input_adapter_character_source@V?$string_input_adapter@_W@__crt_stdio_input@@@__crt_strtox@@YA?AV?$input_adapter_character_source@V?$string_input_adapter@_W@__crt_stdio_input@@@0@QAV?$string_input_adapter@_W@__crt_stdio_input@@_KQA_N@Z 101160d0 f i libucrtd:input.obj
 0001:00115100       ??$parse_floating_point@V?$input_adapter_character_source@V?$stream_input_adapter@D@__crt_stdio_input@@@__crt_strtox@@M@__crt_strtox@@YA?AW4SLD_STATUS@@QAU__crt_locale_pointers@@V?$input_adapter_character_source@V?$stream_input_adapter@D@__crt_stdio_input@@@0@QAM@Z 10116100 f i libucrtd:input.obj
 0001:00115330       ??$parse_floating_point@V?$input_adapter_character_source@V?$stream_input_adapter@D@__crt_stdio_input@@@__crt_strtox@@N@__crt_strtox@@YA?AW4SLD_STATUS@@QAU__crt_locale_pointers@@V?$input_adapter_character_source@V?$stream_input_adapter@D@__crt_stdio_input@@@0@QAN@Z 10116330 f i libucrtd:input.obj
 0001:00115560       ??$parse_floating_point@V?$input_adapter_character_source@V?$stream_input_adapter@_W@__crt_stdio_input@@@__crt_strtox@@M@__crt_strtox@@YA?AW4SLD_STATUS@@QAU__crt_locale_pointers@@V?$input_adapter_character_source@V?$stream_input_adapter@_W@__crt_stdio_input@@@0@QAM@Z 10116560 f i libucrtd:input.obj
 0001:00115790       ??$parse_floating_point@V?$input_adapter_character_source@V?$stream_input_adapter@_W@__crt_stdio_input@@@__crt_strtox@@N@__crt_strtox@@YA?AW4SLD_STATUS@@QAU__crt_locale_pointers@@V?$input_adapter_character_source@V?$stream_input_adapter@_W@__crt_stdio_input@@@0@QAN@Z 10116790 f i libucrtd:input.obj
 0001:001159c0       ??$parse_floating_point@V?$input_adapter_character_source@V?$string_input_adapter@D@__crt_stdio_input@@@__crt_strtox@@M@__crt_strtox@@YA?AW4SLD_STATUS@@QAU__crt_locale_pointers@@V?$input_adapter_character_source@V?$string_input_adapter@D@__crt_stdio_input@@@0@QAM@Z 101169c0 f i libucrtd:input.obj
 0001:00115bf0       ??$parse_floating_point@V?$input_adapter_character_source@V?$string_input_adapter@D@__crt_stdio_input@@@__crt_strtox@@N@__crt_strtox@@YA?AW4SLD_STATUS@@QAU__crt_locale_pointers@@V?$input_adapter_character_source@V?$string_input_adapter@D@__crt_stdio_input@@@0@QAN@Z 10116bf0 f i libucrtd:input.obj
 0001:00115e20       ??$parse_floating_point@V?$input_adapter_character_source@V?$string_input_adapter@_W@__crt_stdio_input@@@__crt_strtox@@M@__crt_strtox@@YA?AW4SLD_STATUS@@QAU__crt_locale_pointers@@V?$input_adapter_character_source@V?$string_input_adapter@_W@__crt_stdio_input@@@0@QAM@Z 10116e20 f i libucrtd:input.obj
 0001:00116050       ??$parse_floating_point@V?$input_adapter_character_source@V?$string_input_adapter@_W@__crt_stdio_input@@@__crt_strtox@@N@__crt_strtox@@YA?AW4SLD_STATUS@@QAU__crt_locale_pointers@@V?$input_adapter_character_source@V?$string_input_adapter@_W@__crt_stdio_input@@@0@QAN@Z 10117050 f i libucrtd:input.obj
 0001:00116280       ??$parse_floating_point_from_source@V?$input_adapter_character_source@V?$stream_input_adapter@D@__crt_stdio_input@@@__crt_strtox@@@__crt_strtox@@YA?AW4floating_point_parse_result@0@QAU__crt_locale_pointers@@AAV?$input_adapter_character_source@V?$stream_input_adapter@D@__crt_stdio_input@@@0@AAUfloating_point_string@0@@Z 10117280 f i libucrtd:input.obj
 0001:001169c0       ??$parse_floating_point_from_source@V?$input_adapter_character_source@V?$stream_input_adapter@_W@__crt_stdio_input@@@__crt_strtox@@@__crt_strtox@@YA?AW4floating_point_parse_result@0@QAU__crt_locale_pointers@@AAV?$input_adapter_character_source@V?$stream_input_adapter@_W@__crt_stdio_input@@@0@AAUfloating_point_string@0@@Z 101179c0 f i libucrtd:input.obj
 0001:00117110       ??$parse_floating_point_from_source@V?$input_adapter_character_source@V?$string_input_adapter@D@__crt_stdio_input@@@__crt_strtox@@@__crt_strtox@@YA?AW4floating_point_parse_result@0@QAU__crt_locale_pointers@@AAV?$input_adapter_character_source@V?$string_input_adapter@D@__crt_stdio_input@@@0@AAUfloating_point_string@0@@Z 10118110 f i libucrtd:input.obj
 0001:00117850       ??$parse_floating_point_from_source@V?$input_adapter_character_source@V?$string_input_adapter@_W@__crt_stdio_input@@@__crt_strtox@@@__crt_strtox@@YA?AW4floating_point_parse_result@0@QAU__crt_locale_pointers@@AAV?$input_adapter_character_source@V?$string_input_adapter@_W@__crt_stdio_input@@@0@AAUfloating_point_string@0@@Z 10118850 f i libucrtd:input.obj
 0001:00117fa0       ??$parse_floating_point_possible_infinity@DV?$input_adapter_character_source@V?$stream_input_adapter@D@__crt_stdio_input@@@__crt_strtox@@_K@__crt_strtox@@YA?AW4floating_point_parse_result@0@AADAAV?$input_adapter_character_source@V?$stream_input_adapter@D@__crt_stdio_input@@@0@_K@Z 10118fa0 f i libucrtd:input.obj
 0001:001180b0       ??$parse_floating_point_possible_infinity@DV?$input_adapter_character_source@V?$string_input_adapter@D@__crt_stdio_input@@@__crt_strtox@@_K@__crt_strtox@@YA?AW4floating_point_parse_result@0@AADAAV?$input_adapter_character_source@V?$string_input_adapter@D@__crt_stdio_input@@@0@_K@Z 101190b0 f i libucrtd:input.obj
 0001:001181c0       ??$parse_floating_point_possible_infinity@_WV?$input_adapter_character_source@V?$stream_input_adapter@_W@__crt_stdio_input@@@__crt_strtox@@_K@__crt_strtox@@YA?AW4floating_point_parse_result@0@AA_WAAV?$input_adapter_character_source@V?$stream_input_adapter@_W@__crt_stdio_input@@@0@_K@Z 101191c0 f i libucrtd:input.obj
 0001:001182e0       ??$parse_floating_point_possible_infinity@_WV?$input_adapter_character_source@V?$string_input_adapter@_W@__crt_stdio_input@@@__crt_strtox@@_K@__crt_strtox@@YA?AW4floating_point_parse_result@0@AA_WAAV?$input_adapter_character_source@V?$string_input_adapter@_W@__crt_stdio_input@@@0@_K@Z 101192e0 f i libucrtd:input.obj
 0001:00118400       ??$parse_floating_point_possible_nan@DV?$input_adapter_character_source@V?$stream_input_adapter@D@__crt_stdio_input@@@__crt_strtox@@_K@__crt_strtox@@YA?AW4floating_point_parse_result@0@AADAAV?$input_adapter_character_source@V?$stream_input_adapter@D@__crt_stdio_input@@@0@_K@Z 10119400 f i libucrtd:input.obj
 0001:00118620       ??$parse_floating_point_possible_nan@DV?$input_adapter_character_source@V?$string_input_adapter@D@__crt_stdio_input@@@__crt_strtox@@_K@__crt_strtox@@YA?AW4floating_point_parse_result@0@AADAAV?$input_adapter_character_source@V?$string_input_adapter@D@__crt_stdio_input@@@0@_K@Z 10119620 f i libucrtd:input.obj
 0001:00118840       ??$parse_floating_point_possible_nan@_WV?$input_adapter_character_source@V?$stream_input_adapter@_W@__crt_stdio_input@@@__crt_strtox@@_K@__crt_strtox@@YA?AW4floating_point_parse_result@0@AA_WAAV?$input_adapter_character_source@V?$stream_input_adapter@_W@__crt_stdio_input@@@0@_K@Z 10119840 f i libucrtd:input.obj
 0001:00118a60       ??$parse_floating_point_possible_nan@_WV?$input_adapter_character_source@V?$string_input_adapter@_W@__crt_stdio_input@@@__crt_strtox@@_K@__crt_strtox@@YA?AW4floating_point_parse_result@0@AA_WAAV?$input_adapter_character_source@V?$string_input_adapter@_W@__crt_stdio_input@@@0@_K@Z 10119a60 f i libucrtd:input.obj
 0001:00118c80       ??$parse_floating_point_possible_nan_is_ind@DV?$input_adapter_character_source@V?$stream_input_adapter@D@__crt_stdio_input@@@__crt_strtox@@@__crt_strtox@@YA_NAADAAV?$input_adapter_character_source@V?$stream_input_adapter@D@__crt_stdio_input@@@0@@Z 10119c80 f i libucrtd:input.obj
 0001:00118cb0       ??$parse_floating_point_possible_nan_is_ind@DV?$input_adapter_character_source@V?$string_input_adapter@D@__crt_stdio_input@@@__crt_strtox@@@__crt_strtox@@YA_NAADAAV?$input_adapter_character_source@V?$string_input_adapter@D@__crt_stdio_input@@@0@@Z 10119cb0 f i libucrtd:input.obj
 0001:00118ce0       ??$parse_floating_point_possible_nan_is_ind@_WV?$input_adapter_character_source@V?$stream_input_adapter@_W@__crt_stdio_input@@@__crt_strtox@@@__crt_strtox@@YA_NAA_WAAV?$input_adapter_character_source@V?$stream_input_adapter@_W@__crt_stdio_input@@@0@@Z 10119ce0 f i libucrtd:input.obj
 0001:00118d10       ??$parse_floating_point_possible_nan_is_ind@_WV?$input_adapter_character_source@V?$string_input_adapter@_W@__crt_stdio_input@@@__crt_strtox@@@__crt_strtox@@YA_NAA_WAAV?$input_adapter_character_source@V?$string_input_adapter@_W@__crt_stdio_input@@@0@@Z 10119d10 f i libucrtd:input.obj
 0001:00118d40       ??$parse_floating_point_possible_nan_is_snan@DV?$input_adapter_character_source@V?$stream_input_adapter@D@__crt_stdio_input@@@__crt_strtox@@@__crt_strtox@@YA_NAADAAV?$input_adapter_character_source@V?$stream_input_adapter@D@__crt_stdio_input@@@0@@Z 10119d40 f i libucrtd:input.obj
 0001:00118d70       ??$parse_floating_point_possible_nan_is_snan@DV?$input_adapter_character_source@V?$string_input_adapter@D@__crt_stdio_input@@@__crt_strtox@@@__crt_strtox@@YA_NAADAAV?$input_adapter_character_source@V?$string_input_adapter@D@__crt_stdio_input@@@0@@Z 10119d70 f i libucrtd:input.obj
 0001:00118da0       ??$parse_floating_point_possible_nan_is_snan@_WV?$input_adapter_character_source@V?$stream_input_adapter@_W@__crt_stdio_input@@@__crt_strtox@@@__crt_strtox@@YA_NAA_WAAV?$input_adapter_character_source@V?$stream_input_adapter@_W@__crt_stdio_input@@@0@@Z 10119da0 f i libucrtd:input.obj
 0001:00118dd0       ??$parse_floating_point_possible_nan_is_snan@_WV?$input_adapter_character_source@V?$string_input_adapter@_W@__crt_stdio_input@@@__crt_strtox@@@__crt_strtox@@YA_NAA_WAAV?$input_adapter_character_source@V?$string_input_adapter@_W@__crt_stdio_input@@@0@@Z 10119dd0 f i libucrtd:input.obj
 0001:00118e00       ??$parse_floating_point_write_result@M@__crt_strtox@@YA?AW4SLD_STATUS@@W4floating_point_parse_result@0@ABUfloating_point_string@0@QAM@Z 10119e00 f i libucrtd:input.obj
 0001:00118ff0       ??$parse_floating_point_write_result@N@__crt_strtox@@YA?AW4SLD_STATUS@@W4floating_point_parse_result@0@ABUfloating_point_string@0@QAN@Z 10119ff0 f i libucrtd:input.obj
 0001:001191e0       ??$parse_integer@_KV?$input_adapter_character_source@V?$stream_input_adapter@D@__crt_stdio_input@@@__crt_strtox@@@__crt_strtox@@YA_KQAU__crt_locale_pointers@@V?$input_adapter_character_source@V?$stream_input_adapter@D@__crt_stdio_input@@@0@H_N@Z 1011a1e0 f i libucrtd:input.obj
 0001:00119720       ??$parse_integer@_KV?$input_adapter_character_source@V?$stream_input_adapter@_W@__crt_stdio_input@@@__crt_strtox@@@__crt_strtox@@YA_KQAU__crt_locale_pointers@@V?$input_adapter_character_source@V?$stream_input_adapter@_W@__crt_stdio_input@@@0@H_N@Z 1011a720 f i libucrtd:input.obj
 0001:00119c70       ??$parse_integer@_KV?$input_adapter_character_source@V?$string_input_adapter@D@__crt_stdio_input@@@__crt_strtox@@@__crt_strtox@@YA_KQAU__crt_locale_pointers@@V?$input_adapter_character_source@V?$string_input_adapter@D@__crt_stdio_input@@@0@H_N@Z 1011ac70 f i libucrtd:input.obj
 0001:0011a1b0       ??$parse_integer@_KV?$input_adapter_character_source@V?$string_input_adapter@_W@__crt_stdio_input@@@__crt_strtox@@@__crt_strtox@@YA_KQAU__crt_locale_pointers@@V?$input_adapter_character_source@V?$string_input_adapter@_W@__crt_stdio_input@@@0@H_N@Z 1011b1b0 f i libucrtd:input.obj
 0001:0011a700       ??$parse_next_characters_from_source@DV?$input_adapter_character_source@V?$stream_input_adapter@D@__crt_stdio_input@@@__crt_strtox@@@__crt_strtox@@YA_NQBD0IAADAAV?$input_adapter_character_source@V?$stream_input_adapter@D@__crt_stdio_input@@@0@@Z 1011b700 f i libucrtd:input.obj
 0001:0011a780       ??$parse_next_characters_from_source@DV?$input_adapter_character_source@V?$string_input_adapter@D@__crt_stdio_input@@@__crt_strtox@@@__crt_strtox@@YA_NQBD0IAADAAV?$input_adapter_character_source@V?$string_input_adapter@D@__crt_stdio_input@@@0@@Z 1011b780 f i libucrtd:input.obj
 0001:0011a800       ??$parse_next_characters_from_source@_WV?$input_adapter_character_source@V?$stream_input_adapter@_W@__crt_stdio_input@@@__crt_strtox@@@__crt_strtox@@YA_NQB_W0IAA_WAAV?$input_adapter_character_source@V?$stream_input_adapter@_W@__crt_stdio_input@@@0@@Z 1011b800 f i libucrtd:input.obj
 0001:0011a880       ??$parse_next_characters_from_source@_WV?$input_adapter_character_source@V?$string_input_adapter@_W@__crt_stdio_input@@@__crt_strtox@@@__crt_strtox@@YA_NQB_W0IAA_WAAV?$input_adapter_character_source@V?$string_input_adapter@_W@__crt_stdio_input@@@0@@Z 1011b880 f i libucrtd:input.obj
 0001:0011a900       ??$process_floating_point_specifier_t@M@?$input_processor@DV?$stream_input_adapter@D@__crt_stdio_input@@@__crt_stdio_input@@AAE_NXZ 1011b900 f i libucrtd:input.obj
 0001:0011a9b0       ??$process_floating_point_specifier_t@M@?$input_processor@DV?$string_input_adapter@D@__crt_stdio_input@@@__crt_stdio_input@@AAE_NXZ 1011b9b0 f i libucrtd:input.obj
 0001:0011aa60       ??$process_floating_point_specifier_t@M@?$input_processor@_WV?$stream_input_adapter@_W@__crt_stdio_input@@@__crt_stdio_input@@AAE_NXZ 1011ba60 f i libucrtd:input.obj
 0001:0011ab10       ??$process_floating_point_specifier_t@M@?$input_processor@_WV?$string_input_adapter@_W@__crt_stdio_input@@@__crt_stdio_input@@AAE_NXZ 1011bb10 f i libucrtd:input.obj
 0001:0011abc0       ??$process_floating_point_specifier_t@N@?$input_processor@DV?$stream_input_adapter@D@__crt_stdio_input@@@__crt_stdio_input@@AAE_NXZ 1011bbc0 f i libucrtd:input.obj
 0001:0011ac70       ??$process_floating_point_specifier_t@N@?$input_processor@DV?$string_input_adapter@D@__crt_stdio_input@@@__crt_stdio_input@@AAE_NXZ 1011bc70 f i libucrtd:input.obj
 0001:0011ad20       ??$process_floating_point_specifier_t@N@?$input_processor@_WV?$stream_input_adapter@_W@__crt_stdio_input@@@__crt_stdio_input@@AAE_NXZ 1011bd20 f i libucrtd:input.obj
 0001:0011add0       ??$process_floating_point_specifier_t@N@?$input_processor@_WV?$string_input_adapter@_W@__crt_stdio_input@@@__crt_stdio_input@@AAE_NXZ 1011bdd0 f i libucrtd:input.obj
 0001:0011ae80       ??$process_string_specifier_tchar@D@?$input_processor@DV?$stream_input_adapter@D@__crt_stdio_input@@@__crt_stdio_input@@AAE_NW4conversion_mode@1@D@Z 1011be80 f i libucrtd:input.obj
 0001:0011b220       ??$process_string_specifier_tchar@D@?$input_processor@DV?$string_input_adapter@D@__crt_stdio_input@@@__crt_stdio_input@@AAE_NW4conversion_mode@1@D@Z 1011c220 f i libucrtd:input.obj
 0001:0011b5c0       ??$process_string_specifier_tchar@D@?$input_processor@_WV?$stream_input_adapter@_W@__crt_stdio_input@@@__crt_stdio_input@@AAE_NW4conversion_mode@1@D@Z 1011c5c0 f i libucrtd:input.obj
 0001:0011b960       ??$process_string_specifier_tchar@D@?$input_processor@_WV?$string_input_adapter@_W@__crt_stdio_input@@@__crt_stdio_input@@AAE_NW4conversion_mode@1@D@Z 1011c960 f i libucrtd:input.obj
 0001:0011bd00       ??$process_string_specifier_tchar@_W@?$input_processor@DV?$stream_input_adapter@D@__crt_stdio_input@@@__crt_stdio_input@@AAE_NW4conversion_mode@1@_W@Z 1011cd00 f i libucrtd:input.obj
 0001:0011c0a0       ??$process_string_specifier_tchar@_W@?$input_processor@DV?$string_input_adapter@D@__crt_stdio_input@@@__crt_stdio_input@@AAE_NW4conversion_mode@1@_W@Z 1011d0a0 f i libucrtd:input.obj
 0001:0011c440       ??$process_string_specifier_tchar@_W@?$input_processor@_WV?$stream_input_adapter@_W@__crt_stdio_input@@@__crt_stdio_input@@AAE_NW4conversion_mode@1@_W@Z 1011d440 f i libucrtd:input.obj
 0001:0011c7f0       ??$process_string_specifier_tchar@_W@?$input_processor@_WV?$string_input_adapter@_W@__crt_stdio_input@@@__crt_stdio_input@@AAE_NW4conversion_mode@1@_W@Z 1011d7f0 f i libucrtd:input.obj
 0001:0011cba0       ??$reset_buffer@D@?$input_processor@DV?$stream_input_adapter@D@__crt_stdio_input@@@__crt_stdio_input@@CAXQADI@Z 1011dba0 f i libucrtd:input.obj
 0001:0011cc30       ??$reset_buffer@D@?$input_processor@DV?$string_input_adapter@D@__crt_stdio_input@@@__crt_stdio_input@@CAXQADI@Z 1011dc30 f i libucrtd:input.obj
 0001:0011ccc0       ??$reset_buffer@D@?$input_processor@_WV?$stream_input_adapter@_W@__crt_stdio_input@@@__crt_stdio_input@@CAXQADI@Z 1011dcc0 f i libucrtd:input.obj
 0001:0011cd50       ??$reset_buffer@D@?$input_processor@_WV?$string_input_adapter@_W@__crt_stdio_input@@@__crt_stdio_input@@CAXQADI@Z 1011dd50 f i libucrtd:input.obj
 0001:0011cde0       ??$reset_buffer@_W@?$input_processor@DV?$stream_input_adapter@D@__crt_stdio_input@@@__crt_stdio_input@@CAXQA_WI@Z 1011dde0 f i libucrtd:input.obj
 0001:0011ce70       ??$reset_buffer@_W@?$input_processor@DV?$string_input_adapter@D@__crt_stdio_input@@@__crt_stdio_input@@CAXQA_WI@Z 1011de70 f i libucrtd:input.obj
 0001:0011cf00       ??$reset_buffer@_W@?$input_processor@_WV?$stream_input_adapter@_W@__crt_stdio_input@@@__crt_stdio_input@@CAXQA_WI@Z 1011df00 f i libucrtd:input.obj
 0001:0011cf90       ??$reset_buffer@_W@?$input_processor@_WV?$string_input_adapter@_W@__crt_stdio_input@@@__crt_stdio_input@@CAXQA_WI@Z 1011df90 f i libucrtd:input.obj
 0001:0011d020       ??$skip_whitespace@Vstream_input_adapter@__crt_stdio_input@@D@__crt_stdio_input@@YAHAAV?$stream_input_adapter@D@0@QAU__crt_locale_pointers@@@Z 1011e020 f i libucrtd:input.obj
 0001:0011d070       ??$skip_whitespace@Vstream_input_adapter@__crt_stdio_input@@_W@__crt_stdio_input@@YAGAAV?$stream_input_adapter@_W@0@QAU__crt_locale_pointers@@@Z 1011e070 f i libucrtd:input.obj
 0001:0011d0c0       ??$skip_whitespace@Vstring_input_adapter@__crt_stdio_input@@D@__crt_stdio_input@@YAHAAV?$string_input_adapter@D@0@QAU__crt_locale_pointers@@@Z 1011e0c0 f i libucrtd:input.obj
 0001:0011d110       ??$skip_whitespace@Vstring_input_adapter@__crt_stdio_input@@_W@__crt_stdio_input@@YAGAAV?$string_input_adapter@_W@0@QAU__crt_locale_pointers@@@Z 1011e110 f i libucrtd:input.obj
 0001:0011d160       ??$tcsnlen@ABQBDABI@?$__crt_char_traits@D@@SAIABQBDABI@Z 1011e160 f i libucrtd:input.obj
 0001:0011d190       ??$tcsnlen@ABQB_WABI@?$__crt_char_traits@_W@@SAIABQB_WABI@Z 1011e190 f i libucrtd:input.obj
 0001:0011d1c0       ??$tcstoull@AAPB_WPAPA_WH@?$__crt_char_traits@_W@@SA_KAAPB_W$$QAPAPA_W$$QAH@Z 1011e1c0 f i libucrtd:input.obj
 0001:0011d1f0       ??$tcstoull@PBDPAPADH@?$__crt_char_traits@D@@SA_K$$QAPBD$$QAPAPAD$$QAH@Z 1011e1f0 f i libucrtd:input.obj
 0001:0011d220       ??$ungettc_nolock@ABGPAU_iobuf@@@?$__crt_char_traits@_W@@SAGABG$$QAPAU_iobuf@@@Z 1011e220 f i libucrtd:input.obj
 0001:0011d250       ??$ungettc_nolock@ABHPAU_iobuf@@@?$__crt_char_traits@D@@SAHABH$$QAPAU_iobuf@@@Z 1011e250 f i libucrtd:input.obj
 0001:0011d280       ??$write_floating_point@M@?$input_processor@DV?$stream_input_adapter@D@__crt_stdio_input@@@__crt_stdio_input@@AAE_NABM@Z 1011e280 f i libucrtd:input.obj
 0001:0011d3b0       ??$write_floating_point@M@?$input_processor@DV?$string_input_adapter@D@__crt_stdio_input@@@__crt_stdio_input@@AAE_NABM@Z 1011e3b0 f i libucrtd:input.obj
 0001:0011d4e0       ??$write_floating_point@M@?$input_processor@_WV?$stream_input_adapter@_W@__crt_stdio_input@@@__crt_stdio_input@@AAE_NABM@Z 1011e4e0 f i libucrtd:input.obj
 0001:0011d610       ??$write_floating_point@M@?$input_processor@_WV?$string_input_adapter@_W@__crt_stdio_input@@@__crt_stdio_input@@AAE_NABM@Z 1011e610 f i libucrtd:input.obj
 0001:0011d740       ??$write_floating_point@N@?$input_processor@DV?$stream_input_adapter@D@__crt_stdio_input@@@__crt_stdio_input@@AAE_NABN@Z 1011e740 f i libucrtd:input.obj
 0001:0011d870       ??$write_floating_point@N@?$input_processor@DV?$string_input_adapter@D@__crt_stdio_input@@@__crt_stdio_input@@AAE_NABN@Z 1011e870 f i libucrtd:input.obj
 0001:0011d9a0       ??$write_floating_point@N@?$input_processor@_WV?$stream_input_adapter@_W@__crt_stdio_input@@@__crt_stdio_input@@AAE_NABN@Z 1011e9a0 f i libucrtd:input.obj
 0001:0011dad0       ??$write_floating_point@N@?$input_processor@_WV?$string_input_adapter@_W@__crt_stdio_input@@@__crt_stdio_input@@AAE_NABN@Z 1011ead0 f i libucrtd:input.obj
 0001:0011e060       ??0?$__crt_unique_heap_ptr@EU__crt_internal_free_policy@@@@QAE@QAE@Z 1011f060 f i libucrtd:input.obj
 0001:0011e080       ??0?$format_string_parser@D@__crt_stdio_input@@QAE@_KQBE@Z 1011f080 f i libucrtd:input.obj
 0001:0011e0e0       ??0?$format_string_parser@_W@__crt_stdio_input@@QAE@_KQB_W@Z 1011f0e0 f i libucrtd:input.obj
 0001:0011e140       ??0?$input_adapter_character_source@V?$stream_input_adapter@D@__crt_stdio_input@@@__crt_strtox@@QAE@QAV?$stream_input_adapter@D@__crt_stdio_input@@_KQA_N@Z 1011f140 f i libucrtd:input.obj
 0001:0011e1b0       ??0?$input_adapter_character_source@V?$stream_input_adapter@_W@__crt_stdio_input@@@__crt_strtox@@QAE@QAV?$stream_input_adapter@_W@__crt_stdio_input@@_KQA_N@Z 1011f1b0 f i libucrtd:input.obj
 0001:0011e220       ??0?$input_adapter_character_source@V?$string_input_adapter@D@__crt_stdio_input@@@__crt_strtox@@QAE@QAV?$string_input_adapter@D@__crt_stdio_input@@_KQA_N@Z 1011f220 f i libucrtd:input.obj
 0001:0011e290       ??0?$input_adapter_character_source@V?$string_input_adapter@_W@__crt_stdio_input@@@__crt_strtox@@QAE@QAV?$string_input_adapter@_W@__crt_stdio_input@@_KQA_N@Z 1011f290 f i libucrtd:input.obj
 0001:0011e300       ??0?$input_processor@DV?$stream_input_adapter@D@__crt_stdio_input@@@__crt_stdio_input@@QAE@ABV?$stream_input_adapter@D@1@_KQBDQAU__crt_locale_pointers@@QAD@Z 1011f300 f i libucrtd:input.obj
 0001:0011e380       ??0?$input_processor@DV?$string_input_adapter@D@__crt_stdio_input@@@__crt_stdio_input@@QAE@ABV?$string_input_adapter@D@1@_KQBDQAU__crt_locale_pointers@@QAD@Z 1011f380 f i libucrtd:input.obj
 0001:0011e410       ??0?$input_processor@_WV?$stream_input_adapter@_W@__crt_stdio_input@@@__crt_stdio_input@@QAE@ABV?$stream_input_adapter@_W@1@_KQB_WQAU__crt_locale_pointers@@QAD@Z 1011f410 f i libucrtd:input.obj
 0001:0011e490       ??0?$input_processor@_WV?$string_input_adapter@_W@__crt_stdio_input@@@__crt_stdio_input@@QAE@ABV?$string_input_adapter@_W@1@_KQB_WQAU__crt_locale_pointers@@QAD@Z 1011f490 f i libucrtd:input.obj
 0001:0011e520       ??0?$scanset_buffer@E@__crt_stdio_input@@QAE@XZ 1011f520 f i libucrtd:input.obj
 0001:0011e540       ??0?$scanset_buffer@_W@__crt_stdio_input@@QAE@XZ 1011f540 f i libucrtd:input.obj
 0001:0011e560       ??0?$scanset_storage@$00@__crt_stdio_input@@QAE@XZ 1011f560 f i libucrtd:input.obj
 0001:0011e5a0       ??0?$scanset_storage@$01@__crt_stdio_input@@QAE@XZ 1011f5a0 f i libucrtd:input.obj
 0001:0011e5c0       ??0?$stream_input_adapter@D@__crt_stdio_input@@QAE@QAU_iobuf@@@Z 1011f5c0 f i libucrtd:input.obj
 0001:0011e600       ??0?$stream_input_adapter@_W@__crt_stdio_input@@QAE@QAU_iobuf@@@Z 1011f600 f i libucrtd:input.obj
 0001:0011e640       ??0?$string_input_adapter@D@__crt_stdio_input@@QAE@QBDI@Z 1011f640 f i libucrtd:input.obj
 0001:0011e680       ??0?$string_input_adapter@_W@__crt_stdio_input@@QAE@QB_WI@Z 1011f680 f i libucrtd:input.obj
 0001:0011e6c0       ??0big_integer@__crt_strtox@@QAE@ABU01@@Z 1011f6c0 f i libucrtd:input.obj
 0001:0011e710       ??0big_integer@__crt_strtox@@QAE@XZ 1011f710 f i libucrtd:input.obj
 0001:0011e750       ??0floating_point_value@__crt_strtox@@QAE@QAM@Z 1011f750 f i libucrtd:input.obj
 0001:0011e7b0       ??0floating_point_value@__crt_strtox@@QAE@QAN@Z 1011f7b0 f i libucrtd:input.obj
 0001:0011e810       ??1?$__crt_unique_heap_ptr@EU__crt_internal_free_policy@@@@QAE@XZ 1011f810 f i libucrtd:input.obj
 0001:0011e830       ??1?$format_string_parser@_W@__crt_stdio_input@@QAE@XZ 1011f830 f i libucrtd:input.obj
 0001:0011e850       ??1?$input_adapter_character_source@V?$stream_input_adapter@D@__crt_stdio_input@@@__crt_strtox@@QAE@XZ 1011f850 f i libucrtd:input.obj
 0001:0011e8a0       ??1?$input_adapter_character_source@V?$stream_input_adapter@_W@__crt_stdio_input@@@__crt_strtox@@QAE@XZ 1011f8a0 f i libucrtd:input.obj
 0001:0011e8f0       ??1?$input_adapter_character_source@V?$string_input_adapter@D@__crt_stdio_input@@@__crt_strtox@@QAE@XZ 1011f8f0 f i libucrtd:input.obj
 0001:0011e940       ??1?$input_adapter_character_source@V?$string_input_adapter@_W@__crt_stdio_input@@@__crt_strtox@@QAE@XZ 1011f940 f i libucrtd:input.obj
 0001:0011e990       ??1?$input_processor@_WV?$stream_input_adapter@_W@__crt_stdio_input@@@__crt_stdio_input@@QAE@XZ 1011f990 f i libucrtd:input.obj
 0001:0011e9b0       ??1?$input_processor@_WV?$string_input_adapter@_W@__crt_stdio_input@@@__crt_stdio_input@@QAE@XZ 1011f9b0 f i libucrtd:input.obj
 0001:0011e9d0       ??1?$scanset_buffer@_W@__crt_stdio_input@@QAE@XZ 1011f9d0 f i libucrtd:input.obj
 0001:0011e9f0       ??1?$scanset_storage@$01@__crt_stdio_input@@QAE@XZ 1011f9f0 f i libucrtd:input.obj
 0001:0011ea10       ??4?$__crt_unique_heap_ptr@EU__crt_internal_free_policy@@@@QAEAAV0@$$QAV0@@Z 1011fa10 f i libucrtd:input.obj
 0001:0011ea50       ??4big_integer@__crt_strtox@@QAEAAU01@ABU01@@Z 1011fa50 f i libucrtd:input.obj
 0001:0011eaa0       ??B?$__crt_unique_heap_ptr@EU__crt_internal_free_policy@@@@QBE_NXZ 1011faa0 f i libucrtd:input.obj
 0001:0011eac0       ??M__crt_strtox@@YA_NABUbig_integer@0@0@Z 1011fac0 f i libucrtd:input.obj
 0001:0011f210       ?accumulate_decimal_digits_into_big_integer@__crt_strtox@@YAXQBE0AAUbig_integer@1@@Z 10120210 f i libucrtd:input.obj
 0001:0011f2f0       ?add@__crt_strtox@@YA_NAAUbig_integer@1@I@Z 101202f0 f i libucrtd:input.obj
 0001:0011f430       ?add_carry@__crt_strtox@@YAIAAIII@Z 10120430 f i libucrtd:input.obj
 0001:0011f480       ?add_multiply_carry@__crt_strtox@@YAIAAIIII@Z 10120480 f i libucrtd:input.obj
 0001:0011f4d0       ?advance@?$format_string_parser@D@__crt_stdio_input@@QAE_NXZ 101204d0 f i libucrtd:input.obj
 0001:0011f6e0       ?advance@?$format_string_parser@_W@__crt_stdio_input@@QAE_NXZ 101206e0 f i libucrtd:input.obj
 0001:0011f8f0       ?as_double@floating_point_value@__crt_strtox@@QBEAANXZ 101208f0 f i libucrtd:input.obj
 0001:0011f980       ?as_float@floating_point_value@__crt_strtox@@QBEAAMXZ 10120980 f i libucrtd:input.obj
 0001:0011fa10       ?assemble_floating_point_infinity@__crt_strtox@@YAX_NABVfloating_point_value@1@@Z 10120a10 f i libucrtd:input.obj
 0001:0011fa70       ?assemble_floating_point_value@__crt_strtox@@YA?AW4SLD_STATUS@@_KH_N1ABVfloating_point_value@1@@Z 10120a70 f i libucrtd:input.obj
 0001:0011fd70       ?assemble_floating_point_value_from_big_integer@__crt_strtox@@YA?AW4SLD_STATUS@@ABUbig_integer@1@I_N1ABVfloating_point_value@1@@Z 10120d70 f i libucrtd:input.obj
 0001:00120130       ?assemble_floating_point_zero@__crt_strtox@@YAX_NABVfloating_point_value@1@@Z 10121130 f i libucrtd:input.obj
 0001:00120190       ?bit_scan_reverse@__crt_strtox@@YAIABUbig_integer@1@@Z 10121190 f i libucrtd:input.obj
 0001:001201e0       ?bit_scan_reverse@__crt_strtox@@YAII@Z 101211e0 f i libucrtd:input.obj
 0001:00120220       ?bit_scan_reverse@__crt_strtox@@YAI_K@Z 10121220 f i libucrtd:input.obj
 0001:00120280       ?characters_read@?$stream_input_adapter@D@__crt_stdio_input@@QBEIXZ 10121280 f i libucrtd:input.obj
 0001:001202a0       ?characters_read@?$stream_input_adapter@_W@__crt_stdio_input@@QBEIXZ 101212a0 f i libucrtd:input.obj
 0001:001202c0       ?characters_read@?$string_input_adapter@D@__crt_stdio_input@@QBEIXZ 101212c0 f i libucrtd:input.obj
 0001:001202e0       ?characters_read@?$string_input_adapter@_W@__crt_stdio_input@@QBEIXZ 101212e0 f i libucrtd:input.obj
 0001:00120300       ?convert_decimal_string_to_floating_type_common@__crt_strtox@@YA?AW4SLD_STATUS@@ABUfloating_point_string@1@ABVfloating_point_value@1@@Z 10121300 f i libucrtd:input.obj
 0001:00120ae0       ?convert_hexadecimal_string_to_floating_type_common@__crt_strtox@@YA?AW4SLD_STATUS@@ABUfloating_point_string@1@ABVfloating_point_value@1@@Z 10121ae0 f i libucrtd:input.obj
 0001:00120c50       ?count_sequential_high_zeroes@__crt_strtox@@YAII@Z 10121c50 f i libucrtd:input.obj
 0001:00120ca0       ?data@?$scanset_storage@$00@__crt_stdio_input@@QBEPAEXZ 10121ca0 f i libucrtd:input.obj
 0001:00120cc0       ?data@?$scanset_storage@$01@__crt_stdio_input@@QBEPAEXZ 10121cc0 f i libucrtd:input.obj
 0001:00120d40       ?denormal_mantissa_mask@floating_point_value@__crt_strtox@@QBE_KXZ 10121d40 f i libucrtd:input.obj
 0001:00120d90       ?divide@__crt_strtox@@YA_KAAUbig_integer@1@ABU21@@Z 10121d90 f i libucrtd:input.obj
 0001:00121ab0       ?error_code@?$format_string_parser@D@__crt_stdio_input@@QBEHXZ 10122ab0 f i libucrtd:input.obj
 0001:00121ad0       ?error_code@?$format_string_parser@_W@__crt_stdio_input@@QBEHXZ 10122ad0 f i libucrtd:input.obj
 0001:00121af0       ?exponent_bias@floating_point_value@__crt_strtox@@QBEHXZ 10122af0 f i libucrtd:input.obj
 0001:00121b30       ?get@?$__crt_unique_heap_ptr@EU__crt_internal_free_policy@@@@QBEPAEXZ 10122b30 f i libucrtd:input.obj
 0001:00121b50       ?get@?$input_adapter_character_source@V?$stream_input_adapter@D@__crt_stdio_input@@@__crt_strtox@@QAEDXZ 10122b50 f i libucrtd:input.obj
 0001:00121c00       ?get@?$input_adapter_character_source@V?$stream_input_adapter@_W@__crt_stdio_input@@@__crt_strtox@@QAE_WXZ 10122c00 f i libucrtd:input.obj
 0001:00121cb0       ?get@?$input_adapter_character_source@V?$string_input_adapter@D@__crt_stdio_input@@@__crt_strtox@@QAEDXZ 10122cb0 f i libucrtd:input.obj
 0001:00121d60       ?get@?$input_adapter_character_source@V?$string_input_adapter@_W@__crt_stdio_input@@@__crt_strtox@@QAE_WXZ 10122d60 f i libucrtd:input.obj
 0001:00121e10       ?get@?$stream_input_adapter@D@__crt_stdio_input@@QAEHXZ 10122e10 f i libucrtd:input.obj
 0001:00121e70       ?get@?$stream_input_adapter@_W@__crt_stdio_input@@QAEGXZ 10122e70 f i libucrtd:input.obj
 0001:00121ed0       ?get@?$string_input_adapter@D@__crt_stdio_input@@QAEHXZ 10122ed0 f i libucrtd:input.obj
 0001:00121f20       ?get@?$string_input_adapter@_W@__crt_stdio_input@@QAEGXZ 10122f20 f i libucrtd:input.obj
 0001:00121f80       ?invert@?$scanset_buffer@E@__crt_stdio_input@@QAEXXZ 10122f80 f i libucrtd:input.obj
 0001:00121ff0       ?invert@?$scanset_buffer@_W@__crt_stdio_input@@QAEXXZ 10122ff0 f i libucrtd:input.obj
 0001:00122060       ?is_character_allowed_in_string@?$input_processor@DV?$stream_input_adapter@D@__crt_stdio_input@@@__crt_stdio_input@@ABE_NW4conversion_mode@2@H@Z 10123060 f i libucrtd:input.obj
 0001:00122100       ?is_character_allowed_in_string@?$input_processor@DV?$string_input_adapter@D@__crt_stdio_input@@@__crt_stdio_input@@ABE_NW4conversion_mode@2@H@Z 10123100 f i libucrtd:input.obj
 0001:001221a0       ?is_character_allowed_in_string@?$input_processor@_WV?$stream_input_adapter@_W@__crt_stdio_input@@@__crt_stdio_input@@ABE_NW4conversion_mode@2@G@Z 101231a0 f i libucrtd:input.obj
 0001:00122250       ?is_character_allowed_in_string@?$input_processor@_WV?$string_input_adapter@_W@__crt_stdio_input@@@__crt_stdio_input@@ABE_NW4conversion_mode@2@G@Z 10123250 f i libucrtd:input.obj
 0001:00122300       ?is_digit_or_nondigit@__crt_strtox@@YA_NH@Z 10123300 f i libucrtd:input.obj
 0001:00122360       ?is_double@floating_point_value@__crt_strtox@@QBE_NXZ 10123360 f i libucrtd:input.obj
 0001:00122380       ?is_length_valid@__crt_stdio_input@@YA_NW4conversion_mode@1@W4length_modifier@1@@Z 10123380 f i libucrtd:input.obj
 0001:001223c0       ?is_space@__crt_strtox@@YA_NDQAU__crt_locale_pointers@@@Z 101233c0 f i libucrtd:input.obj
 0001:00122410       ?is_space@__crt_strtox@@YA_N_WPAU__crt_locale_pointers@@@Z 10123410 f i libucrtd:input.obj
 0001:00122450       ?is_usable@?$scanset_buffer@E@__crt_stdio_input@@QAE_NXZ 10123450 f i libucrtd:input.obj
 0001:00122490       ?is_usable@?$scanset_buffer@_W@__crt_stdio_input@@QAE_NXZ 10123490 f i libucrtd:input.obj
 0001:001224d0       ?is_valid@?$__crt_unique_heap_ptr@EU__crt_internal_free_policy@@@@QBE_NXZ 101234d0 f i libucrtd:input.obj
 0001:00122510       ?kind@?$format_string_parser@D@__crt_stdio_input@@QBE?AW4format_directive_kind@2@XZ 10123510 f i libucrtd:input.obj
 0001:00122530       ?kind@?$format_string_parser@_W@__crt_stdio_input@@QBE?AW4format_directive_kind@2@XZ 10123530 f i libucrtd:input.obj
 0001:00122550       ?length@?$format_string_parser@D@__crt_stdio_input@@QBEIXZ 10123550 f i libucrtd:input.obj
 0001:00122640       ?length@?$format_string_parser@_W@__crt_stdio_input@@QBEIXZ 10123640 f i libucrtd:input.obj
 0001:00122730       ?literal_character_lead@?$format_string_parser@D@__crt_stdio_input@@QBEEXZ 10123730 f i libucrtd:input.obj
 0001:00122790       ?literal_character_lead@?$format_string_parser@_W@__crt_stdio_input@@QBE_WXZ 10123790 f i libucrtd:input.obj
 0001:001227f0       ?literal_character_trail@?$format_string_parser@D@__crt_stdio_input@@QBEEXZ 101237f0 f i libucrtd:input.obj
 0001:00122850       ?make_big_integer@__crt_strtox@@YA?AUbig_integer@1@_K@Z 10123850 f i libucrtd:input.obj
 0001:00122920       ?mantissa_bits@floating_point_value@__crt_strtox@@QBEHXZ 10123920 f i libucrtd:input.obj
 0001:00122960       ?maximum_binary_exponent@floating_point_value@__crt_strtox@@QBEHXZ 10123960 f i libucrtd:input.obj
 0001:001229a0       ?maximum_signed_value@__crt_strtox@@YA_J_K@Z 101239a0 f i libucrtd:input.obj
 0001:001229c0       ?minimum_binary_exponent@floating_point_value@__crt_strtox@@QBEHXZ 101239c0 f i libucrtd:input.obj
 0001:00122a00       ?minimum_signed_value@__crt_strtox@@YA_J_K@Z 10123a00 f i libucrtd:input.obj
 0001:00122a20       ?mode@?$format_string_parser@D@__crt_stdio_input@@QBE?AW4conversion_mode@2@XZ 10123a20 f i libucrtd:input.obj
 0001:00122a80       ?mode@?$format_string_parser@_W@__crt_stdio_input@@QBE?AW4conversion_mode@2@XZ 10123a80 f i libucrtd:input.obj
 0001:00122ae0       ?multiply@__crt_strtox@@YA_NAAUbig_integer@1@ABU21@@Z 10123ae0 f i libucrtd:input.obj
 0001:00122f40       ?multiply@__crt_strtox@@YA_NAAUbig_integer@1@I@Z 10123f40 f i libucrtd:input.obj
 0001:00123040       ?multiply_64_32@__crt_strtox@@YA_K_KI@Z 10124040 f i libucrtd:input.obj
 0001:00123060       ?multiply_by_power_of_ten@__crt_strtox@@YA_NAAUbig_integer@1@I@Z 10124060 f i libucrtd:input.obj
 0001:00123260       ?multiply_core@__crt_strtox@@YAIQAIII@Z 10124260 f i libucrtd:input.obj
 0001:001232e0       ?normal_mantissa_mask@floating_point_value@__crt_strtox@@QBE_KXZ 101242e0 f i libucrtd:input.obj
 0001:00123330       ?parse_digit@__crt_strtox@@YAID@Z 10124330 f i libucrtd:input.obj
 0001:001233b0       ?parse_digit@__crt_strtox@@YAI_W@Z 101243b0 f i libucrtd:input.obj
 0001:00123410       ?process@?$input_processor@DV?$stream_input_adapter@D@__crt_stdio_input@@@__crt_stdio_input@@QAEHXZ 10124410 f i libucrtd:input.obj
 0001:001235c0       ?process@?$input_processor@DV?$string_input_adapter@D@__crt_stdio_input@@@__crt_stdio_input@@QAEHXZ 101245c0 f i libucrtd:input.obj
 0001:00123770       ?process@?$input_processor@_WV?$stream_input_adapter@_W@__crt_stdio_input@@@__crt_stdio_input@@QAEHXZ 10124770 f i libucrtd:input.obj
 0001:00123930       ?process@?$input_processor@_WV?$string_input_adapter@_W@__crt_stdio_input@@@__crt_stdio_input@@QAEHXZ 10124930 f i libucrtd:input.obj
 0001:00123af0       ?process_character_count_specifier@?$input_processor@DV?$stream_input_adapter@D@__crt_stdio_input@@@__crt_stdio_input@@AAE_NXZ 10124af0 f i libucrtd:input.obj
 0001:00123b40       ?process_character_count_specifier@?$input_processor@DV?$string_input_adapter@D@__crt_stdio_input@@@__crt_stdio_input@@AAE_NXZ 10124b40 f i libucrtd:input.obj
 0001:00123b90       ?process_character_count_specifier@?$input_processor@_WV?$stream_input_adapter@_W@__crt_stdio_input@@@__crt_stdio_input@@AAE_NXZ 10124b90 f i libucrtd:input.obj
 0001:00123be0       ?process_character_count_specifier@?$input_processor@_WV?$string_input_adapter@_W@__crt_stdio_input@@@__crt_stdio_input@@AAE_NXZ 10124be0 f i libucrtd:input.obj
 0001:00123c30       ?process_conversion_specifier@?$input_processor@DV?$stream_input_adapter@D@__crt_stdio_input@@@__crt_stdio_input@@AAE_NXZ 10124c30 f i libucrtd:input.obj
 0001:00123d50       ?process_conversion_specifier@?$input_processor@DV?$string_input_adapter@D@__crt_stdio_input@@@__crt_stdio_input@@AAE_NXZ 10124d50 f i libucrtd:input.obj
 0001:00123e70       ?process_conversion_specifier@?$input_processor@_WV?$stream_input_adapter@_W@__crt_stdio_input@@@__crt_stdio_input@@AAE_NXZ 10124e70 f i libucrtd:input.obj
 0001:00123f90       ?process_conversion_specifier@?$input_processor@_WV?$string_input_adapter@_W@__crt_stdio_input@@@__crt_stdio_input@@AAE_NXZ 10124f90 f i libucrtd:input.obj
 0001:001240b0       ?process_floating_point_specifier@?$input_processor@DV?$stream_input_adapter@D@__crt_stdio_input@@@__crt_stdio_input@@AAE_NXZ 101250b0 f i libucrtd:input.obj
 0001:00124110       ?process_floating_point_specifier@?$input_processor@DV?$string_input_adapter@D@__crt_stdio_input@@@__crt_stdio_input@@AAE_NXZ 10125110 f i libucrtd:input.obj
 0001:00124170       ?process_floating_point_specifier@?$input_processor@_WV?$stream_input_adapter@_W@__crt_stdio_input@@@__crt_stdio_input@@AAE_NXZ 10125170 f i libucrtd:input.obj
 0001:001241d0       ?process_floating_point_specifier@?$input_processor@_WV?$string_input_adapter@_W@__crt_stdio_input@@@__crt_stdio_input@@AAE_NXZ 101251d0 f i libucrtd:input.obj
 0001:00124230       ?process_integer_specifier@?$input_processor@DV?$stream_input_adapter@D@__crt_stdio_input@@@__crt_stdio_input@@AAE_NI_N@Z 10125230 f i libucrtd:input.obj
 0001:001242f0       ?process_integer_specifier@?$input_processor@DV?$string_input_adapter@D@__crt_stdio_input@@@__crt_stdio_input@@AAE_NI_N@Z 101252f0 f i libucrtd:input.obj
 0001:001243b0       ?process_integer_specifier@?$input_processor@_WV?$stream_input_adapter@_W@__crt_stdio_input@@@__crt_stdio_input@@AAE_NI_N@Z 101253b0 f i libucrtd:input.obj
 0001:00124470       ?process_integer_specifier@?$input_processor@_WV?$string_input_adapter@_W@__crt_stdio_input@@@__crt_stdio_input@@AAE_NI_N@Z 10125470 f i libucrtd:input.obj
 0001:00124530       ?process_literal_character@?$input_processor@DV?$stream_input_adapter@D@__crt_stdio_input@@@__crt_stdio_input@@AAE_NXZ 10125530 f i libucrtd:input.obj
 0001:001245a0       ?process_literal_character@?$input_processor@DV?$string_input_adapter@D@__crt_stdio_input@@@__crt_stdio_input@@AAE_NXZ 101255a0 f i libucrtd:input.obj
 0001:00124610       ?process_literal_character@?$input_processor@_WV?$stream_input_adapter@_W@__crt_stdio_input@@@__crt_stdio_input@@AAE_NXZ 10125610 f i libucrtd:input.obj
 0001:00124690       ?process_literal_character@?$input_processor@_WV?$string_input_adapter@_W@__crt_stdio_input@@@__crt_stdio_input@@AAE_NXZ 10125690 f i libucrtd:input.obj
 0001:00124710       ?process_literal_character_tchar@?$input_processor@DV?$stream_input_adapter@D@__crt_stdio_input@@@__crt_stdio_input@@AAE_ND@Z 10125710 f i libucrtd:input.obj
 0001:001247a0       ?process_literal_character_tchar@?$input_processor@DV?$string_input_adapter@D@__crt_stdio_input@@@__crt_stdio_input@@AAE_ND@Z 101257a0 f i libucrtd:input.obj
 0001:00124830       ?process_literal_character_tchar@?$input_processor@_WV?$stream_input_adapter@_W@__crt_stdio_input@@@__crt_stdio_input@@AAE_N_W@Z 10125830 f i libucrtd:input.obj
 0001:00124850       ?process_literal_character_tchar@?$input_processor@_WV?$string_input_adapter@_W@__crt_stdio_input@@@__crt_stdio_input@@AAE_N_W@Z 10125850 f i libucrtd:input.obj
 0001:00124870       ?process_state@?$input_processor@DV?$stream_input_adapter@D@__crt_stdio_input@@@__crt_stdio_input@@AAE_NXZ 10125870 f i libucrtd:input.obj
 0001:00124930       ?process_state@?$input_processor@DV?$string_input_adapter@D@__crt_stdio_input@@@__crt_stdio_input@@AAE_NXZ 10125930 f i libucrtd:input.obj
 0001:001249f0       ?process_state@?$input_processor@_WV?$stream_input_adapter@_W@__crt_stdio_input@@@__crt_stdio_input@@AAE_NXZ 101259f0 f i libucrtd:input.obj
 0001:00124ab0       ?process_state@?$input_processor@_WV?$string_input_adapter@_W@__crt_stdio_input@@@__crt_stdio_input@@AAE_NXZ 10125ab0 f i libucrtd:input.obj
 0001:00124b70       ?process_string_specifier@?$input_processor@DV?$stream_input_adapter@D@__crt_stdio_input@@@__crt_stdio_input@@AAE_NW4conversion_mode@2@@Z 10125b70 f i libucrtd:input.obj
 0001:00124bf0       ?process_string_specifier@?$input_processor@DV?$string_input_adapter@D@__crt_stdio_input@@@__crt_stdio_input@@AAE_NW4conversion_mode@2@@Z 10125bf0 f i libucrtd:input.obj
 0001:00124c70       ?process_string_specifier@?$input_processor@_WV?$stream_input_adapter@_W@__crt_stdio_input@@@__crt_stdio_input@@AAE_NW4conversion_mode@2@@Z 10125c70 f i libucrtd:input.obj
 0001:00124cf0       ?process_string_specifier@?$input_processor@_WV?$string_input_adapter@_W@__crt_stdio_input@@@__crt_stdio_input@@AAE_NW4conversion_mode@2@@Z 10125cf0 f i libucrtd:input.obj
 0001:00124d70       ?process_whitespace@?$input_processor@DV?$stream_input_adapter@D@__crt_stdio_input@@@__crt_stdio_input@@AAE_NXZ 10125d70 f i libucrtd:input.obj
 0001:00124db0       ?process_whitespace@?$input_processor@DV?$string_input_adapter@D@__crt_stdio_input@@@__crt_stdio_input@@AAE_NXZ 10125db0 f i libucrtd:input.obj
 0001:00124df0       ?process_whitespace@?$input_processor@_WV?$stream_input_adapter@_W@__crt_stdio_input@@@__crt_stdio_input@@AAE_NXZ 10125df0 f i libucrtd:input.obj
 0001:00124e40       ?process_whitespace@?$input_processor@_WV?$string_input_adapter@_W@__crt_stdio_input@@@__crt_stdio_input@@AAE_NXZ 10125e40 f i libucrtd:input.obj
 0001:00124e90       ?release@?$__crt_unique_heap_ptr@EU__crt_internal_free_policy@@@@QAEXXZ 10125e90 f i libucrtd:input.obj
 0001:00124ec0       ?reset@?$scanset_buffer@E@__crt_stdio_input@@QAEXXZ 10125ec0 f i libucrtd:input.obj
 0001:00124f10       ?reset@?$scanset_buffer@_W@__crt_stdio_input@@QAEXXZ 10125f10 f i libucrtd:input.obj
 0001:00124f60       ?reset_token_state@?$format_string_parser@D@__crt_stdio_input@@AAEXXZ 10125f60 f i libucrtd:input.obj
 0001:00124fd0       ?reset_token_state@?$format_string_parser@_W@__crt_stdio_input@@AAEXXZ 10125fd0 f i libucrtd:input.obj
 0001:00125050       ?reset_token_state_for_error@?$format_string_parser@D@__crt_stdio_input@@AAEXH@Z 10126050 f i libucrtd:input.obj
 0001:00125080       ?reset_token_state_for_error@?$format_string_parser@_W@__crt_stdio_input@@AAEXH@Z 10126080 f i libucrtd:input.obj
 0001:001250b0       ?restore_state@?$input_adapter_character_source@V?$stream_input_adapter@D@__crt_stdio_input@@@__crt_strtox@@QAE_N_K@Z 101260b0 f i libucrtd:input.obj
 0001:00125100       ?restore_state@?$input_adapter_character_source@V?$stream_input_adapter@_W@__crt_stdio_input@@@__crt_strtox@@QAE_N_K@Z 10126100 f i libucrtd:input.obj
 0001:00125150       ?restore_state@?$input_adapter_character_source@V?$string_input_adapter@D@__crt_stdio_input@@@__crt_strtox@@QAE_N_K@Z 10126150 f i libucrtd:input.obj
 0001:001251a0       ?restore_state@?$input_adapter_character_source@V?$string_input_adapter@_W@__crt_stdio_input@@@__crt_strtox@@QAE_N_K@Z 101261a0 f i libucrtd:input.obj
 0001:001251f0       ?right_shift_with_rounding@__crt_strtox@@YA_K_N_KI0@Z 101261f0 f i libucrtd:input.obj
 0001:00125370       ?save_state@?$input_adapter_character_source@V?$stream_input_adapter@D@__crt_stdio_input@@@__crt_strtox@@QBE_KXZ 10126370 f i libucrtd:input.obj
 0001:00125390       ?save_state@?$input_adapter_character_source@V?$stream_input_adapter@_W@__crt_stdio_input@@@__crt_strtox@@QBE_KXZ 10126390 f i libucrtd:input.obj
 0001:001253b0       ?save_state@?$input_adapter_character_source@V?$string_input_adapter@D@__crt_stdio_input@@@__crt_strtox@@QBE_KXZ 101263b0 f i libucrtd:input.obj
 0001:001253d0       ?save_state@?$input_adapter_character_source@V?$string_input_adapter@_W@__crt_stdio_input@@@__crt_strtox@@QBE_KXZ 101263d0 f i libucrtd:input.obj
 0001:001253f0       ?scan_conversion_specifier@?$format_string_parser@D@__crt_stdio_input@@AAE_NXZ 101263f0 f i libucrtd:input.obj
 0001:001256e0       ?scan_conversion_specifier@?$format_string_parser@_W@__crt_stdio_input@@AAE_NXZ 101266e0 f i libucrtd:input.obj
 0001:001259d0       ?scan_optional_assignment_suppressor@?$format_string_parser@D@__crt_stdio_input@@AAEXXZ 101269d0 f i libucrtd:input.obj
 0001:00125a10       ?scan_optional_assignment_suppressor@?$format_string_parser@_W@__crt_stdio_input@@AAEXXZ 10126a10 f i libucrtd:input.obj
 0001:00125a50       ?scan_optional_field_width@?$format_string_parser@D@__crt_stdio_input@@AAE_NXZ 10126a50 f i libucrtd:input.obj
 0001:00125b20       ?scan_optional_field_width@?$format_string_parser@_W@__crt_stdio_input@@AAE_NXZ 10126b20 f i libucrtd:input.obj
 0001:00125be0       ?scan_optional_length_modifier@?$format_string_parser@D@__crt_stdio_input@@AAEXXZ 10126be0 f i libucrtd:input.obj
 0001:00125fa0       ?scan_optional_length_modifier@?$format_string_parser@_W@__crt_stdio_input@@AAEXXZ 10126fa0 f i libucrtd:input.obj
 0001:00126360       ?scan_optional_literal_character_trail_bytes_tchar@?$format_string_parser@D@__crt_stdio_input@@AAE_ND@Z 10127360 f i libucrtd:input.obj
 0001:001263e0       ?scan_optional_literal_character_trail_bytes_tchar@?$format_string_parser@_W@__crt_stdio_input@@AAE_N_W@Z 101273e0 f i libucrtd:input.obj
 0001:00126400       ?scan_optional_wide_modifier@?$format_string_parser@D@__crt_stdio_input@@AAEXXZ 10127400 f i libucrtd:input.obj
 0001:00126470       ?scan_optional_wide_modifier@?$format_string_parser@_W@__crt_stdio_input@@AAEXXZ 10127470 f i libucrtd:input.obj
 0001:001264e0       ?scan_scanset_range@?$format_string_parser@D@__crt_stdio_input@@AAE_NXZ 101274e0 f i libucrtd:input.obj
 0001:00126770       ?scan_scanset_range@?$format_string_parser@_W@__crt_stdio_input@@AAE_NXZ 10127770 f i libucrtd:input.obj
 0001:00126a10       ?scanset@?$format_string_parser@D@__crt_stdio_input@@QBEABV?$scanset_buffer@E@2@XZ 10127a10 f i libucrtd:input.obj
 0001:00126a70       ?scanset@?$format_string_parser@_W@__crt_stdio_input@@QBEABV?$scanset_buffer@_W@2@XZ 10127a70 f i libucrtd:input.obj
 0001:00126ad0       ?secure_buffers@?$input_processor@DV?$stream_input_adapter@D@__crt_stdio_input@@@__crt_stdio_input@@ABE_NXZ 10127ad0 f i libucrtd:input.obj
 0001:00126b20       ?secure_buffers@?$input_processor@DV?$string_input_adapter@D@__crt_stdio_input@@@__crt_stdio_input@@ABE_NXZ 10127b20 f i libucrtd:input.obj
 0001:00126b70       ?secure_buffers@?$input_processor@_WV?$stream_input_adapter@_W@__crt_stdio_input@@@__crt_stdio_input@@ABE_NXZ 10127b70 f i libucrtd:input.obj
 0001:00126bc0       ?secure_buffers@?$input_processor@_WV?$string_input_adapter@_W@__crt_stdio_input@@@__crt_stdio_input@@ABE_NXZ 10127bc0 f i libucrtd:input.obj
 0001:00126c10       ?set@?$scanset_buffer@E@__crt_stdio_input@@QAEXE@Z 10127c10 f i libucrtd:input.obj
 0001:00126c80       ?set@?$scanset_buffer@_W@__crt_stdio_input@@QAEX_W@Z 10127c80 f i libucrtd:input.obj
 0001:00126cf0       ?set_wide_for_c_s_or_scanset@?$format_string_parser@D@__crt_stdio_input@@AAEXXZ 10127cf0 f i libucrtd:input.obj
 0001:00126d40       ?set_wide_for_c_s_or_scanset@?$format_string_parser@_W@__crt_stdio_input@@AAEXXZ 10127d40 f i libucrtd:input.obj
 0001:00126d90       ?shift_left@__crt_strtox@@YA_NAAUbig_integer@1@I@Z 10127d90 f i libucrtd:input.obj
 0001:001271b0       ?should_default_to_wide@?$format_string_parser@D@__crt_stdio_input@@AAE_NE@Z 101281b0 f i libucrtd:input.obj
 0001:00127200       ?should_default_to_wide@?$format_string_parser@_W@__crt_stdio_input@@AAE_N_W@Z 10128200 f i libucrtd:input.obj
 0001:00127280       ?should_round_up@__crt_strtox@@YA_N_N000@Z 10128280 f i libucrtd:input.obj
 0001:001273b0       ?size@?$scanset_storage@$00@__crt_stdio_input@@QBEIXZ 101283b0 f i libucrtd:input.obj
 0001:001273d0       ?size@?$scanset_storage@$01@__crt_stdio_input@@QBEIXZ 101283d0 f i libucrtd:input.obj
 0001:001273f0       ?suppress_assignment@?$format_string_parser@D@__crt_stdio_input@@QBE_NXZ 101283f0 f i libucrtd:input.obj
 0001:00127450       ?suppress_assignment@?$format_string_parser@_W@__crt_stdio_input@@QBE_NXZ 10128450 f i libucrtd:input.obj
 0001:001274b0       ?test@?$scanset_buffer@E@__crt_stdio_input@@QBE_NE@Z 101284b0 f i libucrtd:input.obj
 0001:00127530       ?test@?$scanset_buffer@_W@__crt_stdio_input@@QBE_N_W@Z 10128530 f i libucrtd:input.obj
 0001:001275b0       ?to_floating_point_length@__crt_stdio_input@@YAIW4length_modifier@1@@Z 101285b0 f i libucrtd:input.obj
 0001:00127630       ?to_integer_length@__crt_stdio_input@@YAIW4length_modifier@1@@Z 10128630 f i libucrtd:input.obj
 0001:00127720       ?unget@?$input_adapter_character_source@V?$stream_input_adapter@D@__crt_stdio_input@@@__crt_strtox@@QAEXD@Z 10128720 f i libucrtd:input.obj
 0001:001277d0       ?unget@?$input_adapter_character_source@V?$stream_input_adapter@_W@__crt_stdio_input@@@__crt_strtox@@QAEX_W@Z 101287d0 f i libucrtd:input.obj
 0001:00127890       ?unget@?$input_adapter_character_source@V?$string_input_adapter@D@__crt_stdio_input@@@__crt_strtox@@QAEXD@Z 10128890 f i libucrtd:input.obj
 0001:00127940       ?unget@?$input_adapter_character_source@V?$string_input_adapter@_W@__crt_stdio_input@@@__crt_strtox@@QAEX_W@Z 10128940 f i libucrtd:input.obj
 0001:00127a00       ?unget@?$stream_input_adapter@D@__crt_stdio_input@@QAEXH@Z 10128a00 f i libucrtd:input.obj
 0001:00127a60       ?unget@?$stream_input_adapter@_W@__crt_stdio_input@@QAEXG@Z 10128a60 f i libucrtd:input.obj
 0001:00127ac0       ?unget@?$string_input_adapter@D@__crt_stdio_input@@QAEXH@Z 10128ac0 f i libucrtd:input.obj
 0001:00127b20       ?unget@?$string_input_adapter@_W@__crt_stdio_input@@QAEXG@Z 10128b20 f i libucrtd:input.obj
 0001:00127b80       ?validate@?$format_string_parser@D@__crt_stdio_input@@QBE_NXZ 10128b80 f i libucrtd:input.obj
 0001:00127c40       ?validate@?$format_string_parser@_W@__crt_stdio_input@@QBE_NXZ 10128c40 f i libucrtd:input.obj
 0001:00127d00       ?validate@?$input_adapter_character_source@V?$stream_input_adapter@D@__crt_stdio_input@@@__crt_strtox@@QBE_NXZ 10128d00 f i libucrtd:input.obj
 0001:00127e60       ?validate@?$input_adapter_character_source@V?$stream_input_adapter@_W@__crt_stdio_input@@@__crt_strtox@@QBE_NXZ 10128e60 f i libucrtd:input.obj
 0001:00127fc0       ?validate@?$input_adapter_character_source@V?$string_input_adapter@D@__crt_stdio_input@@@__crt_strtox@@QBE_NXZ 10128fc0 f i libucrtd:input.obj
 0001:00128120       ?validate@?$input_adapter_character_source@V?$string_input_adapter@_W@__crt_stdio_input@@@__crt_strtox@@QBE_NXZ 10129120 f i libucrtd:input.obj
 0001:00128280       ?validate@?$stream_input_adapter@D@__crt_stdio_input@@QBE_NXZ 10129280 f i libucrtd:input.obj
 0001:00128350       ?validate@?$stream_input_adapter@_W@__crt_stdio_input@@QBE_NXZ 10129350 f i libucrtd:input.obj
 0001:00128420       ?validate@?$string_input_adapter@D@__crt_stdio_input@@QAE_NXZ 10129420 f i libucrtd:input.obj
 0001:00128580       ?validate@?$string_input_adapter@_W@__crt_stdio_input@@QAE_NXZ 10129580 f i libucrtd:input.obj
 0001:001286e0       ?wide_character_to_digit@__crt_strtox@@YAH_W@Z 101296e0 f i libucrtd:input.obj
 0001:00128ad0       ?width@?$format_string_parser@D@__crt_stdio_input@@QBE_KXZ 10129ad0 f i libucrtd:input.obj
 0001:00128b30       ?width@?$format_string_parser@_W@__crt_stdio_input@@QBE_KXZ 10129b30 f i libucrtd:input.obj
 0001:00128b90       ?write_character@?$input_processor@DV?$stream_input_adapter@D@__crt_stdio_input@@@__crt_stdio_input@@AAE_NQADIAAPADAAID@Z 10129b90 f i libucrtd:input.obj
 0001:00128be0       ?write_character@?$input_processor@DV?$stream_input_adapter@D@__crt_stdio_input@@@__crt_stdio_input@@AAE_NQA_WIAAPA_WAAID@Z 10129be0 f i libucrtd:input.obj
 0001:00128cb0       ?write_character@?$input_processor@DV?$string_input_adapter@D@__crt_stdio_input@@@__crt_stdio_input@@AAE_NQADIAAPADAAID@Z 10129cb0 f i libucrtd:input.obj
 0001:00128d00       ?write_character@?$input_processor@DV?$string_input_adapter@D@__crt_stdio_input@@@__crt_stdio_input@@AAE_NQA_WIAAPA_WAAID@Z 10129d00 f i libucrtd:input.obj
 0001:00128dd0       ?write_character@?$input_processor@_WV?$stream_input_adapter@_W@__crt_stdio_input@@@__crt_stdio_input@@AAE_NQADIAAPADAAI_W@Z 10129dd0 f i libucrtd:input.obj
 0001:00128ee0       ?write_character@?$input_processor@_WV?$stream_input_adapter@_W@__crt_stdio_input@@@__crt_stdio_input@@AAE_NQA_WIAAPA_WAAI_W@Z 10129ee0 f i libucrtd:input.obj
 0001:00128f30       ?write_character@?$input_processor@_WV?$string_input_adapter@_W@__crt_stdio_input@@@__crt_stdio_input@@AAE_NQADIAAPADAAI_W@Z 10129f30 f i libucrtd:input.obj
 0001:00129040       ?write_character@?$input_processor@_WV?$string_input_adapter@_W@__crt_stdio_input@@@__crt_stdio_input@@AAE_NQA_WIAAPA_WAAI_W@Z 1012a040 f i libucrtd:input.obj
 0001:00129090       ?write_integer@?$input_processor@DV?$stream_input_adapter@D@__crt_stdio_input@@@__crt_stdio_input@@AAE_N_K@Z 1012a090 f i libucrtd:input.obj
 0001:00129240       ?write_integer@?$input_processor@DV?$string_input_adapter@D@__crt_stdio_input@@@__crt_stdio_input@@AAE_N_K@Z 1012a240 f i libucrtd:input.obj
 0001:001293f0       ?write_integer@?$input_processor@_WV?$stream_input_adapter@_W@__crt_stdio_input@@@__crt_stdio_input@@AAE_N_K@Z 1012a3f0 f i libucrtd:input.obj
 0001:001295a0       ?write_integer@?$input_processor@_WV?$string_input_adapter@_W@__crt_stdio_input@@@__crt_stdio_input@@AAE_N_K@Z 1012a5a0 f i libucrtd:input.obj
 0001:00129750       ___acrt_get_locale_data_prefix 1012a750 f i libucrtd:input.obj
 0001:00129770       ___ascii_iswalpha          1012a770 f i libucrtd:input.obj
 0001:001297c0       ___ascii_toupper           1012a7c0 f i libucrtd:input.obj
 0001:001297f0       ___ascii_towupper          1012a7f0 f i libucrtd:input.obj
 0001:00129810       ___stdio_common_vfscanf    1012a810 f   libucrtd:input.obj
 0001:00129840       ___stdio_common_vfwscanf   1012a840 f   libucrtd:input.obj
 0001:00129870       ___stdio_common_vsscanf    1012a870 f   libucrtd:input.obj
 0001:001298b0       ___stdio_common_vswscanf   1012a8b0 f   libucrtd:input.obj
 0001:001298f0       __chvalidchk_l             1012a8f0 f i libucrtd:input.obj
 0001:00129920       __invoke_watson_if_oneof   1012a920 f i libucrtd:input.obj
 0001:00129970       __ischartype_l             1012a970 f i libucrtd:input.obj
 0001:00129b70       _fabs                      1012ab70 f   libucrtd:fabs.obj
 0001:0012a110       ??$make_c_string_character_source@D$$T@__crt_strtox@@YA?AV?$c_string_character_source@D@0@QBD$$T@Z 1012b110 f i libucrtd:atof.obj
 0001:0012a130       ??$make_c_string_character_source@_W$$T@__crt_strtox@@YA?AV?$c_string_character_source@_W@0@QB_W$$T@Z 1012b130 f i libucrtd:atof.obj
 0001:0012a150       ??$parse_floating_point@V?$c_string_character_source@D@__crt_strtox@@M@__crt_strtox@@YA?AW4SLD_STATUS@@QAU__crt_locale_pointers@@V?$c_string_character_source@D@0@QAM@Z 1012b150 f i libucrtd:atof.obj
 0001:0012a380       ??$parse_floating_point@V?$c_string_character_source@D@__crt_strtox@@N@__crt_strtox@@YA?AW4SLD_STATUS@@QAU__crt_locale_pointers@@V?$c_string_character_source@D@0@QAN@Z 1012b380 f i libucrtd:atof.obj
 0001:0012a5b0       ??$parse_floating_point@V?$c_string_character_source@_W@__crt_strtox@@N@__crt_strtox@@YA?AW4SLD_STATUS@@QAU__crt_locale_pointers@@V?$c_string_character_source@_W@0@QAN@Z 1012b5b0 f i libucrtd:atof.obj
 0001:0012a7e0       ??$parse_floating_point_from_source@V?$c_string_character_source@D@__crt_strtox@@@__crt_strtox@@YA?AW4floating_point_parse_result@0@QAU__crt_locale_pointers@@AAV?$c_string_character_source@D@0@AAUfloating_point_string@0@@Z 1012b7e0 f i libucrtd:atof.obj
 0001:0012af00       ??$parse_floating_point_from_source@V?$c_string_character_source@_W@__crt_strtox@@@__crt_strtox@@YA?AW4floating_point_parse_result@0@QAU__crt_locale_pointers@@AAV?$c_string_character_source@_W@0@AAUfloating_point_string@0@@Z 1012bf00 f i libucrtd:atof.obj
 0001:0012b630       ??$parse_floating_point_possible_infinity@DV?$c_string_character_source@D@__crt_strtox@@PBD@__crt_strtox@@YA?AW4floating_point_parse_result@0@AADAAV?$c_string_character_source@D@0@PBD@Z 1012c630 f i libucrtd:atof.obj
 0001:0012b740       ??$parse_floating_point_possible_infinity@_WV?$c_string_character_source@_W@__crt_strtox@@PB_W@__crt_strtox@@YA?AW4floating_point_parse_result@0@AA_WAAV?$c_string_character_source@_W@0@PB_W@Z 1012c740 f i libucrtd:atof.obj
 0001:0012b850       ??$parse_floating_point_possible_nan@DV?$c_string_character_source@D@__crt_strtox@@PBD@__crt_strtox@@YA?AW4floating_point_parse_result@0@AADAAV?$c_string_character_source@D@0@PBD@Z 1012c850 f i libucrtd:atof.obj
 0001:0012ba70       ??$parse_floating_point_possible_nan@_WV?$c_string_character_source@_W@__crt_strtox@@PB_W@__crt_strtox@@YA?AW4floating_point_parse_result@0@AA_WAAV?$c_string_character_source@_W@0@PB_W@Z 1012ca70 f i libucrtd:atof.obj
 0001:0012bc90       ??$parse_floating_point_possible_nan_is_ind@DV?$c_string_character_source@D@__crt_strtox@@@__crt_strtox@@YA_NAADAAV?$c_string_character_source@D@0@@Z 1012cc90 f i libucrtd:atof.obj
 0001:0012bcc0       ??$parse_floating_point_possible_nan_is_ind@_WV?$c_string_character_source@_W@__crt_strtox@@@__crt_strtox@@YA_NAA_WAAV?$c_string_character_source@_W@0@@Z 1012ccc0 f i libucrtd:atof.obj
 0001:0012bcf0       ??$parse_floating_point_possible_nan_is_snan@DV?$c_string_character_source@D@__crt_strtox@@@__crt_strtox@@YA_NAADAAV?$c_string_character_source@D@0@@Z 1012ccf0 f i libucrtd:atof.obj
 0001:0012bd20       ??$parse_floating_point_possible_nan_is_snan@_WV?$c_string_character_source@_W@__crt_strtox@@@__crt_strtox@@YA_NAA_WAAV?$c_string_character_source@_W@0@@Z 1012cd20 f i libucrtd:atof.obj
 0001:0012bd50       ??$parse_next_characters_from_source@DV?$c_string_character_source@D@__crt_strtox@@@__crt_strtox@@YA_NQBD0IAADAAV?$c_string_character_source@D@0@@Z 1012cd50 f i libucrtd:atof.obj
 0001:0012bdd0       ??$parse_next_characters_from_source@_WV?$c_string_character_source@_W@__crt_strtox@@@__crt_strtox@@YA_NQB_W0IAA_WAAV?$c_string_character_source@_W@0@@Z 1012cdd0 f i libucrtd:atof.obj
 0001:0012bfd0       ??0?$c_string_character_source@D@__crt_strtox@@QAE@QBDQAPBD@Z 1012cfd0 f i libucrtd:atof.obj
 0001:0012c010       ??0?$c_string_character_source@_W@__crt_strtox@@QAE@QB_WQAPB_W@Z 1012d010 f i libucrtd:atof.obj
 0001:0012c050       ??1?$c_string_character_source@D@__crt_strtox@@QAE@XZ 1012d050 f i libucrtd:atof.obj
 0001:0012c080       ??1?$c_string_character_source@_W@__crt_strtox@@QAE@XZ 1012d080 f i libucrtd:atof.obj
 0001:0012c290       ?get@?$c_string_character_source@D@__crt_strtox@@QAEDXZ 1012d290 f i libucrtd:atof.obj
 0001:0012c2d0       ?get@?$c_string_character_source@_W@__crt_strtox@@QAE_WXZ 1012d2d0 f i libucrtd:atof.obj
 0001:0012c310       ?restore_state@?$c_string_character_source@D@__crt_strtox@@QAE_NQBD@Z 1012d310 f i libucrtd:atof.obj
 0001:0012c330       ?restore_state@?$c_string_character_source@_W@__crt_strtox@@QAE_NQB_W@Z 1012d330 f i libucrtd:atof.obj
 0001:0012c350       ?save_state@?$c_string_character_source@D@__crt_strtox@@QBEPBDXZ 1012d350 f i libucrtd:atof.obj
 0001:0012c370       ?save_state@?$c_string_character_source@_W@__crt_strtox@@QBEPB_WXZ 1012d370 f i libucrtd:atof.obj
 0001:0012c390       ?unget@?$c_string_character_source@D@__crt_strtox@@QAEXD@Z 1012d390 f i libucrtd:atof.obj
 0001:0012c460       ?unget@?$c_string_character_source@_W@__crt_strtox@@QAEX_W@Z 1012d460 f i libucrtd:atof.obj
 0001:0012c530       ?validate@?$c_string_character_source@D@__crt_strtox@@QBE_NXZ 1012d530 f i libucrtd:atof.obj
 0001:0012c5f0       ?validate@?$c_string_character_source@_W@__crt_strtox@@QBE_NXZ 1012d5f0 f i libucrtd:atof.obj
 0001:0012c6b0       __atodbl                   1012d6b0 f   libucrtd:atof.obj
 0001:0012c6d0       __atodbl_l                 1012d6d0 f   libucrtd:atof.obj
 0001:0012c700       __atof_l                   1012d700 f   libucrtd:atof.obj
 0001:0012c720       __atoflt                   1012d720 f   libucrtd:atof.obj
 0001:0012c740       __atoflt_l                 1012d740 f   libucrtd:atof.obj
 0001:0012c770       __wtof                     1012d770 f   libucrtd:atof.obj
 0001:0012c790       __wtof_l                   1012d790 f   libucrtd:atof.obj
 0001:0012c7b0       _atof                      1012d7b0 f   libucrtd:atof.obj
 0001:0012cb10       __isleadbyte_fast_internal 1012db10 f i libucrtd:_mbslen.obj
 0001:0012cb40       __mbstrlen                 1012db40 f   libucrtd:_mbslen.obj
 0001:0012cb80       __mbstrlen_l               1012db80 f   libucrtd:_mbslen.obj
 0001:0012cba0       __mbstrnlen                1012dba0 f   libucrtd:_mbslen.obj
 0001:0012cbc0       __mbstrnlen_l              1012dbc0 f   libucrtd:_mbslen.obj
 0001:0012cd20       _strlen                    1012dd20 f   libucrtd:strlen.obj
 0001:0012cdcd       __mbsinc                   1012ddcd f   libucrtd:mbsinc.obj
 0001:0012ce59       __mbsinc_l                 1012de59 f   libucrtd:mbsinc.obj
 0001:0012ce89       __mbsnbcmp                 1012de89 f   libucrtd:mbsnbcmp.obj
 0001:0012cea9       __mbsnbcmp_l               1012dea9 f   libucrtd:mbsnbcmp.obj
 0001:0012d080       __mbsnbcnt                 1012e080 f   libucrtd:mbsnbcnt.obj
 0001:0012d09c       __mbsnbcnt_l               1012e09c f   libucrtd:mbsnbcnt.obj
 0001:0012d180       __abs64                    1012e180 f   libucrtd:abs.obj
 0001:0012d1e0       _abs                       1012e1e0 f   libucrtd:abs.obj
 0001:0012d210       _strcmp                    1012e210 f   libucrtd:strcmp.obj
 0001:0012d2c0       _cos                       1012e2c0 f   libucrtd:cos.obj
 0001:0012d320       _fmod                      1012e320 f   libucrtd:87fmod.obj
 0001:0012d330       _sin                       1012e330 f   libucrtd:sin.obj
 0001:0012d390       _strtok                    1012e390 f   libucrtd:strtok.obj
 0001:0012d3c0       ??$is_overflow_condition@K@__crt_strtox@@YA_NIK@Z 1012e3c0 f i libucrtd:atox.obj
 0001:0012d430       ??$parse_integer@KV?$c_string_character_source@D@__crt_strtox@@@__crt_strtox@@YAKQAU__crt_locale_pointers@@V?$c_string_character_source@D@0@H_N@Z 1012e430 f i libucrtd:atox.obj
 0001:0012d880       ??$parse_integer@KV?$c_string_character_source@_W@__crt_strtox@@@__crt_strtox@@YAKQAU__crt_locale_pointers@@V?$c_string_character_source@_W@0@H_N@Z 1012e880 f i libucrtd:atox.obj
 0001:0012dcd0       ??$parse_integer@_KV?$c_string_character_source@D@__crt_strtox@@@__crt_strtox@@YA_KQAU__crt_locale_pointers@@V?$c_string_character_source@D@0@H_N@Z 1012ecd0 f i libucrtd:atox.obj
 0001:0012e1f0       ??$parse_integer@_KV?$c_string_character_source@_W@__crt_strtox@@@__crt_strtox@@YA_KQAU__crt_locale_pointers@@V?$c_string_character_source@_W@0@H_N@Z 1012f1f0 f i libucrtd:atox.obj
 0001:0012e730       ??$parse_integer_from_string@JD$$T@__crt_strtox@@YAJQBD$$THQAU__crt_locale_pointers@@@Z 1012f730 f i libucrtd:atox.obj
 0001:0012e780       ??$parse_integer_from_string@J_W$$T@__crt_strtox@@YAJQB_W$$THQAU__crt_locale_pointers@@@Z 1012f780 f i libucrtd:atox.obj
 0001:0012e7d0       ??$parse_integer_from_string@_JD$$T@__crt_strtox@@YA_JQBD$$THQAU__crt_locale_pointers@@@Z 1012f7d0 f i libucrtd:atox.obj
 0001:0012e820       ??$parse_integer_from_string@_J_W$$T@__crt_strtox@@YA_JQB_W$$THQAU__crt_locale_pointers@@@Z 1012f820 f i libucrtd:atox.obj
 0001:0012e870       ?maximum_signed_value@__crt_strtox@@YAJK@Z 1012f870 f i libucrtd:atox.obj
 0001:0012e880       ?minimum_signed_value@__crt_strtox@@YAJK@Z 1012f880 f i libucrtd:atox.obj
 0001:0012e890       __atoi64                   1012f890 f   libucrtd:atox.obj
 0001:0012e8b0       __atoi64_l                 1012f8b0 f   libucrtd:atox.obj
 0001:0012e8e0       __atoi_l                   1012f8e0 f   libucrtd:atox.obj
 0001:0012e910       __atol_l                   1012f910 f   libucrtd:atox.obj
 0001:0012e940       __atoll_l                  1012f940 f   libucrtd:atox.obj
 0001:0012e970       __wtoi                     1012f970 f   libucrtd:atox.obj
 0001:0012e990       __wtoi64                   1012f990 f   libucrtd:atox.obj
 0001:0012e9b0       __wtoi64_l                 1012f9b0 f   libucrtd:atox.obj
 0001:0012e9e0       __wtoi_l                   1012f9e0 f   libucrtd:atox.obj
 0001:0012ea10       __wtol                     1012fa10 f   libucrtd:atox.obj
 0001:0012ea30       __wtol_l                   1012fa30 f   libucrtd:atox.obj
 0001:0012ea60       __wtoll                    1012fa60 f   libucrtd:atox.obj
 0001:0012ea80       __wtoll_l                  1012fa80 f   libucrtd:atox.obj
 0001:0012eab0       _atoi                      1012fab0 f   libucrtd:atox.obj
 0001:0012ead0       _atol                      1012fad0 f   libucrtd:atox.obj
 0001:0012eaf0       _atoll                     1012faf0 f   libucrtd:atox.obj
 0001:0012f830       ??$gmtime_s@ABQAUtm@@ABQBJ@?$__crt_integer_traits@J@@SAHABQAUtm@@ABQBJ@Z 10130830 f i libucrtd:localtime.obj
 0001:0012f860       ??$gmtime_s@ABQAUtm@@ABQB_J@?$__crt_integer_traits@_J@@SAHABQAUtm@@ABQB_J@Z 10130860 f i libucrtd:localtime.obj
 0001:0012f890       ??$gmtime_s@ABQAUtm@@PAJ@?$__crt_integer_traits@J@@SAHABQAUtm@@$$QAPAJ@Z 10130890 f i libucrtd:localtime.obj
 0001:0012f8c0       ??$gmtime_s@ABQAUtm@@PA_J@?$__crt_integer_traits@_J@@SAHABQAUtm@@$$QAPA_J@Z 101308c0 f i libucrtd:localtime.obj
 0001:0012f8f0       ??$localtime_s@ABQAUtm@@ABQBJ@?$__crt_integer_traits@J@@SAHABQAUtm@@ABQBJ@Z 101308f0 f i libucrtd:localtime.obj
 0001:0012f920       ??$localtime_s@ABQAUtm@@ABQB_J@?$__crt_integer_traits@_J@@SAHABQAUtm@@ABQB_J@Z 10130920 f i libucrtd:localtime.obj
 0001:0012f950       __invoke_watson_if_error   10130950 f i libucrtd:localtime.obj
 0001:0012f990       __localtime32              10130990 f   libucrtd:localtime.obj
 0001:0012f9b0       __localtime32_s            101309b0 f   libucrtd:localtime.obj
 0001:0012f9d0       __localtime64              101309d0 f   libucrtd:localtime.obj
 0001:0012f9f0       __localtime64_s            101309f0 f   libucrtd:localtime.obj
 0001:0012fa10       _strncat                   10130a10 f   libucrtd:strncat.obj
 0001:0012fba0       _strncmp                   10130ba0 f   libucrtd:strncmp.obj
 0001:0012fc40       _modf                      10130c40 f   libucrtd:modf_pentium4.obj
 0001:0012fc80       __modf_pentium4            10130c80 f   libucrtd:modf_pentium4.obj
 0001:00131f10       ??$ftprintf@PAU_iobuf@@PBDABQBDABQBDABI@?$__crt_char_traits@D@@SAH$$QAPAU_iobuf@@$$QAPBDABQBD2ABI@Z 10132f10 f i libucrtd:assert.obj
 0001:00131f50       ??$ftprintf@PAU_iobuf@@PB_WABQB_WABQB_WABI@?$__crt_char_traits@_W@@SAH$$QAPAU_iobuf@@$$QAPB_WABQB_W2ABI@Z 10132f50 f i libucrtd:assert.obj
 0001:00131f90       ??$get_module_file_name@AAPAUHINSTANCE__@@AAY0BAF@DK@?$__crt_char_traits@D@@SAKAAPAUHINSTANCE__@@AAY0BAF@D$$QAK@Z 10132f90 f i libucrtd:assert.obj
 0001:00131fc0       ??$get_module_file_name@AAPAUHINSTANCE__@@AAY0BAF@_WK@?$__crt_char_traits@_W@@SAKAAPAUHINSTANCE__@@AAY0BAF@_W$$QAK@Z 10132fc0 f i libucrtd:assert.obj
 0001:00131ff0       ??$itot_s@ABIPADIH@?$__crt_char_traits@D@@SAHABI$$QAPAD$$QAI$$QAH@Z 10132ff0 f i libucrtd:assert.obj
 0001:00132020       ??$itot_s@ABIPA_WIH@?$__crt_char_traits@_W@@SAHABI$$QAPA_W$$QAI$$QAH@Z 10133020 f i libucrtd:assert.obj
 0001:00132050       ??$show_message_box@AAY0CEA@DPBDJ@?$__crt_char_traits@D@@SAHAAY0CEA@D$$QAPBD$$QAJ@Z 10133050 f i libucrtd:assert.obj
 0001:00132080       ??$show_message_box@AAY0CEA@_WPB_WJ@?$__crt_char_traits@_W@@SAHAAY0CEA@_W$$QAPB_W$$QAJ@Z 10133080 f i libucrtd:assert.obj
 0001:001320b0       ??$tcscat_s@ABQADABIAAPAD@?$__crt_char_traits@D@@SAHABQADABIAAPAD@Z 101330b0 f i libucrtd:assert.obj
 0001:001320e0       ??$tcscat_s@ABQADABIABQBD@?$__crt_char_traits@D@@SAHABQADABIABQBD@Z 101330e0 f i libucrtd:assert.obj
 0001:00132110       ??$tcscat_s@ABQADABIPBD@?$__crt_char_traits@D@@SAHABQADABI$$QAPBD@Z 10133110 f i libucrtd:assert.obj
 0001:00132140       ??$tcscat_s@ABQA_WABIAAPA_W@?$__crt_char_traits@_W@@SAHABQA_WABIAAPA_W@Z 10133140 f i libucrtd:assert.obj
 0001:00132170       ??$tcscat_s@ABQA_WABIABQB_W@?$__crt_char_traits@_W@@SAHABQA_WABIABQB_W@Z 10133170 f i libucrtd:assert.obj
 0001:001321a0       ??$tcscat_s@ABQA_WABIPB_W@?$__crt_char_traits@_W@@SAHABQA_WABI$$QAPB_W@Z 101331a0 f i libucrtd:assert.obj
 0001:001321d0       ??$tcscpy_s@AAY0BAF@DIPBD@?$__crt_char_traits@D@@SAHAAY0BAF@D$$QAI$$QAPBD@Z 101331d0 f i libucrtd:assert.obj
 0001:00132200       ??$tcscpy_s@AAY0BAF@_WIPB_W@?$__crt_char_traits@_W@@SAHAAY0BAF@_W$$QAI$$QAPB_W@Z 10133200 f i libucrtd:assert.obj
 0001:00132230       ??$tcscpy_s@ABQADABIPBD@?$__crt_char_traits@D@@SAHABQADABI$$QAPBD@Z 10133230 f i libucrtd:assert.obj
 0001:00132260       ??$tcscpy_s@ABQA_WABIPB_W@?$__crt_char_traits@_W@@SAHABQA_WABI$$QAPB_W@Z 10133260 f i libucrtd:assert.obj
 0001:00132290       ??$tcslen@AAY0BAF@D@?$__crt_char_traits@D@@SAIAAY0BAF@D@Z 10133290 f i libucrtd:assert.obj
 0001:001322b0       ??$tcslen@AAY0BAF@_W@?$__crt_char_traits@_W@@SAIAAY0BAF@_W@Z 101332b0 f i libucrtd:assert.obj
 0001:001322d0       ??$tcslen@ABQAD@?$__crt_char_traits@D@@SAIABQAD@Z 101332d0 f i libucrtd:assert.obj
 0001:001322f0       ??$tcslen@ABQA_W@?$__crt_char_traits@_W@@SAIABQA_W@Z 101332f0 f i libucrtd:assert.obj
 0001:00132310       ??$tcslen@ABQBD@?$__crt_char_traits@D@@SAIABQBD@Z 10133310 f i libucrtd:assert.obj
 0001:00132330       ??$tcslen@ABQB_W@?$__crt_char_traits@_W@@SAIABQB_W@Z 10133330 f i libucrtd:assert.obj
 0001:00132350       ??$tcsncat_s@ABQADABIAAPBDI@?$__crt_char_traits@D@@SAHABQADABIAAPBD$$QAI@Z 10133350 f i libucrtd:assert.obj
 0001:00132380       ??$tcsncat_s@ABQADABIABQBDABI@?$__crt_char_traits@D@@SAHABQADABIABQBD1@Z 10133380 f i libucrtd:assert.obj
 0001:001323b0       ??$tcsncat_s@ABQADABIPBDI@?$__crt_char_traits@D@@SAHABQADABI$$QAPBD$$QAI@Z 101333b0 f i libucrtd:assert.obj
 0001:001323e0       ??$tcsncat_s@ABQA_WABIAAPB_WI@?$__crt_char_traits@_W@@SAHABQA_WABIAAPB_W$$QAI@Z 101333e0 f i libucrtd:assert.obj
 0001:00132410       ??$tcsncat_s@ABQA_WABIABQB_WABI@?$__crt_char_traits@_W@@SAHABQA_WABIABQB_W1@Z 10133410 f i libucrtd:assert.obj
 0001:00132440       ??$tcsncat_s@ABQA_WABIPB_WI@?$__crt_char_traits@_W@@SAHABQA_WABI$$QAPB_W$$QAI@Z 10133440 f i libucrtd:assert.obj
 0001:00132740       ?has_any_buffer@__crt_stdio_stream@@QBE_NXZ 10133740 f i libucrtd:assert.obj
 0001:00132760       ?has_any_of@__crt_stdio_stream@@QBE_NJ@Z 10133760 f i libucrtd:assert.obj
 0001:001327a0       __assert                   101337a0 f   libucrtd:assert.obj
 0001:001327d0       __vfprintf_l               101337d0 f i libucrtd:assert.obj
 0001:00132810       __vfwprintf_l              10133810 f i libucrtd:assert.obj
 0001:00132850       __vswprintf_c_l            10133850 f i libucrtd:assert.obj
 0001:001328c0       __wassert                  101338c0 f   libucrtd:assert.obj
 0001:001328f0       _fprintf                   101338f0 f i libucrtd:assert.obj
 0001:00132940       _fwprintf                  10133940 f i libucrtd:assert.obj
 0001:00132ae0       _swprintf                  10133ae0 f i libucrtd:assert.obj
 0001:00132b30       _floor                     10133b30 f   libucrtd:floor_pentium4.obj
 0001:00132b70       __floor_pentium4           10133b70 f   libucrtd:floor_pentium4.obj
 0001:00132c70       _malloc                    10133c70 f   libucrtd:malloc.obj
 0001:00132c90       _free                      10133c90 f   libucrtd:free.obj
 0001:00132cc0       ___ascii_stricmp           10133cc0 f   libucrtd:stricmp.obj
 0001:00132d50       ___ascii_tolower           10133d50 f i libucrtd:stricmp.obj
 0001:00132d80       __stricmp                  10133d80 f   libucrtd:stricmp.obj
 0001:00132d80       _stricmp                   10133d80 f   libucrtd:stricmp.obj
 0001:00132d80       _strcmpi                   10133d80 f   libucrtd:stricmp.obj
 0001:00132f00       __stricmp_l                10133f00 f   libucrtd:stricmp.obj
 0001:00133100       ?is_in_use@__crt_stdio_stream@@QBE_NXZ 10134100 f i libucrtd:fclose.obj
 0001:00133140       __fclose_nolock            10134140 f   libucrtd:fclose.obj
 0001:001332d0       _fclose                    101342d0 f   libucrtd:fclose.obj
 0001:00133b00       _fgets                     10134b00 f   libucrtd:fgets.obj
 0001:00133b40       _fgetws                    10134b40 f   libucrtd:fgets.obj
 0001:00134320       ??$open_file@ABQBDABQBDABHPAU_iobuf@@@?$__crt_char_traits@D@@SAPAU_iobuf@@ABQBD0ABH$$QAPAU1@@Z 10135320 f i libucrtd:fopen.obj
 0001:00134350       ??$open_file@ABQB_WABQB_WABHPAU_iobuf@@@?$__crt_char_traits@_W@@SAPAU_iobuf@@ABQB_W0ABH$$QAPAU1@@Z 10135350 f i libucrtd:fopen.obj
 0001:00134380       ?unlock@__crt_stdio_stream@@QBEXXZ 10135380 f i libucrtd:fopen.obj
 0001:001343b0       __fsopen                   101353b0 f   libucrtd:fopen.obj
 0001:001343e0       __wfopen                   101353e0 f   libucrtd:fopen.obj
 0001:00134400       __wfopen_s                 10135400 f   libucrtd:fopen.obj
 0001:00134430       __wfsopen                  10135430 f   libucrtd:fopen.obj
 0001:00134460       _fopen                     10135460 f   libucrtd:fopen.obj
 0001:00134480       _fopen_s                   10135480 f   libucrtd:fopen.obj
 0001:001344a1       __mbscmp                   101354a1 f   libucrtd:mbscmp.obj
 0001:001344bd       __mbscmp_l                 101354bd f   libucrtd:mbscmp.obj
 0001:00134a30       __time32                   10135a30 f   libucrtd:time.obj
 0001:00134a50       __time64                   10135a50 f   libucrtd:time.obj
 0001:00134a70       __timespec32_get           10135a70 f   libucrtd:time.obj
 0001:00134a90       __timespec64_get           10135a90 f   libucrtd:time.obj
 0001:00134aac       __mbsdec                   10135aac f   libucrtd:mbsdec.obj
 0001:00134ac8       __mbsdec_l                 10135ac8 f   libucrtd:mbsdec.obj
 0001:00134bd8       __mbsncpy                  10135bd8 f   libucrtd:mbsncpy.obj
 0001:00134bf8       __mbsncpy_l                10135bf8 f   libucrtd:mbsncpy.obj
 0001:00134d45       __mbsrchr                  10135d45 f   libucrtd:mbsrchr.obj
 0001:00134d61       __mbsrchr_l                10135d61 f   libucrtd:mbsrchr.obj
 0001:00134e5b       __mbsspnp                  10135e5b f   libucrtd:mbsspnp.obj
 0001:00134e77       __mbsspnp_l                10135e77 f   libucrtd:mbsspnp.obj
 0001:00135270       ?has_big_buffer@__crt_stdio_stream@@QBE_NXZ 10136270 f i libucrtd:fwrite.obj
 0001:00135290       ?set_flags@__crt_stdio_stream@@QBE_NJ@Z 10136290 f i libucrtd:fwrite.obj
 0001:001352f0       __fwrite_nolock            101362f0 f   libucrtd:fwrite.obj
 0001:00135900       _fwrite                    10136900 f   libucrtd:fwrite.obj
 0001:00135cb0       ??$?R_W@__crt_public_free_policy@@QBEXQB_W@Z 10136cb0 f i libucrtd:stat.obj
 0001:00135f60       ??$__acrt_mbs_to_wcs_cp@U__crt_win32_buffer_internal_dynamic_resizing@@@@YAHQBDAAV?$__crt_win32_buffer@_WU__crt_win32_buffer_internal_dynamic_resizing@@@@I@Z 10136f60 f i libucrtd:stat.obj
 0001:00138b40       ??$loctotime@AAGAAGAAGAAGAAGAAGH@?$__crt_integer_traits@J@@SAJAAG00000$$QAH@Z 10139b40 f i libucrtd:stat.obj
 0001:00138b90       ??$loctotime@AAGAAGAAGAAGAAGAAGH@?$__crt_integer_traits@_J@@SA_JAAG00000$$QAH@Z 10139b90 f i libucrtd:stat.obj
 0001:00138be0       ??$loctotime@HHHHHHH@?$__crt_integer_traits@J@@SAJ$$QAH000000@Z 10139be0 f i libucrtd:stat.obj
 0001:00138c30       ??$loctotime@HHHHHHH@?$__crt_integer_traits@_J@@SA_J$$QAH000000@Z 10139c30 f i libucrtd:stat.obj
 0001:00138ec0       ??0?$__crt_unique_handle_t@U__crt_handle_traits@@@@QAE@QAX@Z 10139ec0 f i libucrtd:stat.obj
 0001:00138ee0       ??0?$__crt_unique_heap_ptr@_WU__crt_public_free_policy@@@@QAE@QA_W@Z 10139ee0 f i libucrtd:stat.obj
 0001:00138f00       ??0?$__crt_win32_buffer@_WU__crt_win32_buffer_internal_dynamic_resizing@@@@QAE@XZ 10139f00 f i libucrtd:stat.obj
 0001:00138f60       ??1?$__crt_unique_handle_t@U__crt_handle_traits@@@@QAE@XZ 10139f60 f i libucrtd:stat.obj
 0001:00138f80       ??1?$__crt_unique_heap_ptr@_WU__crt_public_free_policy@@@@QAE@XZ 10139f80 f i libucrtd:stat.obj
 0001:00138fa0       ??1?$__crt_win32_buffer@_WU__crt_win32_buffer_internal_dynamic_resizing@@@@QAE@XZ 10139fa0 f i libucrtd:stat.obj
 0001:00138ff0       ??B?$__crt_unique_handle_t@U__crt_handle_traits@@@@QBE_NXZ 10139ff0 f i libucrtd:stat.obj
 0001:001396e0       ?__acrt_get_utf8_acp_compatibility_codepage@@YAIXZ 1013a6e0 f i libucrtd:stat.obj
 0001:00139790       ?_deallocate@?$__crt_win32_buffer@_WU__crt_win32_buffer_internal_dynamic_resizing@@@@AAEXXZ 1013a790 f i libucrtd:stat.obj
 0001:001397e0       ?allocate@?$__crt_win32_buffer@_WU__crt_win32_buffer_internal_dynamic_resizing@@@@QAEHI@Z 1013a7e0 f i libucrtd:stat.obj
 0001:00139870       ?allocate@__crt_win32_buffer_internal_dynamic_resizing@@SAHQAPAXIABV__crt_win32_buffer_empty_debug_info@@@Z 1013a870 f i libucrtd:stat.obj
 0001:00139960       ?capacity@?$__crt_win32_buffer@_WU__crt_win32_buffer_internal_dynamic_resizing@@@@QBEIXZ 1013a960 f i libucrtd:stat.obj
 0001:00139980       ?close@?$__crt_unique_handle_t@U__crt_handle_traits@@@@QAEXXZ 1013a980 f i libucrtd:stat.obj
 0001:001399c0       ?close@__crt_handle_traits@@SA_NPAX@Z 1013a9c0 f i libucrtd:stat.obj
 0001:00139bf0       ?data@?$__crt_win32_buffer@_WU__crt_win32_buffer_internal_dynamic_resizing@@@@QAEPA_WXZ 1013abf0 f i libucrtd:stat.obj
 0001:00139c10       ?deallocate@__crt_win32_buffer_internal_dynamic_resizing@@SAXQAXABV__crt_win32_buffer_empty_debug_info@@@Z 1013ac10 f i libucrtd:stat.obj
 0001:00139c30       ?debug_info@?$__crt_win32_buffer@_WU__crt_win32_buffer_internal_dynamic_resizing@@@@QBEABV__crt_win32_buffer_empty_debug_info@@XZ 1013ac30 f i libucrtd:stat.obj
 0001:00139c50       ?get@?$__crt_unique_handle_t@U__crt_handle_traits@@@@QBEPAXXZ 1013ac50 f i libucrtd:stat.obj
 0001:00139c70       ?get_address_of@?$__crt_unique_heap_ptr@_WU__crt_public_free_policy@@@@QAEPAPA_WXZ 1013ac70 f i libucrtd:stat.obj
 0001:00139d50       ?get_invalid_value@__crt_handle_traits@@SAPAXXZ 1013ad50 f i libucrtd:stat.obj
 0001:0013a250       ?is_valid@?$__crt_unique_handle_t@U__crt_handle_traits@@@@QBE_NXZ 1013b250 f i libucrtd:stat.obj
 0001:0013a290       ?release@?$__crt_unique_heap_ptr@_WU__crt_public_free_policy@@@@QAEXXZ 1013b290 f i libucrtd:stat.obj
 0001:0013a2c0       ?set_to_nullptr@?$__crt_win32_buffer@_WU__crt_win32_buffer_internal_dynamic_resizing@@@@QAEXXZ 1013b2c0 f i libucrtd:stat.obj
 0001:0013a300       ?size@?$__crt_win32_buffer@_WU__crt_win32_buffer_internal_dynamic_resizing@@@@QAEXI@Z 1013b300 f i libucrtd:stat.obj
 0001:0013a320       ___ascii_towlower          1013b320 f i libucrtd:stat.obj
 0001:0013a340       __fstat32                  1013b340 f   libucrtd:stat.obj
 0001:0013a360       __fstat32i64               1013b360 f   libucrtd:stat.obj
 0001:0013a380       __fstat64                  1013b380 f   libucrtd:stat.obj
 0001:0013a3a0       __fstat64i32               1013b3a0 f   libucrtd:stat.obj
 0001:0013a3c0       __stat32                   1013b3c0 f   libucrtd:stat.obj
 0001:0013a3e0       __stat32i64                1013b3e0 f   libucrtd:stat.obj
 0001:0013a400       __stat64                   1013b400 f   libucrtd:stat.obj
 0001:0013a420       __stat64i32                1013b420 f   libucrtd:stat.obj
 0001:0013a440       __wstat32                  1013b440 f   libucrtd:stat.obj
 0001:0013a460       __wstat32i64               1013b460 f   libucrtd:stat.obj
 0001:0013a480       __wstat64                  1013b480 f   libucrtd:stat.obj
 0001:0013a4a0       __wstat64i32               1013b4a0 f   libucrtd:stat.obj
 0001:0013a4bc       ??$?0$0BAE@@?$__crt_win32_buffer@_WU__crt_win32_buffer_internal_dynamic_resizing@@@@QAE@AAY0BAE@_W@Z 1013b4bc f i libucrtd:getcwd.obj
 0001:0013a7c3       ??$__acrt_get_full_path_name_narrow_acp_or_utf8@U__crt_win32_buffer_no_resizing@@@@YAHQBDAAV?$__crt_win32_buffer@DU__crt_win32_buffer_no_resizing@@@@@Z 1013b7c3 f i libucrtd:getcwd.obj
 0001:0013a8e7       ??$__acrt_get_full_path_name_narrow_acp_or_utf8@U__crt_win32_buffer_public_dynamic_resizing@@@@YAHQBDAAV?$__crt_win32_buffer@DU__crt_win32_buffer_public_dynamic_resizing@@@@@Z 1013b8e7 f i libucrtd:getcwd.obj
 0001:0013aa0b       ??$__acrt_get_full_path_name_wide@U__crt_win32_buffer_internal_dynamic_resizing@@@@YAHQB_WAAV?$__crt_win32_buffer@_WU__crt_win32_buffer_internal_dynamic_resizing@@@@@Z 1013ba0b f i libucrtd:getcwd.obj
 0001:0013aa8e       ??$__acrt_get_full_path_name_wide@U__crt_win32_buffer_no_resizing@@@@YAHQB_WAAV?$__crt_win32_buffer@_WU__crt_win32_buffer_no_resizing@@@@@Z 1013ba8e f i libucrtd:getcwd.obj
 0001:0013ab11       ??$__acrt_get_full_path_name_wide@U__crt_win32_buffer_public_dynamic_resizing@@@@YAHQB_WAAV?$__crt_win32_buffer@_WU__crt_win32_buffer_public_dynamic_resizing@@@@@Z 1013bb11 f i libucrtd:getcwd.obj
 0001:0013ab94       ??$__acrt_wcs_to_mbs_cp@U__crt_win32_buffer_no_resizing@@@@YAHQB_WAAV?$__crt_win32_buffer@DU__crt_win32_buffer_no_resizing@@@@I@Z 1013bb94 f i libucrtd:getcwd.obj
 0001:0013abb8       ??$__acrt_wcs_to_mbs_cp@U__crt_win32_buffer_public_dynamic_resizing@@@@YAHQB_WAAV?$__crt_win32_buffer@DU__crt_win32_buffer_public_dynamic_resizing@@@@I@Z 1013bbb8 f i libucrtd:getcwd.obj
 0001:0013b1c2       ??$get_full_path_name@AAY03DAAV?$__crt_win32_buffer@DU__crt_win32_buffer_no_resizing@@@@@?$__crt_char_traits@D@@SAHAAY03DAAV?$__crt_win32_buffer@DU__crt_win32_buffer_no_resizing@@@@@Z 1013c1c2 f i libucrtd:getcwd.obj
 0001:0013b1cf       ??$get_full_path_name@AAY03DAAV?$__crt_win32_buffer@DU__crt_win32_buffer_public_dynamic_resizing@@@@@?$__crt_char_traits@D@@SAHAAY03DAAV?$__crt_win32_buffer@DU__crt_win32_buffer_public_dynamic_resizing@@@@@Z 1013c1cf f i libucrtd:getcwd.obj
 0001:0013b1dc       ??$get_full_path_name@AAY03_WAAV?$__crt_win32_buffer@_WU__crt_win32_buffer_no_resizing@@@@@?$__crt_char_traits@_W@@SAHAAY03_WAAV?$__crt_win32_buffer@_WU__crt_win32_buffer_no_resizing@@@@@Z 1013c1dc f i libucrtd:getcwd.obj
 0001:0013b1e9       ??$get_full_path_name@AAY03_WAAV?$__crt_win32_buffer@_WU__crt_win32_buffer_public_dynamic_resizing@@@@@?$__crt_char_traits@_W@@SAHAAY03_WAAV?$__crt_win32_buffer@_WU__crt_win32_buffer_public_dynamic_resizing@@@@@Z 1013c1e9 f i libucrtd:getcwd.obj
 0001:0013b238       ??0?$__crt_win32_buffer@DU__crt_win32_buffer_no_resizing@@@@QAE@QADI@Z 1013c238 f i libucrtd:getcwd.obj
 0001:0013b265       ??0?$__crt_win32_buffer@DU__crt_win32_buffer_public_dynamic_resizing@@@@QAE@ABV__crt_win32_buffer_debug_info@@@Z 1013c265 f i libucrtd:getcwd.obj
 0001:0013b29a       ??0?$__crt_win32_buffer@_WU__crt_win32_buffer_no_resizing@@@@QAE@QA_WI@Z 1013c29a f i libucrtd:getcwd.obj
 0001:0013b2c7       ??0?$__crt_win32_buffer@_WU__crt_win32_buffer_public_dynamic_resizing@@@@QAE@ABV__crt_win32_buffer_debug_info@@@Z 1013c2c7 f i libucrtd:getcwd.obj
 0001:0013b2fc       ??0__crt_win32_buffer_debug_info@@QAE@HQBDH@Z 1013c2fc f i libucrtd:getcwd.obj
 0001:0013b31f       ??1?$__crt_win32_buffer@DU__crt_win32_buffer_no_resizing@@@@QAE@XZ 1013c31f f i libucrtd:getcwd.obj
 0001:0013b32c       ??1?$__crt_win32_buffer@DU__crt_win32_buffer_public_dynamic_resizing@@@@QAE@XZ 1013c32c f i libucrtd:getcwd.obj
 0001:0013b331       ??1?$__crt_win32_buffer@_WU__crt_win32_buffer_no_resizing@@@@QAE@XZ 1013c331 f i libucrtd:getcwd.obj
 0001:0013b33e       ??1?$__crt_win32_buffer@_WU__crt_win32_buffer_public_dynamic_resizing@@@@QAE@XZ 1013c33e f i libucrtd:getcwd.obj
 0001:0013b423       ?_deallocate@?$__crt_win32_buffer@DU__crt_win32_buffer_no_resizing@@@@AAEXXZ 1013c423 f i libucrtd:getcwd.obj
 0001:0013b430       ?_deallocate@?$__crt_win32_buffer@DU__crt_win32_buffer_public_dynamic_resizing@@@@AAEXXZ 1013c430 f i libucrtd:getcwd.obj
 0001:0013b454       ?_deallocate@?$__crt_win32_buffer@_WU__crt_win32_buffer_no_resizing@@@@AAEXXZ 1013c454 f i libucrtd:getcwd.obj
 0001:0013b461       ?_deallocate@?$__crt_win32_buffer@_WU__crt_win32_buffer_public_dynamic_resizing@@@@AAEXXZ 1013c461 f i libucrtd:getcwd.obj
 0001:0013b485       ?_reset_no_dealloc@?$__crt_win32_buffer@DU__crt_win32_buffer_public_dynamic_resizing@@@@AAEXXZ 1013c485 f i libucrtd:getcwd.obj
 0001:0013b49a       ?_reset_no_dealloc@?$__crt_win32_buffer@_WU__crt_win32_buffer_public_dynamic_resizing@@@@AAEXXZ 1013c49a f i libucrtd:getcwd.obj
 0001:0013b4af       ?allocate@?$__crt_win32_buffer@DU__crt_win32_buffer_no_resizing@@@@QAEHI@Z 1013c4af f i libucrtd:getcwd.obj
 0001:0013b4df       ?allocate@?$__crt_win32_buffer@DU__crt_win32_buffer_public_dynamic_resizing@@@@QAEHI@Z 1013c4df f i libucrtd:getcwd.obj
 0001:0013b52a       ?allocate@?$__crt_win32_buffer@_WU__crt_win32_buffer_no_resizing@@@@QAEHI@Z 1013c52a f i libucrtd:getcwd.obj
 0001:0013b55a       ?allocate@?$__crt_win32_buffer@_WU__crt_win32_buffer_public_dynamic_resizing@@@@QAEHI@Z 1013c55a f i libucrtd:getcwd.obj
 0001:0013b5a8       ?allocate@__crt_win32_buffer_no_resizing@@SAHQAPAXIABV__crt_win32_buffer_empty_debug_info@@@Z 1013c5a8 f i libucrtd:getcwd.obj
 0001:0013b5b8       ?allocate@__crt_win32_buffer_public_dynamic_resizing@@SAHQAPAXIABV__crt_win32_buffer_debug_info@@@Z 1013c5b8 f i libucrtd:getcwd.obj
 0001:0013b5ef       ?block_use@__crt_win32_buffer_debug_info@@QBEHXZ 1013c5ef f i libucrtd:getcwd.obj
 0001:0013b5f2       ?capacity@?$__crt_win32_buffer@DU__crt_win32_buffer_no_resizing@@@@QBEIXZ 1013c5f2 f i libucrtd:getcwd.obj
